
kernel.elf:     file format elf32-littlearm


Disassembly of section .init:

00008000 <_start>:
    8000:	e59ff018 	ldr	pc, [pc, #24]	; 8020 <reset_handler>
    8004:	e59ff018 	ldr	pc, [pc, #24]	; 8024 <undefined_handler>
    8008:	e59ff018 	ldr	pc, [pc, #24]	; 8028 <swi_handler>
    800c:	e59ff018 	ldr	pc, [pc, #24]	; 802c <prefetch_handler>
    8010:	e59ff018 	ldr	pc, [pc, #24]	; 8030 <data_handler>
    8014:	e59ff018 	ldr	pc, [pc, #24]	; 8034 <unused_handler>
    8018:	e59ff018 	ldr	pc, [pc, #24]	; 8038 <irq_handler>
    801c:	e59ff018 	ldr	pc, [pc, #24]	; 803c <fiq_handler>

00008020 <reset_handler>:
    8020:	00008040 	andeq	r8, r0, r0, asr #32

00008024 <undefined_handler>:
    8024:	000142e8 	andeq	r4, r1, r8, ror #5

00008028 <swi_handler>:
    8028:	000103dc 	ldrdeq	r0, [r1], -ip

0000802c <prefetch_handler>:
    802c:	000142ec 	andeq	r4, r1, ip, ror #5

00008030 <data_handler>:
    8030:	000142f0 	strdeq	r4, [r1], -r0

00008034 <unused_handler>:
    8034:	000142f4 	strdeq	r4, [r1], -r4	; <UNPREDICTABLE>

00008038 <irq_handler>:
    8038:	00010490 	muleq	r1, r0, r4

0000803c <fiq_handler>:
    803c:	000142f8 	strdeq	r4, [r1], -r8

00008040 <reset>:
    8040:	e3a00902 	mov	r0, #32768	; 0x8000
    8044:	e3a01000 	mov	r1, #0
    8048:	e8b003fc 	ldm	r0!, {r2, r3, r4, r5, r6, r7, r8, r9}
    804c:	e8a103fc 	stmia	r1!, {r2, r3, r4, r5, r6, r7, r8, r9}
    8050:	e8b003fc 	ldm	r0!, {r2, r3, r4, r5, r6, r7, r8, r9}
    8054:	e8a103fc 	stmia	r1!, {r2, r3, r4, r5, r6, r7, r8, r9}
    8058:	e3a000d2 	mov	r0, #210	; 0xd2
    805c:	e121f000 	msr	CPSR_c, r0
    8060:	e3a0d902 	mov	sp, #32768	; 0x8000
    8064:	e3a000d1 	mov	r0, #209	; 0xd1
    8068:	e121f000 	msr	CPSR_c, r0
    806c:	e3a0d901 	mov	sp, #16384	; 0x4000
    8070:	e3a000d3 	mov	r0, #211	; 0xd3
    8074:	e121f000 	msr	CPSR_c, r0
    8078:	e3a0d302 	mov	sp, #134217728	; 0x8000000
    807c:	e59f0018 	ldr	r0, [pc, #24]	; 809c <zero_loop+0x14>
    8080:	e59f1018 	ldr	r1, [pc, #24]	; 80a0 <zero_loop+0x18>
    8084:	e3a02000 	mov	r2, #0

00008088 <zero_loop>:
    8088:	e1500001 	cmp	r0, r1
    808c:	b4802004 	strlt	r2, [r0], #4
    8090:	bafffffc 	blt	8088 <zero_loop>
    8094:	eb002d65 	bl	13630 <irqBlock>
    8098:	ea0030b8 	b	14380 <main>
    809c:	00014758 	andeq	r4, r1, r8, asr r7
    80a0:	00015b38 	andeq	r5, r1, r8, lsr fp

Disassembly of section .text:

00010000 <pxPortInitialiseStack>:
   10000:	e52db004 	push	{fp}		; (str fp, [sp, #-4]!)
   10004:	e28db000 	add	fp, sp, #0
   10008:	e24dd01c 	sub	sp, sp, #28
   1000c:	e50b0010 	str	r0, [fp, #-16]
   10010:	e50b1014 	str	r1, [fp, #-20]	; 0xffffffec
   10014:	e50b2018 	str	r2, [fp, #-24]	; 0xffffffe8
   10018:	e51b3010 	ldr	r3, [fp, #-16]
   1001c:	e50b3008 	str	r3, [fp, #-8]
   10020:	e51b3010 	ldr	r3, [fp, #-16]
   10024:	e2433004 	sub	r3, r3, #4
   10028:	e50b3010 	str	r3, [fp, #-16]
   1002c:	e51b3014 	ldr	r3, [fp, #-20]	; 0xffffffec
   10030:	e2832004 	add	r2, r3, #4
   10034:	e51b3010 	ldr	r3, [fp, #-16]
   10038:	e5832000 	str	r2, [r3]
   1003c:	e51b3010 	ldr	r3, [fp, #-16]
   10040:	e2433004 	sub	r3, r3, #4
   10044:	e50b3010 	str	r3, [fp, #-16]
   10048:	e51b3010 	ldr	r3, [fp, #-16]
   1004c:	e59f21b8 	ldr	r2, [pc, #440]	; 1020c <pxPortInitialiseStack+0x20c>
   10050:	e5832000 	str	r2, [r3]
   10054:	e51b3010 	ldr	r3, [fp, #-16]
   10058:	e2433004 	sub	r3, r3, #4
   1005c:	e50b3010 	str	r3, [fp, #-16]
   10060:	e51b2008 	ldr	r2, [fp, #-8]
   10064:	e51b3010 	ldr	r3, [fp, #-16]
   10068:	e5832000 	str	r2, [r3]
   1006c:	e51b3010 	ldr	r3, [fp, #-16]
   10070:	e2433004 	sub	r3, r3, #4
   10074:	e50b3010 	str	r3, [fp, #-16]
   10078:	e51b3010 	ldr	r3, [fp, #-16]
   1007c:	e59f218c 	ldr	r2, [pc, #396]	; 10210 <pxPortInitialiseStack+0x210>
   10080:	e5832000 	str	r2, [r3]
   10084:	e51b3010 	ldr	r3, [fp, #-16]
   10088:	e2433004 	sub	r3, r3, #4
   1008c:	e50b3010 	str	r3, [fp, #-16]
   10090:	e51b3010 	ldr	r3, [fp, #-16]
   10094:	e59f2178 	ldr	r2, [pc, #376]	; 10214 <pxPortInitialiseStack+0x214>
   10098:	e5832000 	str	r2, [r3]
   1009c:	e51b3010 	ldr	r3, [fp, #-16]
   100a0:	e2433004 	sub	r3, r3, #4
   100a4:	e50b3010 	str	r3, [fp, #-16]
   100a8:	e51b3010 	ldr	r3, [fp, #-16]
   100ac:	e59f2164 	ldr	r2, [pc, #356]	; 10218 <pxPortInitialiseStack+0x218>
   100b0:	e5832000 	str	r2, [r3]
   100b4:	e51b3010 	ldr	r3, [fp, #-16]
   100b8:	e2433004 	sub	r3, r3, #4
   100bc:	e50b3010 	str	r3, [fp, #-16]
   100c0:	e51b3010 	ldr	r3, [fp, #-16]
   100c4:	e59f2150 	ldr	r2, [pc, #336]	; 1021c <pxPortInitialiseStack+0x21c>
   100c8:	e5832000 	str	r2, [r3]
   100cc:	e51b3010 	ldr	r3, [fp, #-16]
   100d0:	e2433004 	sub	r3, r3, #4
   100d4:	e50b3010 	str	r3, [fp, #-16]
   100d8:	e51b3010 	ldr	r3, [fp, #-16]
   100dc:	e59f213c 	ldr	r2, [pc, #316]	; 10220 <pxPortInitialiseStack+0x220>
   100e0:	e5832000 	str	r2, [r3]
   100e4:	e51b3010 	ldr	r3, [fp, #-16]
   100e8:	e2433004 	sub	r3, r3, #4
   100ec:	e50b3010 	str	r3, [fp, #-16]
   100f0:	e51b3010 	ldr	r3, [fp, #-16]
   100f4:	e59f2128 	ldr	r2, [pc, #296]	; 10224 <pxPortInitialiseStack+0x224>
   100f8:	e5832000 	str	r2, [r3]
   100fc:	e51b3010 	ldr	r3, [fp, #-16]
   10100:	e2433004 	sub	r3, r3, #4
   10104:	e50b3010 	str	r3, [fp, #-16]
   10108:	e51b3010 	ldr	r3, [fp, #-16]
   1010c:	e59f2114 	ldr	r2, [pc, #276]	; 10228 <pxPortInitialiseStack+0x228>
   10110:	e5832000 	str	r2, [r3]
   10114:	e51b3010 	ldr	r3, [fp, #-16]
   10118:	e2433004 	sub	r3, r3, #4
   1011c:	e50b3010 	str	r3, [fp, #-16]
   10120:	e51b3010 	ldr	r3, [fp, #-16]
   10124:	e59f2100 	ldr	r2, [pc, #256]	; 1022c <pxPortInitialiseStack+0x22c>
   10128:	e5832000 	str	r2, [r3]
   1012c:	e51b3010 	ldr	r3, [fp, #-16]
   10130:	e2433004 	sub	r3, r3, #4
   10134:	e50b3010 	str	r3, [fp, #-16]
   10138:	e51b3010 	ldr	r3, [fp, #-16]
   1013c:	e59f20ec 	ldr	r2, [pc, #236]	; 10230 <pxPortInitialiseStack+0x230>
   10140:	e5832000 	str	r2, [r3]
   10144:	e51b3010 	ldr	r3, [fp, #-16]
   10148:	e2433004 	sub	r3, r3, #4
   1014c:	e50b3010 	str	r3, [fp, #-16]
   10150:	e51b3010 	ldr	r3, [fp, #-16]
   10154:	e59f20d8 	ldr	r2, [pc, #216]	; 10234 <pxPortInitialiseStack+0x234>
   10158:	e5832000 	str	r2, [r3]
   1015c:	e51b3010 	ldr	r3, [fp, #-16]
   10160:	e2433004 	sub	r3, r3, #4
   10164:	e50b3010 	str	r3, [fp, #-16]
   10168:	e51b3010 	ldr	r3, [fp, #-16]
   1016c:	e59f20c4 	ldr	r2, [pc, #196]	; 10238 <pxPortInitialiseStack+0x238>
   10170:	e5832000 	str	r2, [r3]
   10174:	e51b3010 	ldr	r3, [fp, #-16]
   10178:	e2433004 	sub	r3, r3, #4
   1017c:	e50b3010 	str	r3, [fp, #-16]
   10180:	e51b3010 	ldr	r3, [fp, #-16]
   10184:	e59f20b0 	ldr	r2, [pc, #176]	; 1023c <pxPortInitialiseStack+0x23c>
   10188:	e5832000 	str	r2, [r3]
   1018c:	e51b3010 	ldr	r3, [fp, #-16]
   10190:	e2433004 	sub	r3, r3, #4
   10194:	e50b3010 	str	r3, [fp, #-16]
   10198:	e51b2018 	ldr	r2, [fp, #-24]	; 0xffffffe8
   1019c:	e51b3010 	ldr	r3, [fp, #-16]
   101a0:	e5832000 	str	r2, [r3]
   101a4:	e51b3010 	ldr	r3, [fp, #-16]
   101a8:	e2433004 	sub	r3, r3, #4
   101ac:	e50b3010 	str	r3, [fp, #-16]
   101b0:	e51b3010 	ldr	r3, [fp, #-16]
   101b4:	e3a0201f 	mov	r2, #31
   101b8:	e5832000 	str	r2, [r3]
   101bc:	e51b3014 	ldr	r3, [fp, #-20]	; 0xffffffec
   101c0:	e2033001 	and	r3, r3, #1
   101c4:	e3530000 	cmp	r3, #0
   101c8:	0a000004 	beq	101e0 <pxPortInitialiseStack+0x1e0>
   101cc:	e51b3010 	ldr	r3, [fp, #-16]
   101d0:	e5933000 	ldr	r3, [r3]
   101d4:	e3832020 	orr	r2, r3, #32
   101d8:	e51b3010 	ldr	r3, [fp, #-16]
   101dc:	e5832000 	str	r2, [r3]
   101e0:	e51b3010 	ldr	r3, [fp, #-16]
   101e4:	e2433004 	sub	r3, r3, #4
   101e8:	e50b3010 	str	r3, [fp, #-16]
   101ec:	e51b3010 	ldr	r3, [fp, #-16]
   101f0:	e3a02000 	mov	r2, #0
   101f4:	e5832000 	str	r2, [r3]
   101f8:	e51b3010 	ldr	r3, [fp, #-16]
   101fc:	e1a00003 	mov	r0, r3
   10200:	e28bd000 	add	sp, fp, #0
   10204:	e49db004 	pop	{fp}		; (ldr fp, [sp], #4)
   10208:	e12fff1e 	bx	lr
   1020c:	aaaaaaaa 	bge	feabacbc <_estack+0xf6aaacbc>
   10210:	12121212 	andsne	r1, r2, #536870913	; 0x20000001
   10214:	11111111 	tstne	r1, r1, lsl r1
   10218:	10101010 	andsne	r1, r0, r0, lsl r0
   1021c:	09090909 	stmdbeq	r9, {r0, r3, r8, fp}
   10220:	08080808 	stmdaeq	r8, {r3, fp}
   10224:	07070707 	streq	r0, [r7, -r7, lsl #14]
   10228:	06060606 	streq	r0, [r6], -r6, lsl #12
   1022c:	05050505 	streq	r0, [r5, #-1285]	; 0xfffffafb
   10230:	04040404 	streq	r0, [r4], #-1028	; 0xfffffbfc
   10234:	03030303 	movweq	r0, #13059	; 0x3303
   10238:	02020202 	andeq	r0, r2, #536870912	; 0x20000000
   1023c:	01010101 	tsteq	r1, r1, lsl #2

00010240 <xPortStartScheduler>:
   10240:	e92d4800 	push	{fp, lr}
   10244:	e28db004 	add	fp, sp, #4
   10248:	eb000017 	bl	102ac <prvSetupTimerInterrupt>
   1024c:	eb00003c 	bl	10344 <vPortISRStartFirstTask>
   10250:	e3a03000 	mov	r3, #0
   10254:	e1a00003 	mov	r0, r3
   10258:	e8bd8800 	pop	{fp, pc}

0001025c <vPortEndScheduler>:
   1025c:	e52db004 	push	{fp}		; (str fp, [sp, #-4]!)
   10260:	e28db000 	add	fp, sp, #0
   10264:	e320f000 	nop	{0}
   10268:	e28bd000 	add	sp, fp, #0
   1026c:	e49db004 	pop	{fp}		; (ldr fp, [sp], #4)
   10270:	e12fff1e 	bx	lr

00010274 <vTickISR>:
   10274:	e92d4800 	push	{fp, lr}
   10278:	e28db004 	add	fp, sp, #4
   1027c:	e24dd008 	sub	sp, sp, #8
   10280:	e50b0008 	str	r0, [fp, #-8]
   10284:	e50b100c 	str	r1, [fp, #-12]
   10288:	eb0009af 	bl	1294c <vTaskIncrementTick>
   1028c:	eb000a82 	bl	12c9c <vTaskSwitchContext>
   10290:	e59f3010 	ldr	r3, [pc, #16]	; 102a8 <vTickISR+0x34>
   10294:	e3a02000 	mov	r2, #0
   10298:	e583200c 	str	r2, [r3, #12]
   1029c:	e320f000 	nop	{0}
   102a0:	e24bd004 	sub	sp, fp, #4
   102a4:	e8bd8800 	pop	{fp, pc}
   102a8:	2000b400 	andcs	fp, r0, r0, lsl #8

000102ac <prvSetupTimerInterrupt>:
   102ac:	e92d4800 	push	{fp, lr}
   102b0:	e28db004 	add	fp, sp, #4
   102b4:	e24dd008 	sub	sp, sp, #8
   102b8:	e3a03ffa 	mov	r3, #1000	; 0x3e8
   102bc:	e50b3008 	str	r3, [fp, #-8]
   102c0:	eb000cda 	bl	13630 <irqBlock>
   102c4:	e59f3068 	ldr	r3, [pc, #104]	; 10334 <prvSetupTimerInterrupt+0x88>
   102c8:	e3a0283e 	mov	r2, #4063232	; 0x3e0000
   102cc:	e5832008 	str	r2, [r3, #8]
   102d0:	e59f305c 	ldr	r3, [pc, #92]	; 10334 <prvSetupTimerInterrupt+0x88>
   102d4:	e59f205c 	ldr	r2, [pc, #92]	; 10338 <prvSetupTimerInterrupt+0x8c>
   102d8:	e5832000 	str	r2, [r3]
   102dc:	e59f3050 	ldr	r3, [pc, #80]	; 10334 <prvSetupTimerInterrupt+0x88>
   102e0:	e59f2050 	ldr	r2, [pc, #80]	; 10338 <prvSetupTimerInterrupt+0x8c>
   102e4:	e5832018 	str	r2, [r3, #24]
   102e8:	e59f3044 	ldr	r3, [pc, #68]	; 10334 <prvSetupTimerInterrupt+0x88>
   102ec:	e3a020f9 	mov	r2, #249	; 0xf9
   102f0:	e583201c 	str	r2, [r3, #28]
   102f4:	e59f3038 	ldr	r3, [pc, #56]	; 10334 <prvSetupTimerInterrupt+0x88>
   102f8:	e3a02000 	mov	r2, #0
   102fc:	e583200c 	str	r2, [r3, #12]
   10300:	e59f302c 	ldr	r3, [pc, #44]	; 10334 <prvSetupTimerInterrupt+0x88>
   10304:	e59f2030 	ldr	r2, [pc, #48]	; 1033c <prvSetupTimerInterrupt+0x90>
   10308:	e5832008 	str	r2, [r3, #8]
   1030c:	e3a02000 	mov	r2, #0
   10310:	e59f1028 	ldr	r1, [pc, #40]	; 10340 <prvSetupTimerInterrupt+0x94>
   10314:	e3a00040 	mov	r0, #64	; 0x40
   10318:	eb000ccb 	bl	1364c <irqRegister>
   1031c:	e3a00040 	mov	r0, #64	; 0x40
   10320:	eb000ce2 	bl	136b0 <irqEnable>
   10324:	eb000cba 	bl	13614 <irqUnblock>
   10328:	e320f000 	nop	{0}
   1032c:	e24bd004 	sub	sp, fp, #4
   10330:	e8bd8800 	pop	{fp, pc}
   10334:	2000b400 	andcs	fp, r0, r0, lsl #8
   10338:	000003e7 	andeq	r0, r0, r7, ror #7
   1033c:	003e00a2 	eorseq	r0, lr, r2, lsr #1
   10340:	00010274 	andeq	r0, r1, r4, ror r2

00010344 <vPortISRStartFirstTask>:
   10344:	e52db004 	push	{fp}		; (str fp, [sp, #-4]!)
   10348:	e28db000 	add	fp, sp, #0
   1034c:	e59f307c 	ldr	r3, [pc, #124]	; 103d0 <vPortISRStartFirstTask+0x8c>
   10350:	e5933000 	ldr	r3, [r3]
   10354:	e2833001 	add	r3, r3, #1
   10358:	e59f2070 	ldr	r2, [pc, #112]	; 103d0 <vPortISRStartFirstTask+0x8c>
   1035c:	e5823000 	str	r3, [r2]
   10360:	e10f0000 	mrs	r0, CPSR
   10364:	e3c00080 	bic	r0, r0, #128	; 0x80
   10368:	e121f000 	msr	CPSR_c, r0
   1036c:	e59f0274 	ldr	r0, [pc, #628]	; 105e8 <vPortExitCritical+0x64>
   10370:	e5900000 	ldr	r0, [r0]
   10374:	e590e000 	ldr	lr, [r0]
   10378:	e59f026c 	ldr	r0, [pc, #620]	; 105ec <vPortExitCritical+0x68>
   1037c:	e8be0002 	ldm	lr!, {r1}
   10380:	e5801000 	str	r1, [r0]
   10384:	e8be0001 	ldm	lr!, {r0}
   10388:	e16ff000 	msr	SPSR_fsxc, r0
   1038c:	e8de7fff 	ldm	lr, {r0, r1, r2, r3, r4, r5, r6, r7, r8, r9, sl, fp, ip, sp, lr}^
   10390:	e320f000 	nop	{0}
   10394:	e59ee03c 	ldr	lr, [lr, #60]	; 0x3c
   10398:	e25ef004 	subs	pc, lr, #4
   1039c:	e320f000 	nop	{0}
   103a0:	e320f000 	nop	{0}
   103a4:	e59f3028 	ldr	r3, [pc, #40]	; 103d4 <vPortISRStartFirstTask+0x90>
   103a8:	e5933000 	ldr	r3, [r3]
   103ac:	e59f3024 	ldr	r3, [pc, #36]	; 103d8 <vPortISRStartFirstTask+0x94>
   103b0:	e5933000 	ldr	r3, [r3]
   103b4:	e8bd4000 	ldmfd	sp!, {lr}
   103b8:	e24ee004 	sub	lr, lr, #4
   103bc:	e12fff1e 	bx	lr
   103c0:	e320f000 	nop	{0}
   103c4:	e28bd000 	add	sp, fp, #0
   103c8:	e49db004 	pop	{fp}		; (ldr fp, [sp], #4)
   103cc:	e12fff1e 	bx	lr
   103d0:	00014758 	andeq	r4, r1, r8, asr r7
   103d4:	00014748 	andeq	r4, r1, r8, asr #14
   103d8:	000147dc 	ldrdeq	r4, [r1], -ip

000103dc <vPortYieldProcessor>:
   103dc:	e28ee004 	add	lr, lr, #4
   103e0:	e92d0001 	stmfd	sp!, {r0}
   103e4:	e94d2000 	stmdb	sp, {sp}^
   103e8:	e24dd004 	sub	sp, sp, #4
   103ec:	e8bd0001 	ldmfd	sp!, {r0}
   103f0:	e9204000 	stmdb	r0!, {lr}
   103f4:	e1a0e000 	mov	lr, r0
   103f8:	e8bd0001 	ldmfd	sp!, {r0}
   103fc:	e94e7fff 	stmdb	lr, {r0, r1, r2, r3, r4, r5, r6, r7, r8, r9, sl, fp, ip, sp, lr}^
   10400:	e320f000 	nop	{0}
   10404:	e24ee03c 	sub	lr, lr, #60	; 0x3c
   10408:	e14f0000 	mrs	r0, SPSR
   1040c:	e92e0001 	stmdb	lr!, {r0}
   10410:	e59f01d4 	ldr	r0, [pc, #468]	; 105ec <vPortExitCritical+0x68>
   10414:	e5900000 	ldr	r0, [r0]
   10418:	e92e0001 	stmdb	lr!, {r0}
   1041c:	e59f01c4 	ldr	r0, [pc, #452]	; 105e8 <vPortExitCritical+0x64>
   10420:	e5900000 	ldr	r0, [r0]
   10424:	e580e000 	str	lr, [r0]
   10428:	e59f3058 	ldr	r3, [pc, #88]	; 10488 <vPortYieldProcessor+0xac>
   1042c:	e5933000 	ldr	r3, [r3]
   10430:	e59f3054 	ldr	r3, [pc, #84]	; 1048c <vPortYieldProcessor+0xb0>
   10434:	e5933000 	ldr	r3, [r3]
   10438:	eb000a17 	bl	12c9c <vTaskSwitchContext>
   1043c:	e59f01a4 	ldr	r0, [pc, #420]	; 105e8 <vPortExitCritical+0x64>
   10440:	e5900000 	ldr	r0, [r0]
   10444:	e590e000 	ldr	lr, [r0]
   10448:	e59f019c 	ldr	r0, [pc, #412]	; 105ec <vPortExitCritical+0x68>
   1044c:	e8be0002 	ldm	lr!, {r1}
   10450:	e5801000 	str	r1, [r0]
   10454:	e8be0001 	ldm	lr!, {r0}
   10458:	e16ff000 	msr	SPSR_fsxc, r0
   1045c:	e8de7fff 	ldm	lr, {r0, r1, r2, r3, r4, r5, r6, r7, r8, r9, sl, fp, ip, sp, lr}^
   10460:	e320f000 	nop	{0}
   10464:	e59ee03c 	ldr	lr, [lr, #60]	; 0x3c
   10468:	e25ef004 	subs	pc, lr, #4
   1046c:	e320f000 	nop	{0}
   10470:	e320f000 	nop	{0}
   10474:	e59f300c 	ldr	r3, [pc, #12]	; 10488 <vPortYieldProcessor+0xac>
   10478:	e5933000 	ldr	r3, [r3]
   1047c:	e59f3008 	ldr	r3, [pc, #8]	; 1048c <vPortYieldProcessor+0xb0>
   10480:	e5933000 	ldr	r3, [r3]
   10484:	e320f000 	nop	{0}
   10488:	00014748 	andeq	r4, r1, r8, asr #14
   1048c:	000147dc 	ldrdeq	r4, [r1], -ip

00010490 <vFreeRTOS_ISR>:
   10490:	e92d0001 	stmfd	sp!, {r0}
   10494:	e94d2000 	stmdb	sp, {sp}^
   10498:	e24dd004 	sub	sp, sp, #4
   1049c:	e8bd0001 	ldmfd	sp!, {r0}
   104a0:	e9204000 	stmdb	r0!, {lr}
   104a4:	e1a0e000 	mov	lr, r0
   104a8:	e8bd0001 	ldmfd	sp!, {r0}
   104ac:	e94e7fff 	stmdb	lr, {r0, r1, r2, r3, r4, r5, r6, r7, r8, r9, sl, fp, ip, sp, lr}^
   104b0:	e320f000 	nop	{0}
   104b4:	e24ee03c 	sub	lr, lr, #60	; 0x3c
   104b8:	e14f0000 	mrs	r0, SPSR
   104bc:	e92e0001 	stmdb	lr!, {r0}
   104c0:	e59f0124 	ldr	r0, [pc, #292]	; 105ec <vPortExitCritical+0x68>
   104c4:	e5900000 	ldr	r0, [r0]
   104c8:	e92e0001 	stmdb	lr!, {r0}
   104cc:	e59f0114 	ldr	r0, [pc, #276]	; 105e8 <vPortExitCritical+0x64>
   104d0:	e5900000 	ldr	r0, [r0]
   104d4:	e580e000 	str	lr, [r0]
   104d8:	e59f3058 	ldr	r3, [pc, #88]	; 10538 <vFreeRTOS_ISR+0xa8>
   104dc:	e5933000 	ldr	r3, [r3]
   104e0:	e59f3054 	ldr	r3, [pc, #84]	; 1053c <vFreeRTOS_ISR+0xac>
   104e4:	e5933000 	ldr	r3, [r3]
   104e8:	eb000c21 	bl	13574 <irqHandler>
   104ec:	e59f00f4 	ldr	r0, [pc, #244]	; 105e8 <vPortExitCritical+0x64>
   104f0:	e5900000 	ldr	r0, [r0]
   104f4:	e590e000 	ldr	lr, [r0]
   104f8:	e59f00ec 	ldr	r0, [pc, #236]	; 105ec <vPortExitCritical+0x68>
   104fc:	e8be0002 	ldm	lr!, {r1}
   10500:	e5801000 	str	r1, [r0]
   10504:	e8be0001 	ldm	lr!, {r0}
   10508:	e16ff000 	msr	SPSR_fsxc, r0
   1050c:	e8de7fff 	ldm	lr, {r0, r1, r2, r3, r4, r5, r6, r7, r8, r9, sl, fp, ip, sp, lr}^
   10510:	e320f000 	nop	{0}
   10514:	e59ee03c 	ldr	lr, [lr, #60]	; 0x3c
   10518:	e25ef004 	subs	pc, lr, #4
   1051c:	e320f000 	nop	{0}
   10520:	e320f000 	nop	{0}
   10524:	e59f300c 	ldr	r3, [pc, #12]	; 10538 <vFreeRTOS_ISR+0xa8>
   10528:	e5933000 	ldr	r3, [r3]
   1052c:	e59f3008 	ldr	r3, [pc, #8]	; 1053c <vFreeRTOS_ISR+0xac>
   10530:	e5933000 	ldr	r3, [r3]
   10534:	e320f000 	nop	{0}
   10538:	00014748 	andeq	r4, r1, r8, asr #14
   1053c:	000147dc 	ldrdeq	r4, [r1], -ip

00010540 <vPortEnterCritical>:
   10540:	e52db004 	push	{fp}		; (str fp, [sp, #-4]!)
   10544:	e28db000 	add	fp, sp, #0
   10548:	e92d0001 	stmfd	sp!, {r0}
   1054c:	e10f0000 	mrs	r0, CPSR
   10550:	e38000c0 	orr	r0, r0, #192	; 0xc0
   10554:	e129f000 	msr	CPSR_fc, r0
   10558:	e8bd0001 	ldmfd	sp!, {r0}
   1055c:	e59f301c 	ldr	r3, [pc, #28]	; 10580 <vPortEnterCritical+0x40>
   10560:	e5933000 	ldr	r3, [r3]
   10564:	e2833001 	add	r3, r3, #1
   10568:	e59f2010 	ldr	r2, [pc, #16]	; 10580 <vPortEnterCritical+0x40>
   1056c:	e5823000 	str	r3, [r2]
   10570:	e320f000 	nop	{0}
   10574:	e28bd000 	add	sp, fp, #0
   10578:	e49db004 	pop	{fp}		; (ldr fp, [sp], #4)
   1057c:	e12fff1e 	bx	lr
   10580:	00014748 	andeq	r4, r1, r8, asr #14

00010584 <vPortExitCritical>:
   10584:	e52db004 	push	{fp}		; (str fp, [sp, #-4]!)
   10588:	e28db000 	add	fp, sp, #0
   1058c:	e59f3050 	ldr	r3, [pc, #80]	; 105e4 <vPortExitCritical+0x60>
   10590:	e5933000 	ldr	r3, [r3]
   10594:	e3530000 	cmp	r3, #0
   10598:	0a00000d 	beq	105d4 <vPortExitCritical+0x50>
   1059c:	e59f3040 	ldr	r3, [pc, #64]	; 105e4 <vPortExitCritical+0x60>
   105a0:	e5933000 	ldr	r3, [r3]
   105a4:	e2433001 	sub	r3, r3, #1
   105a8:	e59f2034 	ldr	r2, [pc, #52]	; 105e4 <vPortExitCritical+0x60>
   105ac:	e5823000 	str	r3, [r2]
   105b0:	e59f302c 	ldr	r3, [pc, #44]	; 105e4 <vPortExitCritical+0x60>
   105b4:	e5933000 	ldr	r3, [r3]
   105b8:	e3530000 	cmp	r3, #0
   105bc:	1a000004 	bne	105d4 <vPortExitCritical+0x50>
   105c0:	e92d0001 	stmfd	sp!, {r0}
   105c4:	e10f0000 	mrs	r0, CPSR
   105c8:	e3c000c0 	bic	r0, r0, #192	; 0xc0
   105cc:	e129f000 	msr	CPSR_fc, r0
   105d0:	e8bd0001 	ldmfd	sp!, {r0}
   105d4:	e320f000 	nop	{0}
   105d8:	e28bd000 	add	sp, fp, #0
   105dc:	e49db004 	pop	{fp}		; (ldr fp, [sp], #4)
   105e0:	e12fff1e 	bx	lr
   105e4:	00014748 	andeq	r4, r1, r8, asr #14
   105e8:	000147dc 	ldrdeq	r4, [r1], -ip
   105ec:	00014748 	andeq	r4, r1, r8, asr #14

000105f0 <xCoRoutineCreate>:
   105f0:	e92d4800 	push	{fp, lr}
   105f4:	e28db004 	add	fp, sp, #4
   105f8:	e24dd018 	sub	sp, sp, #24
   105fc:	e50b0010 	str	r0, [fp, #-16]
   10600:	e50b1014 	str	r1, [fp, #-20]	; 0xffffffec
   10604:	e50b2018 	str	r2, [fp, #-24]	; 0xffffffe8
   10608:	e3a00038 	mov	r0, #56	; 0x38
   1060c:	eb000e0a 	bl	13e3c <pvPortMalloc>
   10610:	e50b000c 	str	r0, [fp, #-12]
   10614:	e51b300c 	ldr	r3, [fp, #-12]
   10618:	e3530000 	cmp	r3, #0
   1061c:	0a000044 	beq	10734 <xCoRoutineCreate+0x144>
   10620:	e59f3124 	ldr	r3, [pc, #292]	; 1074c <xCoRoutineCreate+0x15c>
   10624:	e5933000 	ldr	r3, [r3]
   10628:	e3530000 	cmp	r3, #0
   1062c:	1a000003 	bne	10640 <xCoRoutineCreate+0x50>
   10630:	e59f2114 	ldr	r2, [pc, #276]	; 1074c <xCoRoutineCreate+0x15c>
   10634:	e51b300c 	ldr	r3, [fp, #-12]
   10638:	e5823000 	str	r3, [r2]
   1063c:	eb000177 	bl	10c20 <prvInitialiseCoRoutineLists>
   10640:	e51b3014 	ldr	r3, [fp, #-20]	; 0xffffffec
   10644:	e3530001 	cmp	r3, #1
   10648:	9a000001 	bls	10654 <xCoRoutineCreate+0x64>
   1064c:	e3a03001 	mov	r3, #1
   10650:	e50b3014 	str	r3, [fp, #-20]	; 0xffffffec
   10654:	e51b300c 	ldr	r3, [fp, #-12]
   10658:	e3a02000 	mov	r2, #0
   1065c:	e1c323b4 	strh	r2, [r3, #52]	; 0x34
   10660:	e51b300c 	ldr	r3, [fp, #-12]
   10664:	e51b2014 	ldr	r2, [fp, #-20]	; 0xffffffec
   10668:	e583202c 	str	r2, [r3, #44]	; 0x2c
   1066c:	e51b300c 	ldr	r3, [fp, #-12]
   10670:	e51b2018 	ldr	r2, [fp, #-24]	; 0xffffffe8
   10674:	e5832030 	str	r2, [r3, #48]	; 0x30
   10678:	e51b300c 	ldr	r3, [fp, #-12]
   1067c:	e51b2010 	ldr	r2, [fp, #-16]
   10680:	e5832000 	str	r2, [r3]
   10684:	e51b300c 	ldr	r3, [fp, #-12]
   10688:	e2833004 	add	r3, r3, #4
   1068c:	e1a00003 	mov	r0, r3
   10690:	eb0001c9 	bl	10dbc <vListInitialiseItem>
   10694:	e51b300c 	ldr	r3, [fp, #-12]
   10698:	e2833018 	add	r3, r3, #24
   1069c:	e1a00003 	mov	r0, r3
   106a0:	eb0001c5 	bl	10dbc <vListInitialiseItem>
   106a4:	e51b300c 	ldr	r3, [fp, #-12]
   106a8:	e51b200c 	ldr	r2, [fp, #-12]
   106ac:	e5832010 	str	r2, [r3, #16]
   106b0:	e51b300c 	ldr	r3, [fp, #-12]
   106b4:	e51b200c 	ldr	r2, [fp, #-12]
   106b8:	e5832024 	str	r2, [r3, #36]	; 0x24
   106bc:	e51b3014 	ldr	r3, [fp, #-20]	; 0xffffffec
   106c0:	e2632005 	rsb	r2, r3, #5
   106c4:	e51b300c 	ldr	r3, [fp, #-12]
   106c8:	e5832018 	str	r2, [r3, #24]
   106cc:	e51b300c 	ldr	r3, [fp, #-12]
   106d0:	e593202c 	ldr	r2, [r3, #44]	; 0x2c
   106d4:	e59f3074 	ldr	r3, [pc, #116]	; 10750 <xCoRoutineCreate+0x160>
   106d8:	e5933000 	ldr	r3, [r3]
   106dc:	e1520003 	cmp	r2, r3
   106e0:	9a000003 	bls	106f4 <xCoRoutineCreate+0x104>
   106e4:	e51b300c 	ldr	r3, [fp, #-12]
   106e8:	e593302c 	ldr	r3, [r3, #44]	; 0x2c
   106ec:	e59f205c 	ldr	r2, [pc, #92]	; 10750 <xCoRoutineCreate+0x160>
   106f0:	e5823000 	str	r3, [r2]
   106f4:	e51b300c 	ldr	r3, [fp, #-12]
   106f8:	e593202c 	ldr	r2, [r3, #44]	; 0x2c
   106fc:	e1a03002 	mov	r3, r2
   10700:	e1a03103 	lsl	r3, r3, #2
   10704:	e0833002 	add	r3, r3, r2
   10708:	e1a03103 	lsl	r3, r3, #2
   1070c:	e59f2040 	ldr	r2, [pc, #64]	; 10754 <xCoRoutineCreate+0x164>
   10710:	e0832002 	add	r2, r3, r2
   10714:	e51b300c 	ldr	r3, [fp, #-12]
   10718:	e2833004 	add	r3, r3, #4
   1071c:	e1a01003 	mov	r1, r3
   10720:	e1a00002 	mov	r0, r2
   10724:	eb0001af 	bl	10de8 <vListInsertEnd>
   10728:	e3a03001 	mov	r3, #1
   1072c:	e50b3008 	str	r3, [fp, #-8]
   10730:	ea000001 	b	1073c <xCoRoutineCreate+0x14c>
   10734:	e3e03000 	mvn	r3, #0
   10738:	e50b3008 	str	r3, [fp, #-8]
   1073c:	e51b3008 	ldr	r3, [fp, #-8]
   10740:	e1a00003 	mov	r0, r3
   10744:	e24bd004 	sub	sp, fp, #4
   10748:	e8bd8800 	pop	{fp, pc}
   1074c:	000147c8 	andeq	r4, r1, r8, asr #15
   10750:	000147cc 	andeq	r4, r1, ip, asr #15
   10754:	0001475c 	andeq	r4, r1, ip, asr r7

00010758 <vCoRoutineAddToDelayedList>:
   10758:	e92d4800 	push	{fp, lr}
   1075c:	e28db004 	add	fp, sp, #4
   10760:	e24dd010 	sub	sp, sp, #16
   10764:	e50b0010 	str	r0, [fp, #-16]
   10768:	e50b1014 	str	r1, [fp, #-20]	; 0xffffffec
   1076c:	e59f30b8 	ldr	r3, [pc, #184]	; 1082c <vCoRoutineAddToDelayedList+0xd4>
   10770:	e5933000 	ldr	r3, [r3]
   10774:	e51b2010 	ldr	r2, [fp, #-16]
   10778:	e0823003 	add	r3, r2, r3
   1077c:	e50b3008 	str	r3, [fp, #-8]
   10780:	e59f30a8 	ldr	r3, [pc, #168]	; 10830 <vCoRoutineAddToDelayedList+0xd8>
   10784:	e5933000 	ldr	r3, [r3]
   10788:	e2833004 	add	r3, r3, #4
   1078c:	e1a00003 	mov	r0, r3
   10790:	eb0001f0 	bl	10f58 <vListRemove>
   10794:	e59f3094 	ldr	r3, [pc, #148]	; 10830 <vCoRoutineAddToDelayedList+0xd8>
   10798:	e5933000 	ldr	r3, [r3]
   1079c:	e51b2008 	ldr	r2, [fp, #-8]
   107a0:	e5832004 	str	r2, [r3, #4]
   107a4:	e59f3080 	ldr	r3, [pc, #128]	; 1082c <vCoRoutineAddToDelayedList+0xd4>
   107a8:	e5933000 	ldr	r3, [r3]
   107ac:	e51b2008 	ldr	r2, [fp, #-8]
   107b0:	e1520003 	cmp	r2, r3
   107b4:	2a000008 	bcs	107dc <vCoRoutineAddToDelayedList+0x84>
   107b8:	e59f3074 	ldr	r3, [pc, #116]	; 10834 <vCoRoutineAddToDelayedList+0xdc>
   107bc:	e5932000 	ldr	r2, [r3]
   107c0:	e59f3068 	ldr	r3, [pc, #104]	; 10830 <vCoRoutineAddToDelayedList+0xd8>
   107c4:	e5933000 	ldr	r3, [r3]
   107c8:	e2833004 	add	r3, r3, #4
   107cc:	e1a01003 	mov	r1, r3
   107d0:	e1a00002 	mov	r0, r2
   107d4:	eb0001a9 	bl	10e80 <vListInsert>
   107d8:	ea000007 	b	107fc <vCoRoutineAddToDelayedList+0xa4>
   107dc:	e59f3054 	ldr	r3, [pc, #84]	; 10838 <vCoRoutineAddToDelayedList+0xe0>
   107e0:	e5932000 	ldr	r2, [r3]
   107e4:	e59f3044 	ldr	r3, [pc, #68]	; 10830 <vCoRoutineAddToDelayedList+0xd8>
   107e8:	e5933000 	ldr	r3, [r3]
   107ec:	e2833004 	add	r3, r3, #4
   107f0:	e1a01003 	mov	r1, r3
   107f4:	e1a00002 	mov	r0, r2
   107f8:	eb0001a0 	bl	10e80 <vListInsert>
   107fc:	e51b3014 	ldr	r3, [fp, #-20]	; 0xffffffec
   10800:	e3530000 	cmp	r3, #0
   10804:	0a000005 	beq	10820 <vCoRoutineAddToDelayedList+0xc8>
   10808:	e59f3020 	ldr	r3, [pc, #32]	; 10830 <vCoRoutineAddToDelayedList+0xd8>
   1080c:	e5933000 	ldr	r3, [r3]
   10810:	e2833018 	add	r3, r3, #24
   10814:	e1a01003 	mov	r1, r3
   10818:	e51b0014 	ldr	r0, [fp, #-20]	; 0xffffffec
   1081c:	eb000197 	bl	10e80 <vListInsert>
   10820:	e320f000 	nop	{0}
   10824:	e24bd004 	sub	sp, fp, #4
   10828:	e8bd8800 	pop	{fp, pc}
   1082c:	000147d0 	ldrdeq	r4, [r1], -r0
   10830:	000147c8 	andeq	r4, r1, r8, asr #15
   10834:	000147b0 			; <UNDEFINED> instruction: 0x000147b0
   10838:	000147ac 	andeq	r4, r1, ip, lsr #15

0001083c <prvCheckPendingReadyList>:
   1083c:	e92d4800 	push	{fp, lr}
   10840:	e28db004 	add	fp, sp, #4
   10844:	e24dd008 	sub	sp, sp, #8
   10848:	ea00002c 	b	10900 <prvCheckPendingReadyList+0xc4>
   1084c:	e92d0001 	stmfd	sp!, {r0}
   10850:	e10f0000 	mrs	r0, CPSR
   10854:	e38000c0 	orr	r0, r0, #192	; 0xc0
   10858:	e129f000 	msr	CPSR_fc, r0
   1085c:	e8bd0001 	ldmfd	sp!, {r0}
   10860:	e59f30b4 	ldr	r3, [pc, #180]	; 1091c <prvCheckPendingReadyList+0xe0>
   10864:	e593300c 	ldr	r3, [r3, #12]
   10868:	e593300c 	ldr	r3, [r3, #12]
   1086c:	e50b3008 	str	r3, [fp, #-8]
   10870:	e51b3008 	ldr	r3, [fp, #-8]
   10874:	e2833018 	add	r3, r3, #24
   10878:	e1a00003 	mov	r0, r3
   1087c:	eb0001b5 	bl	10f58 <vListRemove>
   10880:	e92d0001 	stmfd	sp!, {r0}
   10884:	e10f0000 	mrs	r0, CPSR
   10888:	e3c000c0 	bic	r0, r0, #192	; 0xc0
   1088c:	e129f000 	msr	CPSR_fc, r0
   10890:	e8bd0001 	ldmfd	sp!, {r0}
   10894:	e51b3008 	ldr	r3, [fp, #-8]
   10898:	e2833004 	add	r3, r3, #4
   1089c:	e1a00003 	mov	r0, r3
   108a0:	eb0001ac 	bl	10f58 <vListRemove>
   108a4:	e51b3008 	ldr	r3, [fp, #-8]
   108a8:	e593202c 	ldr	r2, [r3, #44]	; 0x2c
   108ac:	e59f306c 	ldr	r3, [pc, #108]	; 10920 <prvCheckPendingReadyList+0xe4>
   108b0:	e5933000 	ldr	r3, [r3]
   108b4:	e1520003 	cmp	r2, r3
   108b8:	9a000003 	bls	108cc <prvCheckPendingReadyList+0x90>
   108bc:	e51b3008 	ldr	r3, [fp, #-8]
   108c0:	e593302c 	ldr	r3, [r3, #44]	; 0x2c
   108c4:	e59f2054 	ldr	r2, [pc, #84]	; 10920 <prvCheckPendingReadyList+0xe4>
   108c8:	e5823000 	str	r3, [r2]
   108cc:	e51b3008 	ldr	r3, [fp, #-8]
   108d0:	e593202c 	ldr	r2, [r3, #44]	; 0x2c
   108d4:	e1a03002 	mov	r3, r2
   108d8:	e1a03103 	lsl	r3, r3, #2
   108dc:	e0833002 	add	r3, r3, r2
   108e0:	e1a03103 	lsl	r3, r3, #2
   108e4:	e59f2038 	ldr	r2, [pc, #56]	; 10924 <prvCheckPendingReadyList+0xe8>
   108e8:	e0832002 	add	r2, r3, r2
   108ec:	e51b3008 	ldr	r3, [fp, #-8]
   108f0:	e2833004 	add	r3, r3, #4
   108f4:	e1a01003 	mov	r1, r3
   108f8:	e1a00002 	mov	r0, r2
   108fc:	eb000139 	bl	10de8 <vListInsertEnd>
   10900:	e59f3014 	ldr	r3, [pc, #20]	; 1091c <prvCheckPendingReadyList+0xe0>
   10904:	e5933000 	ldr	r3, [r3]
   10908:	e3530000 	cmp	r3, #0
   1090c:	1affffce 	bne	1084c <prvCheckPendingReadyList+0x10>
   10910:	e320f000 	nop	{0}
   10914:	e24bd004 	sub	sp, fp, #4
   10918:	e8bd8800 	pop	{fp, pc}
   1091c:	000147b4 			; <UNDEFINED> instruction: 0x000147b4
   10920:	000147cc 	andeq	r4, r1, ip, asr #15
   10924:	0001475c 	andeq	r4, r1, ip, asr r7

00010928 <prvCheckDelayedList>:
   10928:	e92d4800 	push	{fp, lr}
   1092c:	e28db004 	add	fp, sp, #4
   10930:	e24dd008 	sub	sp, sp, #8
   10934:	eb0007e0 	bl	128bc <xTaskGetTickCount>
   10938:	e1a02000 	mov	r2, r0
   1093c:	e59f3198 	ldr	r3, [pc, #408]	; 10adc <prvCheckDelayedList+0x1b4>
   10940:	e5933000 	ldr	r3, [r3]
   10944:	e0423003 	sub	r3, r2, r3
   10948:	e59f2190 	ldr	r2, [pc, #400]	; 10ae0 <prvCheckDelayedList+0x1b8>
   1094c:	e5823000 	str	r3, [r2]
   10950:	ea000056 	b	10ab0 <prvCheckDelayedList+0x188>
   10954:	e59f3188 	ldr	r3, [pc, #392]	; 10ae4 <prvCheckDelayedList+0x1bc>
   10958:	e5933000 	ldr	r3, [r3]
   1095c:	e2833001 	add	r3, r3, #1
   10960:	e59f217c 	ldr	r2, [pc, #380]	; 10ae4 <prvCheckDelayedList+0x1bc>
   10964:	e5823000 	str	r3, [r2]
   10968:	e59f3170 	ldr	r3, [pc, #368]	; 10ae0 <prvCheckDelayedList+0x1b8>
   1096c:	e5933000 	ldr	r3, [r3]
   10970:	e2433001 	sub	r3, r3, #1
   10974:	e59f2164 	ldr	r2, [pc, #356]	; 10ae0 <prvCheckDelayedList+0x1b8>
   10978:	e5823000 	str	r3, [r2]
   1097c:	e59f3160 	ldr	r3, [pc, #352]	; 10ae4 <prvCheckDelayedList+0x1bc>
   10980:	e5933000 	ldr	r3, [r3]
   10984:	e3530000 	cmp	r3, #0
   10988:	1a000043 	bne	10a9c <prvCheckDelayedList+0x174>
   1098c:	e59f3154 	ldr	r3, [pc, #340]	; 10ae8 <prvCheckDelayedList+0x1c0>
   10990:	e5933000 	ldr	r3, [r3]
   10994:	e50b3008 	str	r3, [fp, #-8]
   10998:	e59f314c 	ldr	r3, [pc, #332]	; 10aec <prvCheckDelayedList+0x1c4>
   1099c:	e5933000 	ldr	r3, [r3]
   109a0:	e59f2140 	ldr	r2, [pc, #320]	; 10ae8 <prvCheckDelayedList+0x1c0>
   109a4:	e5823000 	str	r3, [r2]
   109a8:	e59f213c 	ldr	r2, [pc, #316]	; 10aec <prvCheckDelayedList+0x1c4>
   109ac:	e51b3008 	ldr	r3, [fp, #-8]
   109b0:	e5823000 	str	r3, [r2]
   109b4:	ea000038 	b	10a9c <prvCheckDelayedList+0x174>
   109b8:	e59f3128 	ldr	r3, [pc, #296]	; 10ae8 <prvCheckDelayedList+0x1c0>
   109bc:	e5933000 	ldr	r3, [r3]
   109c0:	e593300c 	ldr	r3, [r3, #12]
   109c4:	e593300c 	ldr	r3, [r3, #12]
   109c8:	e50b300c 	str	r3, [fp, #-12]
   109cc:	e51b300c 	ldr	r3, [fp, #-12]
   109d0:	e5932004 	ldr	r2, [r3, #4]
   109d4:	e59f3108 	ldr	r3, [pc, #264]	; 10ae4 <prvCheckDelayedList+0x1bc>
   109d8:	e5933000 	ldr	r3, [r3]
   109dc:	e1520003 	cmp	r2, r3
   109e0:	9a000000 	bls	109e8 <prvCheckDelayedList+0xc0>
   109e4:	ea000031 	b	10ab0 <prvCheckDelayedList+0x188>
   109e8:	e92d0001 	stmfd	sp!, {r0}
   109ec:	e10f0000 	mrs	r0, CPSR
   109f0:	e38000c0 	orr	r0, r0, #192	; 0xc0
   109f4:	e129f000 	msr	CPSR_fc, r0
   109f8:	e8bd0001 	ldmfd	sp!, {r0}
   109fc:	e51b300c 	ldr	r3, [fp, #-12]
   10a00:	e2833004 	add	r3, r3, #4
   10a04:	e1a00003 	mov	r0, r3
   10a08:	eb000152 	bl	10f58 <vListRemove>
   10a0c:	e51b300c 	ldr	r3, [fp, #-12]
   10a10:	e5933028 	ldr	r3, [r3, #40]	; 0x28
   10a14:	e3530000 	cmp	r3, #0
   10a18:	0a000003 	beq	10a2c <prvCheckDelayedList+0x104>
   10a1c:	e51b300c 	ldr	r3, [fp, #-12]
   10a20:	e2833018 	add	r3, r3, #24
   10a24:	e1a00003 	mov	r0, r3
   10a28:	eb00014a 	bl	10f58 <vListRemove>
   10a2c:	e92d0001 	stmfd	sp!, {r0}
   10a30:	e10f0000 	mrs	r0, CPSR
   10a34:	e3c000c0 	bic	r0, r0, #192	; 0xc0
   10a38:	e129f000 	msr	CPSR_fc, r0
   10a3c:	e8bd0001 	ldmfd	sp!, {r0}
   10a40:	e51b300c 	ldr	r3, [fp, #-12]
   10a44:	e593202c 	ldr	r2, [r3, #44]	; 0x2c
   10a48:	e59f30a0 	ldr	r3, [pc, #160]	; 10af0 <prvCheckDelayedList+0x1c8>
   10a4c:	e5933000 	ldr	r3, [r3]
   10a50:	e1520003 	cmp	r2, r3
   10a54:	9a000003 	bls	10a68 <prvCheckDelayedList+0x140>
   10a58:	e51b300c 	ldr	r3, [fp, #-12]
   10a5c:	e593302c 	ldr	r3, [r3, #44]	; 0x2c
   10a60:	e59f2088 	ldr	r2, [pc, #136]	; 10af0 <prvCheckDelayedList+0x1c8>
   10a64:	e5823000 	str	r3, [r2]
   10a68:	e51b300c 	ldr	r3, [fp, #-12]
   10a6c:	e593202c 	ldr	r2, [r3, #44]	; 0x2c
   10a70:	e1a03002 	mov	r3, r2
   10a74:	e1a03103 	lsl	r3, r3, #2
   10a78:	e0833002 	add	r3, r3, r2
   10a7c:	e1a03103 	lsl	r3, r3, #2
   10a80:	e59f206c 	ldr	r2, [pc, #108]	; 10af4 <prvCheckDelayedList+0x1cc>
   10a84:	e0832002 	add	r2, r3, r2
   10a88:	e51b300c 	ldr	r3, [fp, #-12]
   10a8c:	e2833004 	add	r3, r3, #4
   10a90:	e1a01003 	mov	r1, r3
   10a94:	e1a00002 	mov	r0, r2
   10a98:	eb0000d2 	bl	10de8 <vListInsertEnd>
   10a9c:	e59f3044 	ldr	r3, [pc, #68]	; 10ae8 <prvCheckDelayedList+0x1c0>
   10aa0:	e5933000 	ldr	r3, [r3]
   10aa4:	e5933000 	ldr	r3, [r3]
   10aa8:	e3530000 	cmp	r3, #0
   10aac:	1affffc1 	bne	109b8 <prvCheckDelayedList+0x90>
   10ab0:	e59f3028 	ldr	r3, [pc, #40]	; 10ae0 <prvCheckDelayedList+0x1b8>
   10ab4:	e5933000 	ldr	r3, [r3]
   10ab8:	e3530000 	cmp	r3, #0
   10abc:	1affffa4 	bne	10954 <prvCheckDelayedList+0x2c>
   10ac0:	e59f301c 	ldr	r3, [pc, #28]	; 10ae4 <prvCheckDelayedList+0x1bc>
   10ac4:	e5933000 	ldr	r3, [r3]
   10ac8:	e59f200c 	ldr	r2, [pc, #12]	; 10adc <prvCheckDelayedList+0x1b4>
   10acc:	e5823000 	str	r3, [r2]
   10ad0:	e320f000 	nop	{0}
   10ad4:	e24bd004 	sub	sp, fp, #4
   10ad8:	e8bd8800 	pop	{fp, pc}
   10adc:	000147d4 	ldrdeq	r4, [r1], -r4	; <UNPREDICTABLE>
   10ae0:	000147d8 	ldrdeq	r4, [r1], -r8
   10ae4:	000147d0 	ldrdeq	r4, [r1], -r0
   10ae8:	000147ac 	andeq	r4, r1, ip, lsr #15
   10aec:	000147b0 			; <UNDEFINED> instruction: 0x000147b0
   10af0:	000147cc 	andeq	r4, r1, ip, asr #15
   10af4:	0001475c 	andeq	r4, r1, ip, asr r7

00010af8 <vCoRoutineSchedule>:
   10af8:	e92d4800 	push	{fp, lr}
   10afc:	e28db004 	add	fp, sp, #4
   10b00:	e24dd008 	sub	sp, sp, #8
   10b04:	ebffff4c 	bl	1083c <prvCheckPendingReadyList>
   10b08:	ebffff86 	bl	10928 <prvCheckDelayedList>
   10b0c:	ea000008 	b	10b34 <vCoRoutineSchedule+0x3c>
   10b10:	e59f30fc 	ldr	r3, [pc, #252]	; 10c14 <vCoRoutineSchedule+0x11c>
   10b14:	e5933000 	ldr	r3, [r3]
   10b18:	e3530000 	cmp	r3, #0
   10b1c:	0a000039 	beq	10c08 <vCoRoutineSchedule+0x110>
   10b20:	e59f30ec 	ldr	r3, [pc, #236]	; 10c14 <vCoRoutineSchedule+0x11c>
   10b24:	e5933000 	ldr	r3, [r3]
   10b28:	e2433001 	sub	r3, r3, #1
   10b2c:	e59f20e0 	ldr	r2, [pc, #224]	; 10c14 <vCoRoutineSchedule+0x11c>
   10b30:	e5823000 	str	r3, [r2]
   10b34:	e59f30d8 	ldr	r3, [pc, #216]	; 10c14 <vCoRoutineSchedule+0x11c>
   10b38:	e5932000 	ldr	r2, [r3]
   10b3c:	e59f10d4 	ldr	r1, [pc, #212]	; 10c18 <vCoRoutineSchedule+0x120>
   10b40:	e1a03002 	mov	r3, r2
   10b44:	e1a03103 	lsl	r3, r3, #2
   10b48:	e0833002 	add	r3, r3, r2
   10b4c:	e1a03103 	lsl	r3, r3, #2
   10b50:	e0813003 	add	r3, r1, r3
   10b54:	e5933000 	ldr	r3, [r3]
   10b58:	e3530000 	cmp	r3, #0
   10b5c:	0affffeb 	beq	10b10 <vCoRoutineSchedule+0x18>
   10b60:	e59f30ac 	ldr	r3, [pc, #172]	; 10c14 <vCoRoutineSchedule+0x11c>
   10b64:	e5932000 	ldr	r2, [r3]
   10b68:	e1a03002 	mov	r3, r2
   10b6c:	e1a03103 	lsl	r3, r3, #2
   10b70:	e0833002 	add	r3, r3, r2
   10b74:	e1a03103 	lsl	r3, r3, #2
   10b78:	e59f2098 	ldr	r2, [pc, #152]	; 10c18 <vCoRoutineSchedule+0x120>
   10b7c:	e0833002 	add	r3, r3, r2
   10b80:	e50b3008 	str	r3, [fp, #-8]
   10b84:	e51b3008 	ldr	r3, [fp, #-8]
   10b88:	e5933004 	ldr	r3, [r3, #4]
   10b8c:	e5932004 	ldr	r2, [r3, #4]
   10b90:	e51b3008 	ldr	r3, [fp, #-8]
   10b94:	e5832004 	str	r2, [r3, #4]
   10b98:	e51b3008 	ldr	r3, [fp, #-8]
   10b9c:	e5932004 	ldr	r2, [r3, #4]
   10ba0:	e51b3008 	ldr	r3, [fp, #-8]
   10ba4:	e2833008 	add	r3, r3, #8
   10ba8:	e1520003 	cmp	r2, r3
   10bac:	1a000004 	bne	10bc4 <vCoRoutineSchedule+0xcc>
   10bb0:	e51b3008 	ldr	r3, [fp, #-8]
   10bb4:	e5933004 	ldr	r3, [r3, #4]
   10bb8:	e5932004 	ldr	r2, [r3, #4]
   10bbc:	e51b3008 	ldr	r3, [fp, #-8]
   10bc0:	e5832004 	str	r2, [r3, #4]
   10bc4:	e51b3008 	ldr	r3, [fp, #-8]
   10bc8:	e5933004 	ldr	r3, [r3, #4]
   10bcc:	e593300c 	ldr	r3, [r3, #12]
   10bd0:	e59f2044 	ldr	r2, [pc, #68]	; 10c1c <vCoRoutineSchedule+0x124>
   10bd4:	e5823000 	str	r3, [r2]
   10bd8:	e59f303c 	ldr	r3, [pc, #60]	; 10c1c <vCoRoutineSchedule+0x124>
   10bdc:	e5933000 	ldr	r3, [r3]
   10be0:	e5933000 	ldr	r3, [r3]
   10be4:	e59f2030 	ldr	r2, [pc, #48]	; 10c1c <vCoRoutineSchedule+0x124>
   10be8:	e5920000 	ldr	r0, [r2]
   10bec:	e59f2028 	ldr	r2, [pc, #40]	; 10c1c <vCoRoutineSchedule+0x124>
   10bf0:	e5922000 	ldr	r2, [r2]
   10bf4:	e5922030 	ldr	r2, [r2, #48]	; 0x30
   10bf8:	e1a01002 	mov	r1, r2
   10bfc:	e12fff33 	blx	r3
   10c00:	e320f000 	nop	{0}
   10c04:	ea000000 	b	10c0c <vCoRoutineSchedule+0x114>
   10c08:	e320f000 	nop	{0}
   10c0c:	e24bd004 	sub	sp, fp, #4
   10c10:	e8bd8800 	pop	{fp, pc}
   10c14:	000147cc 	andeq	r4, r1, ip, asr #15
   10c18:	0001475c 	andeq	r4, r1, ip, asr r7
   10c1c:	000147c8 	andeq	r4, r1, r8, asr #15

00010c20 <prvInitialiseCoRoutineLists>:
   10c20:	e92d4800 	push	{fp, lr}
   10c24:	e28db004 	add	fp, sp, #4
   10c28:	e24dd008 	sub	sp, sp, #8
   10c2c:	e3a03000 	mov	r3, #0
   10c30:	e50b3008 	str	r3, [fp, #-8]
   10c34:	ea00000b 	b	10c68 <prvInitialiseCoRoutineLists+0x48>
   10c38:	e51b2008 	ldr	r2, [fp, #-8]
   10c3c:	e1a03002 	mov	r3, r2
   10c40:	e1a03103 	lsl	r3, r3, #2
   10c44:	e0833002 	add	r3, r3, r2
   10c48:	e1a03103 	lsl	r3, r3, #2
   10c4c:	e59f205c 	ldr	r2, [pc, #92]	; 10cb0 <prvInitialiseCoRoutineLists+0x90>
   10c50:	e0833002 	add	r3, r3, r2
   10c54:	e1a00003 	mov	r0, r3
   10c58:	eb00003d 	bl	10d54 <vListInitialise>
   10c5c:	e51b3008 	ldr	r3, [fp, #-8]
   10c60:	e2833001 	add	r3, r3, #1
   10c64:	e50b3008 	str	r3, [fp, #-8]
   10c68:	e51b3008 	ldr	r3, [fp, #-8]
   10c6c:	e3530001 	cmp	r3, #1
   10c70:	9afffff0 	bls	10c38 <prvInitialiseCoRoutineLists+0x18>
   10c74:	e59f0038 	ldr	r0, [pc, #56]	; 10cb4 <prvInitialiseCoRoutineLists+0x94>
   10c78:	eb000035 	bl	10d54 <vListInitialise>
   10c7c:	e59f0034 	ldr	r0, [pc, #52]	; 10cb8 <prvInitialiseCoRoutineLists+0x98>
   10c80:	eb000033 	bl	10d54 <vListInitialise>
   10c84:	e59f0030 	ldr	r0, [pc, #48]	; 10cbc <prvInitialiseCoRoutineLists+0x9c>
   10c88:	eb000031 	bl	10d54 <vListInitialise>
   10c8c:	e59f302c 	ldr	r3, [pc, #44]	; 10cc0 <prvInitialiseCoRoutineLists+0xa0>
   10c90:	e59f201c 	ldr	r2, [pc, #28]	; 10cb4 <prvInitialiseCoRoutineLists+0x94>
   10c94:	e5832000 	str	r2, [r3]
   10c98:	e59f3024 	ldr	r3, [pc, #36]	; 10cc4 <prvInitialiseCoRoutineLists+0xa4>
   10c9c:	e59f2014 	ldr	r2, [pc, #20]	; 10cb8 <prvInitialiseCoRoutineLists+0x98>
   10ca0:	e5832000 	str	r2, [r3]
   10ca4:	e320f000 	nop	{0}
   10ca8:	e24bd004 	sub	sp, fp, #4
   10cac:	e8bd8800 	pop	{fp, pc}
   10cb0:	0001475c 	andeq	r4, r1, ip, asr r7
   10cb4:	00014784 	andeq	r4, r1, r4, lsl #15
   10cb8:	00014798 	muleq	r1, r8, r7
   10cbc:	000147b4 			; <UNDEFINED> instruction: 0x000147b4
   10cc0:	000147ac 	andeq	r4, r1, ip, lsr #15
   10cc4:	000147b0 			; <UNDEFINED> instruction: 0x000147b0

00010cc8 <xCoRoutineRemoveFromEventList>:
   10cc8:	e92d4800 	push	{fp, lr}
   10ccc:	e28db004 	add	fp, sp, #4
   10cd0:	e24dd010 	sub	sp, sp, #16
   10cd4:	e50b0010 	str	r0, [fp, #-16]
   10cd8:	e51b3010 	ldr	r3, [fp, #-16]
   10cdc:	e593300c 	ldr	r3, [r3, #12]
   10ce0:	e593300c 	ldr	r3, [r3, #12]
   10ce4:	e50b300c 	str	r3, [fp, #-12]
   10ce8:	e51b300c 	ldr	r3, [fp, #-12]
   10cec:	e2833018 	add	r3, r3, #24
   10cf0:	e1a00003 	mov	r0, r3
   10cf4:	eb000097 	bl	10f58 <vListRemove>
   10cf8:	e51b300c 	ldr	r3, [fp, #-12]
   10cfc:	e2833018 	add	r3, r3, #24
   10d00:	e1a01003 	mov	r1, r3
   10d04:	e59f0040 	ldr	r0, [pc, #64]	; 10d4c <xCoRoutineRemoveFromEventList+0x84>
   10d08:	eb000036 	bl	10de8 <vListInsertEnd>
   10d0c:	e51b300c 	ldr	r3, [fp, #-12]
   10d10:	e593202c 	ldr	r2, [r3, #44]	; 0x2c
   10d14:	e59f3034 	ldr	r3, [pc, #52]	; 10d50 <xCoRoutineRemoveFromEventList+0x88>
   10d18:	e5933000 	ldr	r3, [r3]
   10d1c:	e593302c 	ldr	r3, [r3, #44]	; 0x2c
   10d20:	e1520003 	cmp	r2, r3
   10d24:	3a000002 	bcc	10d34 <xCoRoutineRemoveFromEventList+0x6c>
   10d28:	e3a03001 	mov	r3, #1
   10d2c:	e50b3008 	str	r3, [fp, #-8]
   10d30:	ea000001 	b	10d3c <xCoRoutineRemoveFromEventList+0x74>
   10d34:	e3a03000 	mov	r3, #0
   10d38:	e50b3008 	str	r3, [fp, #-8]
   10d3c:	e51b3008 	ldr	r3, [fp, #-8]
   10d40:	e1a00003 	mov	r0, r3
   10d44:	e24bd004 	sub	sp, fp, #4
   10d48:	e8bd8800 	pop	{fp, pc}
   10d4c:	000147b4 			; <UNDEFINED> instruction: 0x000147b4
   10d50:	000147c8 	andeq	r4, r1, r8, asr #15

00010d54 <vListInitialise>:
   10d54:	e52db004 	push	{fp}		; (str fp, [sp, #-4]!)
   10d58:	e28db000 	add	fp, sp, #0
   10d5c:	e24dd00c 	sub	sp, sp, #12
   10d60:	e50b0008 	str	r0, [fp, #-8]
   10d64:	e51b3008 	ldr	r3, [fp, #-8]
   10d68:	e2832008 	add	r2, r3, #8
   10d6c:	e51b3008 	ldr	r3, [fp, #-8]
   10d70:	e5832004 	str	r2, [r3, #4]
   10d74:	e51b3008 	ldr	r3, [fp, #-8]
   10d78:	e3e02000 	mvn	r2, #0
   10d7c:	e5832008 	str	r2, [r3, #8]
   10d80:	e51b3008 	ldr	r3, [fp, #-8]
   10d84:	e2832008 	add	r2, r3, #8
   10d88:	e51b3008 	ldr	r3, [fp, #-8]
   10d8c:	e583200c 	str	r2, [r3, #12]
   10d90:	e51b3008 	ldr	r3, [fp, #-8]
   10d94:	e2832008 	add	r2, r3, #8
   10d98:	e51b3008 	ldr	r3, [fp, #-8]
   10d9c:	e5832010 	str	r2, [r3, #16]
   10da0:	e51b3008 	ldr	r3, [fp, #-8]
   10da4:	e3a02000 	mov	r2, #0
   10da8:	e5832000 	str	r2, [r3]
   10dac:	e320f000 	nop	{0}
   10db0:	e28bd000 	add	sp, fp, #0
   10db4:	e49db004 	pop	{fp}		; (ldr fp, [sp], #4)
   10db8:	e12fff1e 	bx	lr

00010dbc <vListInitialiseItem>:
   10dbc:	e52db004 	push	{fp}		; (str fp, [sp, #-4]!)
   10dc0:	e28db000 	add	fp, sp, #0
   10dc4:	e24dd00c 	sub	sp, sp, #12
   10dc8:	e50b0008 	str	r0, [fp, #-8]
   10dcc:	e51b3008 	ldr	r3, [fp, #-8]
   10dd0:	e3a02000 	mov	r2, #0
   10dd4:	e5832010 	str	r2, [r3, #16]
   10dd8:	e320f000 	nop	{0}
   10ddc:	e28bd000 	add	sp, fp, #0
   10de0:	e49db004 	pop	{fp}		; (ldr fp, [sp], #4)
   10de4:	e12fff1e 	bx	lr

00010de8 <vListInsertEnd>:
   10de8:	e52db004 	push	{fp}		; (str fp, [sp, #-4]!)
   10dec:	e28db000 	add	fp, sp, #0
   10df0:	e24dd014 	sub	sp, sp, #20
   10df4:	e50b0010 	str	r0, [fp, #-16]
   10df8:	e50b1014 	str	r1, [fp, #-20]	; 0xffffffec
   10dfc:	e51b3010 	ldr	r3, [fp, #-16]
   10e00:	e5933004 	ldr	r3, [r3, #4]
   10e04:	e50b3008 	str	r3, [fp, #-8]
   10e08:	e51b3008 	ldr	r3, [fp, #-8]
   10e0c:	e5932004 	ldr	r2, [r3, #4]
   10e10:	e51b3014 	ldr	r3, [fp, #-20]	; 0xffffffec
   10e14:	e5832004 	str	r2, [r3, #4]
   10e18:	e51b3010 	ldr	r3, [fp, #-16]
   10e1c:	e5932004 	ldr	r2, [r3, #4]
   10e20:	e51b3014 	ldr	r3, [fp, #-20]	; 0xffffffec
   10e24:	e5832008 	str	r2, [r3, #8]
   10e28:	e51b3008 	ldr	r3, [fp, #-8]
   10e2c:	e5933004 	ldr	r3, [r3, #4]
   10e30:	e51b2014 	ldr	r2, [fp, #-20]	; 0xffffffec
   10e34:	e5832008 	str	r2, [r3, #8]
   10e38:	e51b3008 	ldr	r3, [fp, #-8]
   10e3c:	e51b2014 	ldr	r2, [fp, #-20]	; 0xffffffec
   10e40:	e5832004 	str	r2, [r3, #4]
   10e44:	e51b3010 	ldr	r3, [fp, #-16]
   10e48:	e51b2014 	ldr	r2, [fp, #-20]	; 0xffffffec
   10e4c:	e5832004 	str	r2, [r3, #4]
   10e50:	e51b3014 	ldr	r3, [fp, #-20]	; 0xffffffec
   10e54:	e51b2010 	ldr	r2, [fp, #-16]
   10e58:	e5832010 	str	r2, [r3, #16]
   10e5c:	e51b3010 	ldr	r3, [fp, #-16]
   10e60:	e5933000 	ldr	r3, [r3]
   10e64:	e2832001 	add	r2, r3, #1
   10e68:	e51b3010 	ldr	r3, [fp, #-16]
   10e6c:	e5832000 	str	r2, [r3]
   10e70:	e320f000 	nop	{0}
   10e74:	e28bd000 	add	sp, fp, #0
   10e78:	e49db004 	pop	{fp}		; (ldr fp, [sp], #4)
   10e7c:	e12fff1e 	bx	lr

00010e80 <vListInsert>:
   10e80:	e52db004 	push	{fp}		; (str fp, [sp, #-4]!)
   10e84:	e28db000 	add	fp, sp, #0
   10e88:	e24dd014 	sub	sp, sp, #20
   10e8c:	e50b0010 	str	r0, [fp, #-16]
   10e90:	e50b1014 	str	r1, [fp, #-20]	; 0xffffffec
   10e94:	e51b3014 	ldr	r3, [fp, #-20]	; 0xffffffec
   10e98:	e5933000 	ldr	r3, [r3]
   10e9c:	e50b300c 	str	r3, [fp, #-12]
   10ea0:	e51b300c 	ldr	r3, [fp, #-12]
   10ea4:	e3730001 	cmn	r3, #1
   10ea8:	1a000003 	bne	10ebc <vListInsert+0x3c>
   10eac:	e51b3010 	ldr	r3, [fp, #-16]
   10eb0:	e5933010 	ldr	r3, [r3, #16]
   10eb4:	e50b3008 	str	r3, [fp, #-8]
   10eb8:	ea00000c 	b	10ef0 <vListInsert+0x70>
   10ebc:	e51b3010 	ldr	r3, [fp, #-16]
   10ec0:	e2833008 	add	r3, r3, #8
   10ec4:	e50b3008 	str	r3, [fp, #-8]
   10ec8:	ea000002 	b	10ed8 <vListInsert+0x58>
   10ecc:	e51b3008 	ldr	r3, [fp, #-8]
   10ed0:	e5933004 	ldr	r3, [r3, #4]
   10ed4:	e50b3008 	str	r3, [fp, #-8]
   10ed8:	e51b3008 	ldr	r3, [fp, #-8]
   10edc:	e5933004 	ldr	r3, [r3, #4]
   10ee0:	e5933000 	ldr	r3, [r3]
   10ee4:	e51b200c 	ldr	r2, [fp, #-12]
   10ee8:	e1520003 	cmp	r2, r3
   10eec:	2afffff6 	bcs	10ecc <vListInsert+0x4c>
   10ef0:	e51b3008 	ldr	r3, [fp, #-8]
   10ef4:	e5932004 	ldr	r2, [r3, #4]
   10ef8:	e51b3014 	ldr	r3, [fp, #-20]	; 0xffffffec
   10efc:	e5832004 	str	r2, [r3, #4]
   10f00:	e51b3014 	ldr	r3, [fp, #-20]	; 0xffffffec
   10f04:	e5933004 	ldr	r3, [r3, #4]
   10f08:	e51b2014 	ldr	r2, [fp, #-20]	; 0xffffffec
   10f0c:	e5832008 	str	r2, [r3, #8]
   10f10:	e51b3014 	ldr	r3, [fp, #-20]	; 0xffffffec
   10f14:	e51b2008 	ldr	r2, [fp, #-8]
   10f18:	e5832008 	str	r2, [r3, #8]
   10f1c:	e51b3008 	ldr	r3, [fp, #-8]
   10f20:	e51b2014 	ldr	r2, [fp, #-20]	; 0xffffffec
   10f24:	e5832004 	str	r2, [r3, #4]
   10f28:	e51b3014 	ldr	r3, [fp, #-20]	; 0xffffffec
   10f2c:	e51b2010 	ldr	r2, [fp, #-16]
   10f30:	e5832010 	str	r2, [r3, #16]
   10f34:	e51b3010 	ldr	r3, [fp, #-16]
   10f38:	e5933000 	ldr	r3, [r3]
   10f3c:	e2832001 	add	r2, r3, #1
   10f40:	e51b3010 	ldr	r3, [fp, #-16]
   10f44:	e5832000 	str	r2, [r3]
   10f48:	e320f000 	nop	{0}
   10f4c:	e28bd000 	add	sp, fp, #0
   10f50:	e49db004 	pop	{fp}		; (ldr fp, [sp], #4)
   10f54:	e12fff1e 	bx	lr

00010f58 <vListRemove>:
   10f58:	e52db004 	push	{fp}		; (str fp, [sp, #-4]!)
   10f5c:	e28db000 	add	fp, sp, #0
   10f60:	e24dd014 	sub	sp, sp, #20
   10f64:	e50b0010 	str	r0, [fp, #-16]
   10f68:	e51b3010 	ldr	r3, [fp, #-16]
   10f6c:	e5933004 	ldr	r3, [r3, #4]
   10f70:	e51b2010 	ldr	r2, [fp, #-16]
   10f74:	e5922008 	ldr	r2, [r2, #8]
   10f78:	e5832008 	str	r2, [r3, #8]
   10f7c:	e51b3010 	ldr	r3, [fp, #-16]
   10f80:	e5933008 	ldr	r3, [r3, #8]
   10f84:	e51b2010 	ldr	r2, [fp, #-16]
   10f88:	e5922004 	ldr	r2, [r2, #4]
   10f8c:	e5832004 	str	r2, [r3, #4]
   10f90:	e51b3010 	ldr	r3, [fp, #-16]
   10f94:	e5933010 	ldr	r3, [r3, #16]
   10f98:	e50b3008 	str	r3, [fp, #-8]
   10f9c:	e51b3008 	ldr	r3, [fp, #-8]
   10fa0:	e5933004 	ldr	r3, [r3, #4]
   10fa4:	e51b2010 	ldr	r2, [fp, #-16]
   10fa8:	e1520003 	cmp	r2, r3
   10fac:	1a000003 	bne	10fc0 <vListRemove+0x68>
   10fb0:	e51b3010 	ldr	r3, [fp, #-16]
   10fb4:	e5932008 	ldr	r2, [r3, #8]
   10fb8:	e51b3008 	ldr	r3, [fp, #-8]
   10fbc:	e5832004 	str	r2, [r3, #4]
   10fc0:	e51b3010 	ldr	r3, [fp, #-16]
   10fc4:	e3a02000 	mov	r2, #0
   10fc8:	e5832010 	str	r2, [r3, #16]
   10fcc:	e51b3008 	ldr	r3, [fp, #-8]
   10fd0:	e5933000 	ldr	r3, [r3]
   10fd4:	e2432001 	sub	r2, r3, #1
   10fd8:	e51b3008 	ldr	r3, [fp, #-8]
   10fdc:	e5832000 	str	r2, [r3]
   10fe0:	e320f000 	nop	{0}
   10fe4:	e28bd000 	add	sp, fp, #0
   10fe8:	e49db004 	pop	{fp}		; (ldr fp, [sp], #4)
   10fec:	e12fff1e 	bx	lr

00010ff0 <xQueueGenericReset>:
   10ff0:	e92d4800 	push	{fp, lr}
   10ff4:	e28db004 	add	fp, sp, #4
   10ff8:	e24dd008 	sub	sp, sp, #8
   10ffc:	e50b0008 	str	r0, [fp, #-8]
   11000:	e50b100c 	str	r1, [fp, #-12]
   11004:	ebfffd4d 	bl	10540 <vPortEnterCritical>
   11008:	e51b3008 	ldr	r3, [fp, #-8]
   1100c:	e5932000 	ldr	r2, [r3]
   11010:	e51b3008 	ldr	r3, [fp, #-8]
   11014:	e593303c 	ldr	r3, [r3, #60]	; 0x3c
   11018:	e51b1008 	ldr	r1, [fp, #-8]
   1101c:	e5911040 	ldr	r1, [r1, #64]	; 0x40
   11020:	e0030391 	mul	r3, r1, r3
   11024:	e0822003 	add	r2, r2, r3
   11028:	e51b3008 	ldr	r3, [fp, #-8]
   1102c:	e5832004 	str	r2, [r3, #4]
   11030:	e51b3008 	ldr	r3, [fp, #-8]
   11034:	e3a02000 	mov	r2, #0
   11038:	e5832038 	str	r2, [r3, #56]	; 0x38
   1103c:	e51b3008 	ldr	r3, [fp, #-8]
   11040:	e5932000 	ldr	r2, [r3]
   11044:	e51b3008 	ldr	r3, [fp, #-8]
   11048:	e5832008 	str	r2, [r3, #8]
   1104c:	e51b3008 	ldr	r3, [fp, #-8]
   11050:	e5932000 	ldr	r2, [r3]
   11054:	e51b3008 	ldr	r3, [fp, #-8]
   11058:	e593303c 	ldr	r3, [r3, #60]	; 0x3c
   1105c:	e2433001 	sub	r3, r3, #1
   11060:	e51b1008 	ldr	r1, [fp, #-8]
   11064:	e5911040 	ldr	r1, [r1, #64]	; 0x40
   11068:	e0030391 	mul	r3, r1, r3
   1106c:	e0822003 	add	r2, r2, r3
   11070:	e51b3008 	ldr	r3, [fp, #-8]
   11074:	e583200c 	str	r2, [r3, #12]
   11078:	e51b3008 	ldr	r3, [fp, #-8]
   1107c:	e3e02000 	mvn	r2, #0
   11080:	e5832044 	str	r2, [r3, #68]	; 0x44
   11084:	e51b3008 	ldr	r3, [fp, #-8]
   11088:	e3e02000 	mvn	r2, #0
   1108c:	e5832048 	str	r2, [r3, #72]	; 0x48
   11090:	e51b300c 	ldr	r3, [fp, #-12]
   11094:	e3530000 	cmp	r3, #0
   11098:	1a00000c 	bne	110d0 <xQueueGenericReset+0xe0>
   1109c:	e51b3008 	ldr	r3, [fp, #-8]
   110a0:	e5933010 	ldr	r3, [r3, #16]
   110a4:	e3530000 	cmp	r3, #0
   110a8:	0a000010 	beq	110f0 <xQueueGenericReset+0x100>
   110ac:	e51b3008 	ldr	r3, [fp, #-8]
   110b0:	e2833010 	add	r3, r3, #16
   110b4:	e1a00003 	mov	r0, r3
   110b8:	eb000760 	bl	12e40 <xTaskRemoveFromEventList>
   110bc:	e1a03000 	mov	r3, r0
   110c0:	e3530001 	cmp	r3, #1
   110c4:	1a000009 	bne	110f0 <xQueueGenericReset+0x100>
   110c8:	ef000000 	svc	0x00000000
   110cc:	ea000007 	b	110f0 <xQueueGenericReset+0x100>
   110d0:	e51b3008 	ldr	r3, [fp, #-8]
   110d4:	e2833010 	add	r3, r3, #16
   110d8:	e1a00003 	mov	r0, r3
   110dc:	ebffff1c 	bl	10d54 <vListInitialise>
   110e0:	e51b3008 	ldr	r3, [fp, #-8]
   110e4:	e2833024 	add	r3, r3, #36	; 0x24
   110e8:	e1a00003 	mov	r0, r3
   110ec:	ebffff18 	bl	10d54 <vListInitialise>
   110f0:	ebfffd23 	bl	10584 <vPortExitCritical>
   110f4:	e3a03001 	mov	r3, #1
   110f8:	e1a00003 	mov	r0, r3
   110fc:	e24bd004 	sub	sp, fp, #4
   11100:	e8bd8800 	pop	{fp, pc}

00011104 <xQueueGenericCreate>:
   11104:	e92d4800 	push	{fp, lr}
   11108:	e28db004 	add	fp, sp, #4
   1110c:	e24dd020 	sub	sp, sp, #32
   11110:	e50b0018 	str	r0, [fp, #-24]	; 0xffffffe8
   11114:	e50b101c 	str	r1, [fp, #-28]	; 0xffffffe4
   11118:	e1a03002 	mov	r3, r2
   1111c:	e54b301d 	strb	r3, [fp, #-29]	; 0xffffffe3
   11120:	e3a03000 	mov	r3, #0
   11124:	e50b3008 	str	r3, [fp, #-8]
   11128:	e51b3018 	ldr	r3, [fp, #-24]	; 0xffffffe8
   1112c:	e3530000 	cmp	r3, #0
   11130:	0a000021 	beq	111bc <xQueueGenericCreate+0xb8>
   11134:	e3a0004c 	mov	r0, #76	; 0x4c
   11138:	eb000b3f 	bl	13e3c <pvPortMalloc>
   1113c:	e50b000c 	str	r0, [fp, #-12]
   11140:	e51b300c 	ldr	r3, [fp, #-12]
   11144:	e3530000 	cmp	r3, #0
   11148:	0a00001b 	beq	111bc <xQueueGenericCreate+0xb8>
   1114c:	e51b3018 	ldr	r3, [fp, #-24]	; 0xffffffe8
   11150:	e51b201c 	ldr	r2, [fp, #-28]	; 0xffffffe4
   11154:	e0030392 	mul	r3, r2, r3
   11158:	e2833001 	add	r3, r3, #1
   1115c:	e50b3010 	str	r3, [fp, #-16]
   11160:	e51b0010 	ldr	r0, [fp, #-16]
   11164:	eb000b34 	bl	13e3c <pvPortMalloc>
   11168:	e1a02000 	mov	r2, r0
   1116c:	e51b300c 	ldr	r3, [fp, #-12]
   11170:	e5832000 	str	r2, [r3]
   11174:	e51b300c 	ldr	r3, [fp, #-12]
   11178:	e5933000 	ldr	r3, [r3]
   1117c:	e3530000 	cmp	r3, #0
   11180:	0a00000b 	beq	111b4 <xQueueGenericCreate+0xb0>
   11184:	e51b300c 	ldr	r3, [fp, #-12]
   11188:	e51b2018 	ldr	r2, [fp, #-24]	; 0xffffffe8
   1118c:	e583203c 	str	r2, [r3, #60]	; 0x3c
   11190:	e51b300c 	ldr	r3, [fp, #-12]
   11194:	e51b201c 	ldr	r2, [fp, #-28]	; 0xffffffe4
   11198:	e5832040 	str	r2, [r3, #64]	; 0x40
   1119c:	e3a01001 	mov	r1, #1
   111a0:	e51b000c 	ldr	r0, [fp, #-12]
   111a4:	ebffff91 	bl	10ff0 <xQueueGenericReset>
   111a8:	e51b300c 	ldr	r3, [fp, #-12]
   111ac:	e50b3008 	str	r3, [fp, #-8]
   111b0:	ea000001 	b	111bc <xQueueGenericCreate+0xb8>
   111b4:	e51b000c 	ldr	r0, [fp, #-12]
   111b8:	eb000b91 	bl	14004 <vPortFree>
   111bc:	e51b3008 	ldr	r3, [fp, #-8]
   111c0:	e1a00003 	mov	r0, r3
   111c4:	e24bd004 	sub	sp, fp, #4
   111c8:	e8bd8800 	pop	{fp, pc}

000111cc <xQueueGenericSend>:
   111cc:	e92d4800 	push	{fp, lr}
   111d0:	e28db004 	add	fp, sp, #4
   111d4:	e24dd020 	sub	sp, sp, #32
   111d8:	e50b0018 	str	r0, [fp, #-24]	; 0xffffffe8
   111dc:	e50b101c 	str	r1, [fp, #-28]	; 0xffffffe4
   111e0:	e50b2020 	str	r2, [fp, #-32]	; 0xffffffe0
   111e4:	e50b3024 	str	r3, [fp, #-36]	; 0xffffffdc
   111e8:	e3a03000 	mov	r3, #0
   111ec:	e50b3008 	str	r3, [fp, #-8]
   111f0:	ebfffcd2 	bl	10540 <vPortEnterCritical>
   111f4:	e51b3018 	ldr	r3, [fp, #-24]	; 0xffffffe8
   111f8:	e5932038 	ldr	r2, [r3, #56]	; 0x38
   111fc:	e51b3018 	ldr	r3, [fp, #-24]	; 0xffffffe8
   11200:	e593303c 	ldr	r3, [r3, #60]	; 0x3c
   11204:	e1520003 	cmp	r2, r3
   11208:	2a000012 	bcs	11258 <xQueueGenericSend+0x8c>
   1120c:	e51b2024 	ldr	r2, [fp, #-36]	; 0xffffffdc
   11210:	e51b101c 	ldr	r1, [fp, #-28]	; 0xffffffe4
   11214:	e51b0018 	ldr	r0, [fp, #-24]	; 0xffffffe8
   11218:	eb00016a 	bl	117c8 <prvCopyDataToQueue>
   1121c:	e51b3018 	ldr	r3, [fp, #-24]	; 0xffffffe8
   11220:	e5933024 	ldr	r3, [r3, #36]	; 0x24
   11224:	e3530000 	cmp	r3, #0
   11228:	0a000007 	beq	1124c <xQueueGenericSend+0x80>
   1122c:	e51b3018 	ldr	r3, [fp, #-24]	; 0xffffffe8
   11230:	e2833024 	add	r3, r3, #36	; 0x24
   11234:	e1a00003 	mov	r0, r3
   11238:	eb000700 	bl	12e40 <xTaskRemoveFromEventList>
   1123c:	e1a03000 	mov	r3, r0
   11240:	e3530001 	cmp	r3, #1
   11244:	1a000000 	bne	1124c <xQueueGenericSend+0x80>
   11248:	ef000000 	svc	0x00000000
   1124c:	ebfffccc 	bl	10584 <vPortExitCritical>
   11250:	e3a03001 	mov	r3, #1
   11254:	ea000042 	b	11364 <xQueueGenericSend+0x198>
   11258:	e51b3020 	ldr	r3, [fp, #-32]	; 0xffffffe0
   1125c:	e3530000 	cmp	r3, #0
   11260:	1a000002 	bne	11270 <xQueueGenericSend+0xa4>
   11264:	ebfffcc6 	bl	10584 <vPortExitCritical>
   11268:	e3a03000 	mov	r3, #0
   1126c:	ea00003c 	b	11364 <xQueueGenericSend+0x198>
   11270:	e51b3008 	ldr	r3, [fp, #-8]
   11274:	e3530000 	cmp	r3, #0
   11278:	1a000004 	bne	11290 <xQueueGenericSend+0xc4>
   1127c:	e24b3010 	sub	r3, fp, #16
   11280:	e1a00003 	mov	r0, r3
   11284:	eb000733 	bl	12f58 <vTaskSetTimeOutState>
   11288:	e3a03001 	mov	r3, #1
   1128c:	e50b3008 	str	r3, [fp, #-8]
   11290:	ebfffcbb 	bl	10584 <vPortExitCritical>
   11294:	eb000513 	bl	126e8 <vTaskSuspendAll>
   11298:	ebfffca8 	bl	10540 <vPortEnterCritical>
   1129c:	e51b3018 	ldr	r3, [fp, #-24]	; 0xffffffe8
   112a0:	e5933044 	ldr	r3, [r3, #68]	; 0x44
   112a4:	e3730001 	cmn	r3, #1
   112a8:	1a000002 	bne	112b8 <xQueueGenericSend+0xec>
   112ac:	e51b3018 	ldr	r3, [fp, #-24]	; 0xffffffe8
   112b0:	e3a02000 	mov	r2, #0
   112b4:	e5832044 	str	r2, [r3, #68]	; 0x44
   112b8:	e51b3018 	ldr	r3, [fp, #-24]	; 0xffffffe8
   112bc:	e5933048 	ldr	r3, [r3, #72]	; 0x48
   112c0:	e3730001 	cmn	r3, #1
   112c4:	1a000002 	bne	112d4 <xQueueGenericSend+0x108>
   112c8:	e51b3018 	ldr	r3, [fp, #-24]	; 0xffffffe8
   112cc:	e3a02000 	mov	r2, #0
   112d0:	e5832048 	str	r2, [r3, #72]	; 0x48
   112d4:	ebfffcaa 	bl	10584 <vPortExitCritical>
   112d8:	e24b2020 	sub	r2, fp, #32
   112dc:	e24b3010 	sub	r3, fp, #16
   112e0:	e1a01002 	mov	r1, r2
   112e4:	e1a00003 	mov	r0, r3
   112e8:	eb00072c 	bl	12fa0 <xTaskCheckForTimeOut>
   112ec:	e1a03000 	mov	r3, r0
   112f0:	e3530000 	cmp	r3, #0
   112f4:	1a000016 	bne	11354 <xQueueGenericSend+0x188>
   112f8:	e51b0018 	ldr	r0, [fp, #-24]	; 0xffffffe8
   112fc:	eb000202 	bl	11b0c <prvIsQueueFull>
   11300:	e1a03000 	mov	r3, r0
   11304:	e3530000 	cmp	r3, #0
   11308:	0a00000d 	beq	11344 <xQueueGenericSend+0x178>
   1130c:	e51b3018 	ldr	r3, [fp, #-24]	; 0xffffffe8
   11310:	e2833010 	add	r3, r3, #16
   11314:	e51b2020 	ldr	r2, [fp, #-32]	; 0xffffffe0
   11318:	e1a01002 	mov	r1, r2
   1131c:	e1a00003 	mov	r0, r3
   11320:	eb00069f 	bl	12da4 <vTaskPlaceOnEventList>
   11324:	e51b0018 	ldr	r0, [fp, #-24]	; 0xffffffe8
   11328:	eb000195 	bl	11984 <prvUnlockQueue>
   1132c:	eb0004f9 	bl	12718 <xTaskResumeAll>
   11330:	e1a03000 	mov	r3, r0
   11334:	e3530000 	cmp	r3, #0
   11338:	1affffac 	bne	111f0 <xQueueGenericSend+0x24>
   1133c:	ef000000 	svc	0x00000000
   11340:	eaffffaa 	b	111f0 <xQueueGenericSend+0x24>
   11344:	e51b0018 	ldr	r0, [fp, #-24]	; 0xffffffe8
   11348:	eb00018d 	bl	11984 <prvUnlockQueue>
   1134c:	eb0004f1 	bl	12718 <xTaskResumeAll>
   11350:	eaffffa6 	b	111f0 <xQueueGenericSend+0x24>
   11354:	e51b0018 	ldr	r0, [fp, #-24]	; 0xffffffe8
   11358:	eb000189 	bl	11984 <prvUnlockQueue>
   1135c:	eb0004ed 	bl	12718 <xTaskResumeAll>
   11360:	e3a03000 	mov	r3, #0
   11364:	e1a00003 	mov	r0, r3
   11368:	e24bd004 	sub	sp, fp, #4
   1136c:	e8bd8800 	pop	{fp, pc}

00011370 <xQueueGenericSendFromISR>:
   11370:	e92d4800 	push	{fp, lr}
   11374:	e28db004 	add	fp, sp, #4
   11378:	e24dd018 	sub	sp, sp, #24
   1137c:	e50b0010 	str	r0, [fp, #-16]
   11380:	e50b1014 	str	r1, [fp, #-20]	; 0xffffffec
   11384:	e50b2018 	str	r2, [fp, #-24]	; 0xffffffe8
   11388:	e50b301c 	str	r3, [fp, #-28]	; 0xffffffe4
   1138c:	e3a03000 	mov	r3, #0
   11390:	e50b300c 	str	r3, [fp, #-12]
   11394:	e51b3010 	ldr	r3, [fp, #-16]
   11398:	e5932038 	ldr	r2, [r3, #56]	; 0x38
   1139c:	e51b3010 	ldr	r3, [fp, #-16]
   113a0:	e593303c 	ldr	r3, [r3, #60]	; 0x3c
   113a4:	e1520003 	cmp	r2, r3
   113a8:	2a000021 	bcs	11434 <xQueueGenericSendFromISR+0xc4>
   113ac:	e51b201c 	ldr	r2, [fp, #-28]	; 0xffffffe4
   113b0:	e51b1014 	ldr	r1, [fp, #-20]	; 0xffffffec
   113b4:	e51b0010 	ldr	r0, [fp, #-16]
   113b8:	eb000102 	bl	117c8 <prvCopyDataToQueue>
   113bc:	e51b3010 	ldr	r3, [fp, #-16]
   113c0:	e5933048 	ldr	r3, [r3, #72]	; 0x48
   113c4:	e3730001 	cmn	r3, #1
   113c8:	1a000011 	bne	11414 <xQueueGenericSendFromISR+0xa4>
   113cc:	e51b3010 	ldr	r3, [fp, #-16]
   113d0:	e5933024 	ldr	r3, [r3, #36]	; 0x24
   113d4:	e3530000 	cmp	r3, #0
   113d8:	0a000012 	beq	11428 <xQueueGenericSendFromISR+0xb8>
   113dc:	e51b3010 	ldr	r3, [fp, #-16]
   113e0:	e2833024 	add	r3, r3, #36	; 0x24
   113e4:	e1a00003 	mov	r0, r3
   113e8:	eb000694 	bl	12e40 <xTaskRemoveFromEventList>
   113ec:	e1a03000 	mov	r3, r0
   113f0:	e3530000 	cmp	r3, #0
   113f4:	0a00000b 	beq	11428 <xQueueGenericSendFromISR+0xb8>
   113f8:	e51b3018 	ldr	r3, [fp, #-24]	; 0xffffffe8
   113fc:	e3530000 	cmp	r3, #0
   11400:	0a000008 	beq	11428 <xQueueGenericSendFromISR+0xb8>
   11404:	e51b3018 	ldr	r3, [fp, #-24]	; 0xffffffe8
   11408:	e3a02001 	mov	r2, #1
   1140c:	e5832000 	str	r2, [r3]
   11410:	ea000004 	b	11428 <xQueueGenericSendFromISR+0xb8>
   11414:	e51b3010 	ldr	r3, [fp, #-16]
   11418:	e5933048 	ldr	r3, [r3, #72]	; 0x48
   1141c:	e2832001 	add	r2, r3, #1
   11420:	e51b3010 	ldr	r3, [fp, #-16]
   11424:	e5832048 	str	r2, [r3, #72]	; 0x48
   11428:	e3a03001 	mov	r3, #1
   1142c:	e50b3008 	str	r3, [fp, #-8]
   11430:	ea000001 	b	1143c <xQueueGenericSendFromISR+0xcc>
   11434:	e3a03000 	mov	r3, #0
   11438:	e50b3008 	str	r3, [fp, #-8]
   1143c:	e51b3008 	ldr	r3, [fp, #-8]
   11440:	e1a00003 	mov	r0, r3
   11444:	e24bd004 	sub	sp, fp, #4
   11448:	e8bd8800 	pop	{fp, pc}

0001144c <xQueueGenericReceive>:
   1144c:	e92d4800 	push	{fp, lr}
   11450:	e28db004 	add	fp, sp, #4
   11454:	e24dd020 	sub	sp, sp, #32
   11458:	e50b0018 	str	r0, [fp, #-24]	; 0xffffffe8
   1145c:	e50b101c 	str	r1, [fp, #-28]	; 0xffffffe4
   11460:	e50b2020 	str	r2, [fp, #-32]	; 0xffffffe0
   11464:	e50b3024 	str	r3, [fp, #-36]	; 0xffffffdc
   11468:	e3a03000 	mov	r3, #0
   1146c:	e50b3008 	str	r3, [fp, #-8]
   11470:	ebfffc32 	bl	10540 <vPortEnterCritical>
   11474:	e51b3018 	ldr	r3, [fp, #-24]	; 0xffffffe8
   11478:	e5933038 	ldr	r3, [r3, #56]	; 0x38
   1147c:	e3530000 	cmp	r3, #0
   11480:	0a00002c 	beq	11538 <xQueueGenericReceive+0xec>
   11484:	e51b3018 	ldr	r3, [fp, #-24]	; 0xffffffe8
   11488:	e593300c 	ldr	r3, [r3, #12]
   1148c:	e50b300c 	str	r3, [fp, #-12]
   11490:	e51b101c 	ldr	r1, [fp, #-28]	; 0xffffffe4
   11494:	e51b0018 	ldr	r0, [fp, #-24]	; 0xffffffe8
   11498:	eb000115 	bl	118f4 <prvCopyDataFromQueue>
   1149c:	e51b3024 	ldr	r3, [fp, #-36]	; 0xffffffdc
   114a0:	e3530000 	cmp	r3, #0
   114a4:	1a000011 	bne	114f0 <xQueueGenericReceive+0xa4>
   114a8:	e51b3018 	ldr	r3, [fp, #-24]	; 0xffffffe8
   114ac:	e5933038 	ldr	r3, [r3, #56]	; 0x38
   114b0:	e2432001 	sub	r2, r3, #1
   114b4:	e51b3018 	ldr	r3, [fp, #-24]	; 0xffffffe8
   114b8:	e5832038 	str	r2, [r3, #56]	; 0x38
   114bc:	e51b3018 	ldr	r3, [fp, #-24]	; 0xffffffe8
   114c0:	e5933010 	ldr	r3, [r3, #16]
   114c4:	e3530000 	cmp	r3, #0
   114c8:	0a000017 	beq	1152c <xQueueGenericReceive+0xe0>
   114cc:	e51b3018 	ldr	r3, [fp, #-24]	; 0xffffffe8
   114d0:	e2833010 	add	r3, r3, #16
   114d4:	e1a00003 	mov	r0, r3
   114d8:	eb000658 	bl	12e40 <xTaskRemoveFromEventList>
   114dc:	e1a03000 	mov	r3, r0
   114e0:	e3530001 	cmp	r3, #1
   114e4:	1a000010 	bne	1152c <xQueueGenericReceive+0xe0>
   114e8:	ef000000 	svc	0x00000000
   114ec:	ea00000e 	b	1152c <xQueueGenericReceive+0xe0>
   114f0:	e51b3018 	ldr	r3, [fp, #-24]	; 0xffffffe8
   114f4:	e51b200c 	ldr	r2, [fp, #-12]
   114f8:	e583200c 	str	r2, [r3, #12]
   114fc:	e51b3018 	ldr	r3, [fp, #-24]	; 0xffffffe8
   11500:	e5933024 	ldr	r3, [r3, #36]	; 0x24
   11504:	e3530000 	cmp	r3, #0
   11508:	0a000007 	beq	1152c <xQueueGenericReceive+0xe0>
   1150c:	e51b3018 	ldr	r3, [fp, #-24]	; 0xffffffe8
   11510:	e2833024 	add	r3, r3, #36	; 0x24
   11514:	e1a00003 	mov	r0, r3
   11518:	eb000648 	bl	12e40 <xTaskRemoveFromEventList>
   1151c:	e1a03000 	mov	r3, r0
   11520:	e3530000 	cmp	r3, #0
   11524:	0a000000 	beq	1152c <xQueueGenericReceive+0xe0>
   11528:	ef000000 	svc	0x00000000
   1152c:	ebfffc14 	bl	10584 <vPortExitCritical>
   11530:	e3a03001 	mov	r3, #1
   11534:	ea000042 	b	11644 <xQueueGenericReceive+0x1f8>
   11538:	e51b3020 	ldr	r3, [fp, #-32]	; 0xffffffe0
   1153c:	e3530000 	cmp	r3, #0
   11540:	1a000002 	bne	11550 <xQueueGenericReceive+0x104>
   11544:	ebfffc0e 	bl	10584 <vPortExitCritical>
   11548:	e3a03000 	mov	r3, #0
   1154c:	ea00003c 	b	11644 <xQueueGenericReceive+0x1f8>
   11550:	e51b3008 	ldr	r3, [fp, #-8]
   11554:	e3530000 	cmp	r3, #0
   11558:	1a000004 	bne	11570 <xQueueGenericReceive+0x124>
   1155c:	e24b3014 	sub	r3, fp, #20
   11560:	e1a00003 	mov	r0, r3
   11564:	eb00067b 	bl	12f58 <vTaskSetTimeOutState>
   11568:	e3a03001 	mov	r3, #1
   1156c:	e50b3008 	str	r3, [fp, #-8]
   11570:	ebfffc03 	bl	10584 <vPortExitCritical>
   11574:	eb00045b 	bl	126e8 <vTaskSuspendAll>
   11578:	ebfffbf0 	bl	10540 <vPortEnterCritical>
   1157c:	e51b3018 	ldr	r3, [fp, #-24]	; 0xffffffe8
   11580:	e5933044 	ldr	r3, [r3, #68]	; 0x44
   11584:	e3730001 	cmn	r3, #1
   11588:	1a000002 	bne	11598 <xQueueGenericReceive+0x14c>
   1158c:	e51b3018 	ldr	r3, [fp, #-24]	; 0xffffffe8
   11590:	e3a02000 	mov	r2, #0
   11594:	e5832044 	str	r2, [r3, #68]	; 0x44
   11598:	e51b3018 	ldr	r3, [fp, #-24]	; 0xffffffe8
   1159c:	e5933048 	ldr	r3, [r3, #72]	; 0x48
   115a0:	e3730001 	cmn	r3, #1
   115a4:	1a000002 	bne	115b4 <xQueueGenericReceive+0x168>
   115a8:	e51b3018 	ldr	r3, [fp, #-24]	; 0xffffffe8
   115ac:	e3a02000 	mov	r2, #0
   115b0:	e5832048 	str	r2, [r3, #72]	; 0x48
   115b4:	ebfffbf2 	bl	10584 <vPortExitCritical>
   115b8:	e24b2020 	sub	r2, fp, #32
   115bc:	e24b3014 	sub	r3, fp, #20
   115c0:	e1a01002 	mov	r1, r2
   115c4:	e1a00003 	mov	r0, r3
   115c8:	eb000674 	bl	12fa0 <xTaskCheckForTimeOut>
   115cc:	e1a03000 	mov	r3, r0
   115d0:	e3530000 	cmp	r3, #0
   115d4:	1a000016 	bne	11634 <xQueueGenericReceive+0x1e8>
   115d8:	e51b0018 	ldr	r0, [fp, #-24]	; 0xffffffe8
   115dc:	eb000129 	bl	11a88 <prvIsQueueEmpty>
   115e0:	e1a03000 	mov	r3, r0
   115e4:	e3530000 	cmp	r3, #0
   115e8:	0a00000d 	beq	11624 <xQueueGenericReceive+0x1d8>
   115ec:	e51b3018 	ldr	r3, [fp, #-24]	; 0xffffffe8
   115f0:	e2833024 	add	r3, r3, #36	; 0x24
   115f4:	e51b2020 	ldr	r2, [fp, #-32]	; 0xffffffe0
   115f8:	e1a01002 	mov	r1, r2
   115fc:	e1a00003 	mov	r0, r3
   11600:	eb0005e7 	bl	12da4 <vTaskPlaceOnEventList>
   11604:	e51b0018 	ldr	r0, [fp, #-24]	; 0xffffffe8
   11608:	eb0000dd 	bl	11984 <prvUnlockQueue>
   1160c:	eb000441 	bl	12718 <xTaskResumeAll>
   11610:	e1a03000 	mov	r3, r0
   11614:	e3530000 	cmp	r3, #0
   11618:	1affff94 	bne	11470 <xQueueGenericReceive+0x24>
   1161c:	ef000000 	svc	0x00000000
   11620:	eaffff92 	b	11470 <xQueueGenericReceive+0x24>
   11624:	e51b0018 	ldr	r0, [fp, #-24]	; 0xffffffe8
   11628:	eb0000d5 	bl	11984 <prvUnlockQueue>
   1162c:	eb000439 	bl	12718 <xTaskResumeAll>
   11630:	eaffff8e 	b	11470 <xQueueGenericReceive+0x24>
   11634:	e51b0018 	ldr	r0, [fp, #-24]	; 0xffffffe8
   11638:	eb0000d1 	bl	11984 <prvUnlockQueue>
   1163c:	eb000435 	bl	12718 <xTaskResumeAll>
   11640:	e3a03000 	mov	r3, #0
   11644:	e1a00003 	mov	r0, r3
   11648:	e24bd004 	sub	sp, fp, #4
   1164c:	e8bd8800 	pop	{fp, pc}

00011650 <xQueueReceiveFromISR>:
   11650:	e92d4800 	push	{fp, lr}
   11654:	e28db004 	add	fp, sp, #4
   11658:	e24dd018 	sub	sp, sp, #24
   1165c:	e50b0010 	str	r0, [fp, #-16]
   11660:	e50b1014 	str	r1, [fp, #-20]	; 0xffffffec
   11664:	e50b2018 	str	r2, [fp, #-24]	; 0xffffffe8
   11668:	e3a03000 	mov	r3, #0
   1166c:	e50b300c 	str	r3, [fp, #-12]
   11670:	e51b3010 	ldr	r3, [fp, #-16]
   11674:	e5933038 	ldr	r3, [r3, #56]	; 0x38
   11678:	e3530000 	cmp	r3, #0
   1167c:	0a000025 	beq	11718 <xQueueReceiveFromISR+0xc8>
   11680:	e51b1014 	ldr	r1, [fp, #-20]	; 0xffffffec
   11684:	e51b0010 	ldr	r0, [fp, #-16]
   11688:	eb000099 	bl	118f4 <prvCopyDataFromQueue>
   1168c:	e51b3010 	ldr	r3, [fp, #-16]
   11690:	e5933038 	ldr	r3, [r3, #56]	; 0x38
   11694:	e2432001 	sub	r2, r3, #1
   11698:	e51b3010 	ldr	r3, [fp, #-16]
   1169c:	e5832038 	str	r2, [r3, #56]	; 0x38
   116a0:	e51b3010 	ldr	r3, [fp, #-16]
   116a4:	e5933044 	ldr	r3, [r3, #68]	; 0x44
   116a8:	e3730001 	cmn	r3, #1
   116ac:	1a000011 	bne	116f8 <xQueueReceiveFromISR+0xa8>
   116b0:	e51b3010 	ldr	r3, [fp, #-16]
   116b4:	e5933010 	ldr	r3, [r3, #16]
   116b8:	e3530000 	cmp	r3, #0
   116bc:	0a000012 	beq	1170c <xQueueReceiveFromISR+0xbc>
   116c0:	e51b3010 	ldr	r3, [fp, #-16]
   116c4:	e2833010 	add	r3, r3, #16
   116c8:	e1a00003 	mov	r0, r3
   116cc:	eb0005db 	bl	12e40 <xTaskRemoveFromEventList>
   116d0:	e1a03000 	mov	r3, r0
   116d4:	e3530000 	cmp	r3, #0
   116d8:	0a00000b 	beq	1170c <xQueueReceiveFromISR+0xbc>
   116dc:	e51b3018 	ldr	r3, [fp, #-24]	; 0xffffffe8
   116e0:	e3530000 	cmp	r3, #0
   116e4:	0a000008 	beq	1170c <xQueueReceiveFromISR+0xbc>
   116e8:	e51b3018 	ldr	r3, [fp, #-24]	; 0xffffffe8
   116ec:	e3a02001 	mov	r2, #1
   116f0:	e5832000 	str	r2, [r3]
   116f4:	ea000004 	b	1170c <xQueueReceiveFromISR+0xbc>
   116f8:	e51b3010 	ldr	r3, [fp, #-16]
   116fc:	e5933044 	ldr	r3, [r3, #68]	; 0x44
   11700:	e2832001 	add	r2, r3, #1
   11704:	e51b3010 	ldr	r3, [fp, #-16]
   11708:	e5832044 	str	r2, [r3, #68]	; 0x44
   1170c:	e3a03001 	mov	r3, #1
   11710:	e50b3008 	str	r3, [fp, #-8]
   11714:	ea000001 	b	11720 <xQueueReceiveFromISR+0xd0>
   11718:	e3a03000 	mov	r3, #0
   1171c:	e50b3008 	str	r3, [fp, #-8]
   11720:	e51b3008 	ldr	r3, [fp, #-8]
   11724:	e1a00003 	mov	r0, r3
   11728:	e24bd004 	sub	sp, fp, #4
   1172c:	e8bd8800 	pop	{fp, pc}

00011730 <uxQueueMessagesWaiting>:
   11730:	e92d4800 	push	{fp, lr}
   11734:	e28db004 	add	fp, sp, #4
   11738:	e24dd010 	sub	sp, sp, #16
   1173c:	e50b0010 	str	r0, [fp, #-16]
   11740:	ebfffb7e 	bl	10540 <vPortEnterCritical>
   11744:	e51b3010 	ldr	r3, [fp, #-16]
   11748:	e5933038 	ldr	r3, [r3, #56]	; 0x38
   1174c:	e50b3008 	str	r3, [fp, #-8]
   11750:	ebfffb8b 	bl	10584 <vPortExitCritical>
   11754:	e51b3008 	ldr	r3, [fp, #-8]
   11758:	e1a00003 	mov	r0, r3
   1175c:	e24bd004 	sub	sp, fp, #4
   11760:	e8bd8800 	pop	{fp, pc}

00011764 <uxQueueMessagesWaitingFromISR>:
   11764:	e52db004 	push	{fp}		; (str fp, [sp, #-4]!)
   11768:	e28db000 	add	fp, sp, #0
   1176c:	e24dd014 	sub	sp, sp, #20
   11770:	e50b0010 	str	r0, [fp, #-16]
   11774:	e51b3010 	ldr	r3, [fp, #-16]
   11778:	e5933038 	ldr	r3, [r3, #56]	; 0x38
   1177c:	e50b3008 	str	r3, [fp, #-8]
   11780:	e51b3008 	ldr	r3, [fp, #-8]
   11784:	e1a00003 	mov	r0, r3
   11788:	e28bd000 	add	sp, fp, #0
   1178c:	e49db004 	pop	{fp}		; (ldr fp, [sp], #4)
   11790:	e12fff1e 	bx	lr

00011794 <vQueueDelete>:
   11794:	e92d4800 	push	{fp, lr}
   11798:	e28db004 	add	fp, sp, #4
   1179c:	e24dd008 	sub	sp, sp, #8
   117a0:	e50b0008 	str	r0, [fp, #-8]
   117a4:	e51b3008 	ldr	r3, [fp, #-8]
   117a8:	e5933000 	ldr	r3, [r3]
   117ac:	e1a00003 	mov	r0, r3
   117b0:	eb000a13 	bl	14004 <vPortFree>
   117b4:	e51b0008 	ldr	r0, [fp, #-8]
   117b8:	eb000a11 	bl	14004 <vPortFree>
   117bc:	e320f000 	nop	{0}
   117c0:	e24bd004 	sub	sp, fp, #4
   117c4:	e8bd8800 	pop	{fp, pc}

000117c8 <prvCopyDataToQueue>:
   117c8:	e92d4800 	push	{fp, lr}
   117cc:	e28db004 	add	fp, sp, #4
   117d0:	e24dd010 	sub	sp, sp, #16
   117d4:	e50b0008 	str	r0, [fp, #-8]
   117d8:	e50b100c 	str	r1, [fp, #-12]
   117dc:	e50b2010 	str	r2, [fp, #-16]
   117e0:	e51b3008 	ldr	r3, [fp, #-8]
   117e4:	e5933040 	ldr	r3, [r3, #64]	; 0x40
   117e8:	e3530000 	cmp	r3, #0
   117ec:	0a000038 	beq	118d4 <prvCopyDataToQueue+0x10c>
   117f0:	e51b3010 	ldr	r3, [fp, #-16]
   117f4:	e3530000 	cmp	r3, #0
   117f8:	1a000018 	bne	11860 <prvCopyDataToQueue+0x98>
   117fc:	e51b3008 	ldr	r3, [fp, #-8]
   11800:	e5930008 	ldr	r0, [r3, #8]
   11804:	e51b3008 	ldr	r3, [fp, #-8]
   11808:	e5933040 	ldr	r3, [r3, #64]	; 0x40
   1180c:	e1a02003 	mov	r2, r3
   11810:	e51b100c 	ldr	r1, [fp, #-12]
   11814:	eb000b0a 	bl	14444 <memcpy>
   11818:	e51b3008 	ldr	r3, [fp, #-8]
   1181c:	e5932008 	ldr	r2, [r3, #8]
   11820:	e51b3008 	ldr	r3, [fp, #-8]
   11824:	e5933040 	ldr	r3, [r3, #64]	; 0x40
   11828:	e0822003 	add	r2, r2, r3
   1182c:	e51b3008 	ldr	r3, [fp, #-8]
   11830:	e5832008 	str	r2, [r3, #8]
   11834:	e51b3008 	ldr	r3, [fp, #-8]
   11838:	e5932008 	ldr	r2, [r3, #8]
   1183c:	e51b3008 	ldr	r3, [fp, #-8]
   11840:	e5933004 	ldr	r3, [r3, #4]
   11844:	e1520003 	cmp	r2, r3
   11848:	3a000021 	bcc	118d4 <prvCopyDataToQueue+0x10c>
   1184c:	e51b3008 	ldr	r3, [fp, #-8]
   11850:	e5932000 	ldr	r2, [r3]
   11854:	e51b3008 	ldr	r3, [fp, #-8]
   11858:	e5832008 	str	r2, [r3, #8]
   1185c:	ea00001c 	b	118d4 <prvCopyDataToQueue+0x10c>
   11860:	e51b3008 	ldr	r3, [fp, #-8]
   11864:	e593000c 	ldr	r0, [r3, #12]
   11868:	e51b3008 	ldr	r3, [fp, #-8]
   1186c:	e5933040 	ldr	r3, [r3, #64]	; 0x40
   11870:	e1a02003 	mov	r2, r3
   11874:	e51b100c 	ldr	r1, [fp, #-12]
   11878:	eb000af1 	bl	14444 <memcpy>
   1187c:	e51b3008 	ldr	r3, [fp, #-8]
   11880:	e593200c 	ldr	r2, [r3, #12]
   11884:	e51b3008 	ldr	r3, [fp, #-8]
   11888:	e5933040 	ldr	r3, [r3, #64]	; 0x40
   1188c:	e2633000 	rsb	r3, r3, #0
   11890:	e0822003 	add	r2, r2, r3
   11894:	e51b3008 	ldr	r3, [fp, #-8]
   11898:	e583200c 	str	r2, [r3, #12]
   1189c:	e51b3008 	ldr	r3, [fp, #-8]
   118a0:	e593200c 	ldr	r2, [r3, #12]
   118a4:	e51b3008 	ldr	r3, [fp, #-8]
   118a8:	e5933000 	ldr	r3, [r3]
   118ac:	e1520003 	cmp	r2, r3
   118b0:	2a000007 	bcs	118d4 <prvCopyDataToQueue+0x10c>
   118b4:	e51b3008 	ldr	r3, [fp, #-8]
   118b8:	e5932004 	ldr	r2, [r3, #4]
   118bc:	e51b3008 	ldr	r3, [fp, #-8]
   118c0:	e5933040 	ldr	r3, [r3, #64]	; 0x40
   118c4:	e2633000 	rsb	r3, r3, #0
   118c8:	e0822003 	add	r2, r2, r3
   118cc:	e51b3008 	ldr	r3, [fp, #-8]
   118d0:	e583200c 	str	r2, [r3, #12]
   118d4:	e51b3008 	ldr	r3, [fp, #-8]
   118d8:	e5933038 	ldr	r3, [r3, #56]	; 0x38
   118dc:	e2832001 	add	r2, r3, #1
   118e0:	e51b3008 	ldr	r3, [fp, #-8]
   118e4:	e5832038 	str	r2, [r3, #56]	; 0x38
   118e8:	e320f000 	nop	{0}
   118ec:	e24bd004 	sub	sp, fp, #4
   118f0:	e8bd8800 	pop	{fp, pc}

000118f4 <prvCopyDataFromQueue>:
   118f4:	e92d4800 	push	{fp, lr}
   118f8:	e28db004 	add	fp, sp, #4
   118fc:	e24dd008 	sub	sp, sp, #8
   11900:	e50b0008 	str	r0, [fp, #-8]
   11904:	e50b100c 	str	r1, [fp, #-12]
   11908:	e51b3008 	ldr	r3, [fp, #-8]
   1190c:	e5933000 	ldr	r3, [r3]
   11910:	e3530000 	cmp	r3, #0
   11914:	0a000017 	beq	11978 <prvCopyDataFromQueue+0x84>
   11918:	e51b3008 	ldr	r3, [fp, #-8]
   1191c:	e593200c 	ldr	r2, [r3, #12]
   11920:	e51b3008 	ldr	r3, [fp, #-8]
   11924:	e5933040 	ldr	r3, [r3, #64]	; 0x40
   11928:	e0822003 	add	r2, r2, r3
   1192c:	e51b3008 	ldr	r3, [fp, #-8]
   11930:	e583200c 	str	r2, [r3, #12]
   11934:	e51b3008 	ldr	r3, [fp, #-8]
   11938:	e593200c 	ldr	r2, [r3, #12]
   1193c:	e51b3008 	ldr	r3, [fp, #-8]
   11940:	e5933004 	ldr	r3, [r3, #4]
   11944:	e1520003 	cmp	r2, r3
   11948:	3a000003 	bcc	1195c <prvCopyDataFromQueue+0x68>
   1194c:	e51b3008 	ldr	r3, [fp, #-8]
   11950:	e5932000 	ldr	r2, [r3]
   11954:	e51b3008 	ldr	r3, [fp, #-8]
   11958:	e583200c 	str	r2, [r3, #12]
   1195c:	e51b3008 	ldr	r3, [fp, #-8]
   11960:	e593100c 	ldr	r1, [r3, #12]
   11964:	e51b3008 	ldr	r3, [fp, #-8]
   11968:	e5933040 	ldr	r3, [r3, #64]	; 0x40
   1196c:	e1a02003 	mov	r2, r3
   11970:	e51b000c 	ldr	r0, [fp, #-12]
   11974:	eb000ab2 	bl	14444 <memcpy>
   11978:	e320f000 	nop	{0}
   1197c:	e24bd004 	sub	sp, fp, #4
   11980:	e8bd8800 	pop	{fp, pc}

00011984 <prvUnlockQueue>:
   11984:	e92d4800 	push	{fp, lr}
   11988:	e28db004 	add	fp, sp, #4
   1198c:	e24dd008 	sub	sp, sp, #8
   11990:	e50b0008 	str	r0, [fp, #-8]
   11994:	ebfffae9 	bl	10540 <vPortEnterCritical>
   11998:	ea000010 	b	119e0 <prvUnlockQueue+0x5c>
   1199c:	e51b3008 	ldr	r3, [fp, #-8]
   119a0:	e5933024 	ldr	r3, [r3, #36]	; 0x24
   119a4:	e3530000 	cmp	r3, #0
   119a8:	0a000011 	beq	119f4 <prvUnlockQueue+0x70>
   119ac:	e51b3008 	ldr	r3, [fp, #-8]
   119b0:	e2833024 	add	r3, r3, #36	; 0x24
   119b4:	e1a00003 	mov	r0, r3
   119b8:	eb000520 	bl	12e40 <xTaskRemoveFromEventList>
   119bc:	e1a03000 	mov	r3, r0
   119c0:	e3530000 	cmp	r3, #0
   119c4:	0a000000 	beq	119cc <prvUnlockQueue+0x48>
   119c8:	eb0005b1 	bl	13094 <vTaskMissedYield>
   119cc:	e51b3008 	ldr	r3, [fp, #-8]
   119d0:	e5933048 	ldr	r3, [r3, #72]	; 0x48
   119d4:	e2432001 	sub	r2, r3, #1
   119d8:	e51b3008 	ldr	r3, [fp, #-8]
   119dc:	e5832048 	str	r2, [r3, #72]	; 0x48
   119e0:	e51b3008 	ldr	r3, [fp, #-8]
   119e4:	e5933048 	ldr	r3, [r3, #72]	; 0x48
   119e8:	e3530000 	cmp	r3, #0
   119ec:	caffffea 	bgt	1199c <prvUnlockQueue+0x18>
   119f0:	ea000000 	b	119f8 <prvUnlockQueue+0x74>
   119f4:	e320f000 	nop	{0}
   119f8:	e51b3008 	ldr	r3, [fp, #-8]
   119fc:	e3e02000 	mvn	r2, #0
   11a00:	e5832048 	str	r2, [r3, #72]	; 0x48
   11a04:	ebfffade 	bl	10584 <vPortExitCritical>
   11a08:	ebfffacc 	bl	10540 <vPortEnterCritical>
   11a0c:	ea000010 	b	11a54 <prvUnlockQueue+0xd0>
   11a10:	e51b3008 	ldr	r3, [fp, #-8]
   11a14:	e5933010 	ldr	r3, [r3, #16]
   11a18:	e3530000 	cmp	r3, #0
   11a1c:	0a000011 	beq	11a68 <prvUnlockQueue+0xe4>
   11a20:	e51b3008 	ldr	r3, [fp, #-8]
   11a24:	e2833010 	add	r3, r3, #16
   11a28:	e1a00003 	mov	r0, r3
   11a2c:	eb000503 	bl	12e40 <xTaskRemoveFromEventList>
   11a30:	e1a03000 	mov	r3, r0
   11a34:	e3530000 	cmp	r3, #0
   11a38:	0a000000 	beq	11a40 <prvUnlockQueue+0xbc>
   11a3c:	eb000594 	bl	13094 <vTaskMissedYield>
   11a40:	e51b3008 	ldr	r3, [fp, #-8]
   11a44:	e5933044 	ldr	r3, [r3, #68]	; 0x44
   11a48:	e2432001 	sub	r2, r3, #1
   11a4c:	e51b3008 	ldr	r3, [fp, #-8]
   11a50:	e5832044 	str	r2, [r3, #68]	; 0x44
   11a54:	e51b3008 	ldr	r3, [fp, #-8]
   11a58:	e5933044 	ldr	r3, [r3, #68]	; 0x44
   11a5c:	e3530000 	cmp	r3, #0
   11a60:	caffffea 	bgt	11a10 <prvUnlockQueue+0x8c>
   11a64:	ea000000 	b	11a6c <prvUnlockQueue+0xe8>
   11a68:	e320f000 	nop	{0}
   11a6c:	e51b3008 	ldr	r3, [fp, #-8]
   11a70:	e3e02000 	mvn	r2, #0
   11a74:	e5832044 	str	r2, [r3, #68]	; 0x44
   11a78:	ebfffac1 	bl	10584 <vPortExitCritical>
   11a7c:	e320f000 	nop	{0}
   11a80:	e24bd004 	sub	sp, fp, #4
   11a84:	e8bd8800 	pop	{fp, pc}

00011a88 <prvIsQueueEmpty>:
   11a88:	e92d4800 	push	{fp, lr}
   11a8c:	e28db004 	add	fp, sp, #4
   11a90:	e24dd010 	sub	sp, sp, #16
   11a94:	e50b0010 	str	r0, [fp, #-16]
   11a98:	ebfffaa8 	bl	10540 <vPortEnterCritical>
   11a9c:	e51b3010 	ldr	r3, [fp, #-16]
   11aa0:	e5933038 	ldr	r3, [r3, #56]	; 0x38
   11aa4:	e3530000 	cmp	r3, #0
   11aa8:	03a03001 	moveq	r3, #1
   11aac:	13a03000 	movne	r3, #0
   11ab0:	e6ef3073 	uxtb	r3, r3
   11ab4:	e50b3008 	str	r3, [fp, #-8]
   11ab8:	ebfffab1 	bl	10584 <vPortExitCritical>
   11abc:	e51b3008 	ldr	r3, [fp, #-8]
   11ac0:	e1a00003 	mov	r0, r3
   11ac4:	e24bd004 	sub	sp, fp, #4
   11ac8:	e8bd8800 	pop	{fp, pc}

00011acc <xQueueIsQueueEmptyFromISR>:
   11acc:	e52db004 	push	{fp}		; (str fp, [sp, #-4]!)
   11ad0:	e28db000 	add	fp, sp, #0
   11ad4:	e24dd014 	sub	sp, sp, #20
   11ad8:	e50b0010 	str	r0, [fp, #-16]
   11adc:	e51b3010 	ldr	r3, [fp, #-16]
   11ae0:	e5933038 	ldr	r3, [r3, #56]	; 0x38
   11ae4:	e3530000 	cmp	r3, #0
   11ae8:	03a03001 	moveq	r3, #1
   11aec:	13a03000 	movne	r3, #0
   11af0:	e6ef3073 	uxtb	r3, r3
   11af4:	e50b3008 	str	r3, [fp, #-8]
   11af8:	e51b3008 	ldr	r3, [fp, #-8]
   11afc:	e1a00003 	mov	r0, r3
   11b00:	e28bd000 	add	sp, fp, #0
   11b04:	e49db004 	pop	{fp}		; (ldr fp, [sp], #4)
   11b08:	e12fff1e 	bx	lr

00011b0c <prvIsQueueFull>:
   11b0c:	e92d4800 	push	{fp, lr}
   11b10:	e28db004 	add	fp, sp, #4
   11b14:	e24dd010 	sub	sp, sp, #16
   11b18:	e50b0010 	str	r0, [fp, #-16]
   11b1c:	ebfffa87 	bl	10540 <vPortEnterCritical>
   11b20:	e51b3010 	ldr	r3, [fp, #-16]
   11b24:	e5932038 	ldr	r2, [r3, #56]	; 0x38
   11b28:	e51b3010 	ldr	r3, [fp, #-16]
   11b2c:	e593303c 	ldr	r3, [r3, #60]	; 0x3c
   11b30:	e1520003 	cmp	r2, r3
   11b34:	03a03001 	moveq	r3, #1
   11b38:	13a03000 	movne	r3, #0
   11b3c:	e6ef3073 	uxtb	r3, r3
   11b40:	e50b3008 	str	r3, [fp, #-8]
   11b44:	ebfffa8e 	bl	10584 <vPortExitCritical>
   11b48:	e51b3008 	ldr	r3, [fp, #-8]
   11b4c:	e1a00003 	mov	r0, r3
   11b50:	e24bd004 	sub	sp, fp, #4
   11b54:	e8bd8800 	pop	{fp, pc}

00011b58 <xQueueIsQueueFullFromISR>:
   11b58:	e52db004 	push	{fp}		; (str fp, [sp, #-4]!)
   11b5c:	e28db000 	add	fp, sp, #0
   11b60:	e24dd014 	sub	sp, sp, #20
   11b64:	e50b0010 	str	r0, [fp, #-16]
   11b68:	e51b3010 	ldr	r3, [fp, #-16]
   11b6c:	e5932038 	ldr	r2, [r3, #56]	; 0x38
   11b70:	e51b3010 	ldr	r3, [fp, #-16]
   11b74:	e593303c 	ldr	r3, [r3, #60]	; 0x3c
   11b78:	e1520003 	cmp	r2, r3
   11b7c:	03a03001 	moveq	r3, #1
   11b80:	13a03000 	movne	r3, #0
   11b84:	e6ef3073 	uxtb	r3, r3
   11b88:	e50b3008 	str	r3, [fp, #-8]
   11b8c:	e51b3008 	ldr	r3, [fp, #-8]
   11b90:	e1a00003 	mov	r0, r3
   11b94:	e28bd000 	add	sp, fp, #0
   11b98:	e49db004 	pop	{fp}		; (ldr fp, [sp], #4)
   11b9c:	e12fff1e 	bx	lr

00011ba0 <xTaskGenericCreate>:
   11ba0:	e92d4800 	push	{fp, lr}
   11ba4:	e28db004 	add	fp, sp, #4
   11ba8:	e24dd028 	sub	sp, sp, #40	; 0x28
   11bac:	e50b0018 	str	r0, [fp, #-24]	; 0xffffffe8
   11bb0:	e50b101c 	str	r1, [fp, #-28]	; 0xffffffe4
   11bb4:	e50b3024 	str	r3, [fp, #-36]	; 0xffffffdc
   11bb8:	e1a03002 	mov	r3, r2
   11bbc:	e14b31be 	strh	r3, [fp, #-30]	; 0xffffffe2
   11bc0:	e15b31be 	ldrh	r3, [fp, #-30]	; 0xffffffe2
   11bc4:	e59b100c 	ldr	r1, [fp, #12]
   11bc8:	e1a00003 	mov	r0, r3
   11bcc:	eb000603 	bl	133e0 <prvAllocateTCBAndStack>
   11bd0:	e50b000c 	str	r0, [fp, #-12]
   11bd4:	e51b300c 	ldr	r3, [fp, #-12]
   11bd8:	e3530000 	cmp	r3, #0
   11bdc:	0a000067 	beq	11d80 <xTaskGenericCreate+0x1e0>
   11be0:	e51b300c 	ldr	r3, [fp, #-12]
   11be4:	e5932030 	ldr	r2, [r3, #48]	; 0x30
   11be8:	e15b31be 	ldrh	r3, [fp, #-30]	; 0xffffffe2
   11bec:	e2433107 	sub	r3, r3, #-1073741823	; 0xc0000001
   11bf0:	e1a03103 	lsl	r3, r3, #2
   11bf4:	e0823003 	add	r3, r2, r3
   11bf8:	e50b3010 	str	r3, [fp, #-16]
   11bfc:	e51b3010 	ldr	r3, [fp, #-16]
   11c00:	e3c33007 	bic	r3, r3, #7
   11c04:	e50b3010 	str	r3, [fp, #-16]
   11c08:	e15b31be 	ldrh	r3, [fp, #-30]	; 0xffffffe2
   11c0c:	e58d3000 	str	r3, [sp]
   11c10:	e59b3010 	ldr	r3, [fp, #16]
   11c14:	e59b2004 	ldr	r2, [fp, #4]
   11c18:	e51b101c 	ldr	r1, [fp, #-28]	; 0xffffffe4
   11c1c:	e51b000c 	ldr	r0, [fp, #-12]
   11c20:	eb000531 	bl	130ec <prvInitialiseTCBVariables>
   11c24:	e51b2024 	ldr	r2, [fp, #-36]	; 0xffffffdc
   11c28:	e51b1018 	ldr	r1, [fp, #-24]	; 0xffffffe8
   11c2c:	e51b0010 	ldr	r0, [fp, #-16]
   11c30:	ebfff8f2 	bl	10000 <pxPortInitialiseStack>
   11c34:	e1a02000 	mov	r2, r0
   11c38:	e51b300c 	ldr	r3, [fp, #-12]
   11c3c:	e5832000 	str	r2, [r3]
   11c40:	e59b3008 	ldr	r3, [fp, #8]
   11c44:	e3530000 	cmp	r3, #0
   11c48:	0a000002 	beq	11c58 <xTaskGenericCreate+0xb8>
   11c4c:	e59b3008 	ldr	r3, [fp, #8]
   11c50:	e51b200c 	ldr	r2, [fp, #-12]
   11c54:	e5832000 	str	r2, [r3]
   11c58:	ebfffa38 	bl	10540 <vPortEnterCritical>
   11c5c:	e59f316c 	ldr	r3, [pc, #364]	; 11dd0 <xTaskGenericCreate+0x230>
   11c60:	e5933000 	ldr	r3, [r3]
   11c64:	e2833001 	add	r3, r3, #1
   11c68:	e59f2160 	ldr	r2, [pc, #352]	; 11dd0 <xTaskGenericCreate+0x230>
   11c6c:	e5823000 	str	r3, [r2]
   11c70:	e59f315c 	ldr	r3, [pc, #348]	; 11dd4 <xTaskGenericCreate+0x234>
   11c74:	e5933000 	ldr	r3, [r3]
   11c78:	e3530000 	cmp	r3, #0
   11c7c:	1a000008 	bne	11ca4 <xTaskGenericCreate+0x104>
   11c80:	e59f214c 	ldr	r2, [pc, #332]	; 11dd4 <xTaskGenericCreate+0x234>
   11c84:	e51b300c 	ldr	r3, [fp, #-12]
   11c88:	e5823000 	str	r3, [r2]
   11c8c:	e59f313c 	ldr	r3, [pc, #316]	; 11dd0 <xTaskGenericCreate+0x230>
   11c90:	e5933000 	ldr	r3, [r3]
   11c94:	e3530001 	cmp	r3, #1
   11c98:	1a00000e 	bne	11cd8 <xTaskGenericCreate+0x138>
   11c9c:	eb000542 	bl	131ac <prvInitialiseTaskLists>
   11ca0:	ea00000c 	b	11cd8 <xTaskGenericCreate+0x138>
   11ca4:	e59f312c 	ldr	r3, [pc, #300]	; 11dd8 <xTaskGenericCreate+0x238>
   11ca8:	e5933000 	ldr	r3, [r3]
   11cac:	e3530000 	cmp	r3, #0
   11cb0:	1a000008 	bne	11cd8 <xTaskGenericCreate+0x138>
   11cb4:	e59f3118 	ldr	r3, [pc, #280]	; 11dd4 <xTaskGenericCreate+0x234>
   11cb8:	e5933000 	ldr	r3, [r3]
   11cbc:	e593302c 	ldr	r3, [r3, #44]	; 0x2c
   11cc0:	e59b2004 	ldr	r2, [fp, #4]
   11cc4:	e1520003 	cmp	r2, r3
   11cc8:	3a000002 	bcc	11cd8 <xTaskGenericCreate+0x138>
   11ccc:	e59f2100 	ldr	r2, [pc, #256]	; 11dd4 <xTaskGenericCreate+0x234>
   11cd0:	e51b300c 	ldr	r3, [fp, #-12]
   11cd4:	e5823000 	str	r3, [r2]
   11cd8:	e51b300c 	ldr	r3, [fp, #-12]
   11cdc:	e593202c 	ldr	r2, [r3, #44]	; 0x2c
   11ce0:	e59f30f4 	ldr	r3, [pc, #244]	; 11ddc <xTaskGenericCreate+0x23c>
   11ce4:	e5933000 	ldr	r3, [r3]
   11ce8:	e1520003 	cmp	r2, r3
   11cec:	9a000003 	bls	11d00 <xTaskGenericCreate+0x160>
   11cf0:	e51b300c 	ldr	r3, [fp, #-12]
   11cf4:	e593302c 	ldr	r3, [r3, #44]	; 0x2c
   11cf8:	e59f20dc 	ldr	r2, [pc, #220]	; 11ddc <xTaskGenericCreate+0x23c>
   11cfc:	e5823000 	str	r3, [r2]
   11d00:	e59f30d8 	ldr	r3, [pc, #216]	; 11de0 <xTaskGenericCreate+0x240>
   11d04:	e5933000 	ldr	r3, [r3]
   11d08:	e2833001 	add	r3, r3, #1
   11d0c:	e59f20cc 	ldr	r2, [pc, #204]	; 11de0 <xTaskGenericCreate+0x240>
   11d10:	e5823000 	str	r3, [r2]
   11d14:	e51b300c 	ldr	r3, [fp, #-12]
   11d18:	e593202c 	ldr	r2, [r3, #44]	; 0x2c
   11d1c:	e59f30c0 	ldr	r3, [pc, #192]	; 11de4 <xTaskGenericCreate+0x244>
   11d20:	e5933000 	ldr	r3, [r3]
   11d24:	e1520003 	cmp	r2, r3
   11d28:	9a000003 	bls	11d3c <xTaskGenericCreate+0x19c>
   11d2c:	e51b300c 	ldr	r3, [fp, #-12]
   11d30:	e593302c 	ldr	r3, [r3, #44]	; 0x2c
   11d34:	e59f20a8 	ldr	r2, [pc, #168]	; 11de4 <xTaskGenericCreate+0x244>
   11d38:	e5823000 	str	r3, [r2]
   11d3c:	e51b300c 	ldr	r3, [fp, #-12]
   11d40:	e593202c 	ldr	r2, [r3, #44]	; 0x2c
   11d44:	e1a03002 	mov	r3, r2
   11d48:	e1a03103 	lsl	r3, r3, #2
   11d4c:	e0833002 	add	r3, r3, r2
   11d50:	e1a03103 	lsl	r3, r3, #2
   11d54:	e59f208c 	ldr	r2, [pc, #140]	; 11de8 <xTaskGenericCreate+0x248>
   11d58:	e0832002 	add	r2, r3, r2
   11d5c:	e51b300c 	ldr	r3, [fp, #-12]
   11d60:	e2833004 	add	r3, r3, #4
   11d64:	e1a01003 	mov	r1, r3
   11d68:	e1a00002 	mov	r0, r2
   11d6c:	ebfffc1d 	bl	10de8 <vListInsertEnd>
   11d70:	e3a03001 	mov	r3, #1
   11d74:	e50b3008 	str	r3, [fp, #-8]
   11d78:	ebfffa01 	bl	10584 <vPortExitCritical>
   11d7c:	ea000001 	b	11d88 <xTaskGenericCreate+0x1e8>
   11d80:	e3e03000 	mvn	r3, #0
   11d84:	e50b3008 	str	r3, [fp, #-8]
   11d88:	e51b3008 	ldr	r3, [fp, #-8]
   11d8c:	e3530001 	cmp	r3, #1
   11d90:	1a00000a 	bne	11dc0 <xTaskGenericCreate+0x220>
   11d94:	e59f303c 	ldr	r3, [pc, #60]	; 11dd8 <xTaskGenericCreate+0x238>
   11d98:	e5933000 	ldr	r3, [r3]
   11d9c:	e3530000 	cmp	r3, #0
   11da0:	0a000006 	beq	11dc0 <xTaskGenericCreate+0x220>
   11da4:	e59f3028 	ldr	r3, [pc, #40]	; 11dd4 <xTaskGenericCreate+0x234>
   11da8:	e5933000 	ldr	r3, [r3]
   11dac:	e593302c 	ldr	r3, [r3, #44]	; 0x2c
   11db0:	e59b2004 	ldr	r2, [fp, #4]
   11db4:	e1520003 	cmp	r2, r3
   11db8:	9a000000 	bls	11dc0 <xTaskGenericCreate+0x220>
   11dbc:	ef000000 	svc	0x00000000
   11dc0:	e51b3008 	ldr	r3, [fp, #-8]
   11dc4:	e1a00003 	mov	r0, r3
   11dc8:	e24bd004 	sub	sp, fp, #4
   11dcc:	e8bd8800 	pop	{fp, pc}
   11dd0:	000148b4 			; <UNDEFINED> instruction: 0x000148b4
   11dd4:	000147dc 	ldrdeq	r4, [r1], -ip
   11dd8:	000148c4 	andeq	r4, r1, r4, asr #17
   11ddc:	000148bc 			; <UNDEFINED> instruction: 0x000148bc
   11de0:	000148d8 	ldrdeq	r4, [r1], -r8
   11de4:	000148c0 	andeq	r4, r1, r0, asr #17
   11de8:	000147e0 	andeq	r4, r1, r0, ror #15

00011dec <vTaskDelete>:
   11dec:	e92d4800 	push	{fp, lr}
   11df0:	e28db004 	add	fp, sp, #4
   11df4:	e24dd010 	sub	sp, sp, #16
   11df8:	e50b0010 	str	r0, [fp, #-16]
   11dfc:	ebfff9cf 	bl	10540 <vPortEnterCritical>
   11e00:	e59f30d0 	ldr	r3, [pc, #208]	; 11ed8 <vTaskDelete+0xec>
   11e04:	e5933000 	ldr	r3, [r3]
   11e08:	e51b2010 	ldr	r2, [fp, #-16]
   11e0c:	e1520003 	cmp	r2, r3
   11e10:	1a000001 	bne	11e1c <vTaskDelete+0x30>
   11e14:	e3a03000 	mov	r3, #0
   11e18:	e50b3010 	str	r3, [fp, #-16]
   11e1c:	e51b3010 	ldr	r3, [fp, #-16]
   11e20:	e3530000 	cmp	r3, #0
   11e24:	1a000002 	bne	11e34 <vTaskDelete+0x48>
   11e28:	e59f30a8 	ldr	r3, [pc, #168]	; 11ed8 <vTaskDelete+0xec>
   11e2c:	e5933000 	ldr	r3, [r3]
   11e30:	ea000000 	b	11e38 <vTaskDelete+0x4c>
   11e34:	e51b3010 	ldr	r3, [fp, #-16]
   11e38:	e50b3008 	str	r3, [fp, #-8]
   11e3c:	e51b3008 	ldr	r3, [fp, #-8]
   11e40:	e2833004 	add	r3, r3, #4
   11e44:	e1a00003 	mov	r0, r3
   11e48:	ebfffc42 	bl	10f58 <vListRemove>
   11e4c:	e51b3008 	ldr	r3, [fp, #-8]
   11e50:	e5933028 	ldr	r3, [r3, #40]	; 0x28
   11e54:	e3530000 	cmp	r3, #0
   11e58:	0a000003 	beq	11e6c <vTaskDelete+0x80>
   11e5c:	e51b3008 	ldr	r3, [fp, #-8]
   11e60:	e2833018 	add	r3, r3, #24
   11e64:	e1a00003 	mov	r0, r3
   11e68:	ebfffc3a 	bl	10f58 <vListRemove>
   11e6c:	e51b3008 	ldr	r3, [fp, #-8]
   11e70:	e2833004 	add	r3, r3, #4
   11e74:	e1a01003 	mov	r1, r3
   11e78:	e59f005c 	ldr	r0, [pc, #92]	; 11edc <vTaskDelete+0xf0>
   11e7c:	ebfffbd9 	bl	10de8 <vListInsertEnd>
   11e80:	e59f3058 	ldr	r3, [pc, #88]	; 11ee0 <vTaskDelete+0xf4>
   11e84:	e5933000 	ldr	r3, [r3]
   11e88:	e2833001 	add	r3, r3, #1
   11e8c:	e59f204c 	ldr	r2, [pc, #76]	; 11ee0 <vTaskDelete+0xf4>
   11e90:	e5823000 	str	r3, [r2]
   11e94:	e59f3048 	ldr	r3, [pc, #72]	; 11ee4 <vTaskDelete+0xf8>
   11e98:	e5933000 	ldr	r3, [r3]
   11e9c:	e2833001 	add	r3, r3, #1
   11ea0:	e59f203c 	ldr	r2, [pc, #60]	; 11ee4 <vTaskDelete+0xf8>
   11ea4:	e5823000 	str	r3, [r2]
   11ea8:	ebfff9b5 	bl	10584 <vPortExitCritical>
   11eac:	e59f3034 	ldr	r3, [pc, #52]	; 11ee8 <vTaskDelete+0xfc>
   11eb0:	e5933000 	ldr	r3, [r3]
   11eb4:	e3530000 	cmp	r3, #0
   11eb8:	0a000003 	beq	11ecc <vTaskDelete+0xe0>
   11ebc:	e51b3010 	ldr	r3, [fp, #-16]
   11ec0:	e3530000 	cmp	r3, #0
   11ec4:	1a000000 	bne	11ecc <vTaskDelete+0xe0>
   11ec8:	ef000000 	svc	0x00000000
   11ecc:	e320f000 	nop	{0}
   11ed0:	e24bd004 	sub	sp, fp, #4
   11ed4:	e8bd8800 	pop	{fp, pc}
   11ed8:	000147dc 	ldrdeq	r4, [r1], -ip
   11edc:	00014888 	andeq	r4, r1, r8, lsl #17
   11ee0:	0001489c 	muleq	r1, ip, r8
   11ee4:	000148d8 	ldrdeq	r4, [r1], -r8
   11ee8:	000148c4 	andeq	r4, r1, r4, asr #17

00011eec <vTaskDelayUntil>:
   11eec:	e92d4800 	push	{fp, lr}
   11ef0:	e28db004 	add	fp, sp, #4
   11ef4:	e24dd018 	sub	sp, sp, #24
   11ef8:	e50b0018 	str	r0, [fp, #-24]	; 0xffffffe8
   11efc:	e50b101c 	str	r1, [fp, #-28]	; 0xffffffe4
   11f00:	e3a03000 	mov	r3, #0
   11f04:	e50b3008 	str	r3, [fp, #-8]
   11f08:	eb0001f6 	bl	126e8 <vTaskSuspendAll>
   11f0c:	e51b3018 	ldr	r3, [fp, #-24]	; 0xffffffe8
   11f10:	e5933000 	ldr	r3, [r3]
   11f14:	e51b201c 	ldr	r2, [fp, #-28]	; 0xffffffe4
   11f18:	e0823003 	add	r3, r2, r3
   11f1c:	e50b300c 	str	r3, [fp, #-12]
   11f20:	e51b3018 	ldr	r3, [fp, #-24]	; 0xffffffe8
   11f24:	e5932000 	ldr	r2, [r3]
   11f28:	e59f30c4 	ldr	r3, [pc, #196]	; 11ff4 <vTaskDelayUntil+0x108>
   11f2c:	e5933000 	ldr	r3, [r3]
   11f30:	e1520003 	cmp	r2, r3
   11f34:	9a00000c 	bls	11f6c <vTaskDelayUntil+0x80>
   11f38:	e51b3018 	ldr	r3, [fp, #-24]	; 0xffffffe8
   11f3c:	e5933000 	ldr	r3, [r3]
   11f40:	e51b200c 	ldr	r2, [fp, #-12]
   11f44:	e1520003 	cmp	r2, r3
   11f48:	2a000013 	bcs	11f9c <vTaskDelayUntil+0xb0>
   11f4c:	e59f30a0 	ldr	r3, [pc, #160]	; 11ff4 <vTaskDelayUntil+0x108>
   11f50:	e5933000 	ldr	r3, [r3]
   11f54:	e51b200c 	ldr	r2, [fp, #-12]
   11f58:	e1520003 	cmp	r2, r3
   11f5c:	9a00000e 	bls	11f9c <vTaskDelayUntil+0xb0>
   11f60:	e3a03001 	mov	r3, #1
   11f64:	e50b3008 	str	r3, [fp, #-8]
   11f68:	ea00000b 	b	11f9c <vTaskDelayUntil+0xb0>
   11f6c:	e51b3018 	ldr	r3, [fp, #-24]	; 0xffffffe8
   11f70:	e5933000 	ldr	r3, [r3]
   11f74:	e51b200c 	ldr	r2, [fp, #-12]
   11f78:	e1520003 	cmp	r2, r3
   11f7c:	3a000004 	bcc	11f94 <vTaskDelayUntil+0xa8>
   11f80:	e59f306c 	ldr	r3, [pc, #108]	; 11ff4 <vTaskDelayUntil+0x108>
   11f84:	e5933000 	ldr	r3, [r3]
   11f88:	e51b200c 	ldr	r2, [fp, #-12]
   11f8c:	e1520003 	cmp	r2, r3
   11f90:	9a000001 	bls	11f9c <vTaskDelayUntil+0xb0>
   11f94:	e3a03001 	mov	r3, #1
   11f98:	e50b3008 	str	r3, [fp, #-8]
   11f9c:	e51b3018 	ldr	r3, [fp, #-24]	; 0xffffffe8
   11fa0:	e51b200c 	ldr	r2, [fp, #-12]
   11fa4:	e5832000 	str	r2, [r3]
   11fa8:	e51b3008 	ldr	r3, [fp, #-8]
   11fac:	e3530000 	cmp	r3, #0
   11fb0:	0a000006 	beq	11fd0 <vTaskDelayUntil+0xe4>
   11fb4:	e59f303c 	ldr	r3, [pc, #60]	; 11ff8 <vTaskDelayUntil+0x10c>
   11fb8:	e5933000 	ldr	r3, [r3]
   11fbc:	e2833004 	add	r3, r3, #4
   11fc0:	e1a00003 	mov	r0, r3
   11fc4:	ebfffbe3 	bl	10f58 <vListRemove>
   11fc8:	e51b000c 	ldr	r0, [fp, #-12]
   11fcc:	eb0004d5 	bl	13328 <prvAddCurrentTaskToDelayedList>
   11fd0:	eb0001d0 	bl	12718 <xTaskResumeAll>
   11fd4:	e50b0010 	str	r0, [fp, #-16]
   11fd8:	e51b3010 	ldr	r3, [fp, #-16]
   11fdc:	e3530000 	cmp	r3, #0
   11fe0:	1a000000 	bne	11fe8 <vTaskDelayUntil+0xfc>
   11fe4:	ef000000 	svc	0x00000000
   11fe8:	e320f000 	nop	{0}
   11fec:	e24bd004 	sub	sp, fp, #4
   11ff0:	e8bd8800 	pop	{fp, pc}
   11ff4:	000148b8 			; <UNDEFINED> instruction: 0x000148b8
   11ff8:	000147dc 	ldrdeq	r4, [r1], -ip

00011ffc <vTaskDelay>:
   11ffc:	e92d4800 	push	{fp, lr}
   12000:	e28db004 	add	fp, sp, #4
   12004:	e24dd010 	sub	sp, sp, #16
   12008:	e50b0010 	str	r0, [fp, #-16]
   1200c:	e3a03000 	mov	r3, #0
   12010:	e50b3008 	str	r3, [fp, #-8]
   12014:	e51b3010 	ldr	r3, [fp, #-16]
   12018:	e3530000 	cmp	r3, #0
   1201c:	0a00000e 	beq	1205c <vTaskDelay+0x60>
   12020:	eb0001b0 	bl	126e8 <vTaskSuspendAll>
   12024:	e59f304c 	ldr	r3, [pc, #76]	; 12078 <vTaskDelay+0x7c>
   12028:	e5933000 	ldr	r3, [r3]
   1202c:	e51b2010 	ldr	r2, [fp, #-16]
   12030:	e0823003 	add	r3, r2, r3
   12034:	e50b300c 	str	r3, [fp, #-12]
   12038:	e59f303c 	ldr	r3, [pc, #60]	; 1207c <vTaskDelay+0x80>
   1203c:	e5933000 	ldr	r3, [r3]
   12040:	e2833004 	add	r3, r3, #4
   12044:	e1a00003 	mov	r0, r3
   12048:	ebfffbc2 	bl	10f58 <vListRemove>
   1204c:	e51b000c 	ldr	r0, [fp, #-12]
   12050:	eb0004b4 	bl	13328 <prvAddCurrentTaskToDelayedList>
   12054:	eb0001af 	bl	12718 <xTaskResumeAll>
   12058:	e50b0008 	str	r0, [fp, #-8]
   1205c:	e51b3008 	ldr	r3, [fp, #-8]
   12060:	e3530000 	cmp	r3, #0
   12064:	1a000000 	bne	1206c <vTaskDelay+0x70>
   12068:	ef000000 	svc	0x00000000
   1206c:	e320f000 	nop	{0}
   12070:	e24bd004 	sub	sp, fp, #4
   12074:	e8bd8800 	pop	{fp, pc}
   12078:	000148b8 			; <UNDEFINED> instruction: 0x000148b8
   1207c:	000147dc 	ldrdeq	r4, [r1], -ip

00012080 <uxTaskPriorityGet>:
   12080:	e92d4800 	push	{fp, lr}
   12084:	e28db004 	add	fp, sp, #4
   12088:	e24dd010 	sub	sp, sp, #16
   1208c:	e50b0010 	str	r0, [fp, #-16]
   12090:	ebfff92a 	bl	10540 <vPortEnterCritical>
   12094:	e51b3010 	ldr	r3, [fp, #-16]
   12098:	e3530000 	cmp	r3, #0
   1209c:	1a000002 	bne	120ac <uxTaskPriorityGet+0x2c>
   120a0:	e59f302c 	ldr	r3, [pc, #44]	; 120d4 <uxTaskPriorityGet+0x54>
   120a4:	e5933000 	ldr	r3, [r3]
   120a8:	ea000000 	b	120b0 <uxTaskPriorityGet+0x30>
   120ac:	e51b3010 	ldr	r3, [fp, #-16]
   120b0:	e50b3008 	str	r3, [fp, #-8]
   120b4:	e51b3008 	ldr	r3, [fp, #-8]
   120b8:	e593302c 	ldr	r3, [r3, #44]	; 0x2c
   120bc:	e50b300c 	str	r3, [fp, #-12]
   120c0:	ebfff92f 	bl	10584 <vPortExitCritical>
   120c4:	e51b300c 	ldr	r3, [fp, #-12]
   120c8:	e1a00003 	mov	r0, r3
   120cc:	e24bd004 	sub	sp, fp, #4
   120d0:	e8bd8800 	pop	{fp, pc}
   120d4:	000147dc 	ldrdeq	r4, [r1], -ip

000120d8 <vTaskPrioritySet>:
   120d8:	e92d4800 	push	{fp, lr}
   120dc:	e28db004 	add	fp, sp, #4
   120e0:	e24dd018 	sub	sp, sp, #24
   120e4:	e50b0018 	str	r0, [fp, #-24]	; 0xffffffe8
   120e8:	e50b101c 	str	r1, [fp, #-28]	; 0xffffffe4
   120ec:	e3a03000 	mov	r3, #0
   120f0:	e50b3008 	str	r3, [fp, #-8]
   120f4:	e51b301c 	ldr	r3, [fp, #-28]	; 0xffffffe4
   120f8:	e3530004 	cmp	r3, #4
   120fc:	9a000001 	bls	12108 <vTaskPrioritySet+0x30>
   12100:	e3a03004 	mov	r3, #4
   12104:	e50b301c 	str	r3, [fp, #-28]	; 0xffffffe4
   12108:	ebfff90c 	bl	10540 <vPortEnterCritical>
   1210c:	e59f3160 	ldr	r3, [pc, #352]	; 12274 <vTaskPrioritySet+0x19c>
   12110:	e5933000 	ldr	r3, [r3]
   12114:	e51b2018 	ldr	r2, [fp, #-24]	; 0xffffffe8
   12118:	e1520003 	cmp	r2, r3
   1211c:	1a000001 	bne	12128 <vTaskPrioritySet+0x50>
   12120:	e3a03000 	mov	r3, #0
   12124:	e50b3018 	str	r3, [fp, #-24]	; 0xffffffe8
   12128:	e51b3018 	ldr	r3, [fp, #-24]	; 0xffffffe8
   1212c:	e3530000 	cmp	r3, #0
   12130:	1a000002 	bne	12140 <vTaskPrioritySet+0x68>
   12134:	e59f3138 	ldr	r3, [pc, #312]	; 12274 <vTaskPrioritySet+0x19c>
   12138:	e5933000 	ldr	r3, [r3]
   1213c:	ea000000 	b	12144 <vTaskPrioritySet+0x6c>
   12140:	e51b3018 	ldr	r3, [fp, #-24]	; 0xffffffe8
   12144:	e50b300c 	str	r3, [fp, #-12]
   12148:	e51b300c 	ldr	r3, [fp, #-12]
   1214c:	e593302c 	ldr	r3, [r3, #44]	; 0x2c
   12150:	e50b3010 	str	r3, [fp, #-16]
   12154:	e51b2010 	ldr	r2, [fp, #-16]
   12158:	e51b301c 	ldr	r3, [fp, #-28]	; 0xffffffe4
   1215c:	e1520003 	cmp	r2, r3
   12160:	0a00003f 	beq	12264 <vTaskPrioritySet+0x18c>
   12164:	e51b201c 	ldr	r2, [fp, #-28]	; 0xffffffe4
   12168:	e51b3010 	ldr	r3, [fp, #-16]
   1216c:	e1520003 	cmp	r2, r3
   12170:	9a000005 	bls	1218c <vTaskPrioritySet+0xb4>
   12174:	e51b3018 	ldr	r3, [fp, #-24]	; 0xffffffe8
   12178:	e3530000 	cmp	r3, #0
   1217c:	0a000007 	beq	121a0 <vTaskPrioritySet+0xc8>
   12180:	e3a03001 	mov	r3, #1
   12184:	e50b3008 	str	r3, [fp, #-8]
   12188:	ea000004 	b	121a0 <vTaskPrioritySet+0xc8>
   1218c:	e51b3018 	ldr	r3, [fp, #-24]	; 0xffffffe8
   12190:	e3530000 	cmp	r3, #0
   12194:	1a000001 	bne	121a0 <vTaskPrioritySet+0xc8>
   12198:	e3a03001 	mov	r3, #1
   1219c:	e50b3008 	str	r3, [fp, #-8]
   121a0:	e51b300c 	ldr	r3, [fp, #-12]
   121a4:	e51b201c 	ldr	r2, [fp, #-28]	; 0xffffffe4
   121a8:	e583202c 	str	r2, [r3, #44]	; 0x2c
   121ac:	e51b301c 	ldr	r3, [fp, #-28]	; 0xffffffe4
   121b0:	e2632005 	rsb	r2, r3, #5
   121b4:	e51b300c 	ldr	r3, [fp, #-12]
   121b8:	e5832018 	str	r2, [r3, #24]
   121bc:	e51b300c 	ldr	r3, [fp, #-12]
   121c0:	e5931014 	ldr	r1, [r3, #20]
   121c4:	e51b2010 	ldr	r2, [fp, #-16]
   121c8:	e1a03002 	mov	r3, r2
   121cc:	e1a03103 	lsl	r3, r3, #2
   121d0:	e0833002 	add	r3, r3, r2
   121d4:	e1a03103 	lsl	r3, r3, #2
   121d8:	e59f2098 	ldr	r2, [pc, #152]	; 12278 <vTaskPrioritySet+0x1a0>
   121dc:	e0833002 	add	r3, r3, r2
   121e0:	e1510003 	cmp	r1, r3
   121e4:	1a00001a 	bne	12254 <vTaskPrioritySet+0x17c>
   121e8:	e51b300c 	ldr	r3, [fp, #-12]
   121ec:	e2833004 	add	r3, r3, #4
   121f0:	e1a00003 	mov	r0, r3
   121f4:	ebfffb57 	bl	10f58 <vListRemove>
   121f8:	e51b300c 	ldr	r3, [fp, #-12]
   121fc:	e593202c 	ldr	r2, [r3, #44]	; 0x2c
   12200:	e59f3074 	ldr	r3, [pc, #116]	; 1227c <vTaskPrioritySet+0x1a4>
   12204:	e5933000 	ldr	r3, [r3]
   12208:	e1520003 	cmp	r2, r3
   1220c:	9a000003 	bls	12220 <vTaskPrioritySet+0x148>
   12210:	e51b300c 	ldr	r3, [fp, #-12]
   12214:	e593302c 	ldr	r3, [r3, #44]	; 0x2c
   12218:	e59f205c 	ldr	r2, [pc, #92]	; 1227c <vTaskPrioritySet+0x1a4>
   1221c:	e5823000 	str	r3, [r2]
   12220:	e51b300c 	ldr	r3, [fp, #-12]
   12224:	e593202c 	ldr	r2, [r3, #44]	; 0x2c
   12228:	e1a03002 	mov	r3, r2
   1222c:	e1a03103 	lsl	r3, r3, #2
   12230:	e0833002 	add	r3, r3, r2
   12234:	e1a03103 	lsl	r3, r3, #2
   12238:	e59f2038 	ldr	r2, [pc, #56]	; 12278 <vTaskPrioritySet+0x1a0>
   1223c:	e0832002 	add	r2, r3, r2
   12240:	e51b300c 	ldr	r3, [fp, #-12]
   12244:	e2833004 	add	r3, r3, #4
   12248:	e1a01003 	mov	r1, r3
   1224c:	e1a00002 	mov	r0, r2
   12250:	ebfffae4 	bl	10de8 <vListInsertEnd>
   12254:	e51b3008 	ldr	r3, [fp, #-8]
   12258:	e3530001 	cmp	r3, #1
   1225c:	1a000000 	bne	12264 <vTaskPrioritySet+0x18c>
   12260:	ef000000 	svc	0x00000000
   12264:	ebfff8c6 	bl	10584 <vPortExitCritical>
   12268:	e320f000 	nop	{0}
   1226c:	e24bd004 	sub	sp, fp, #4
   12270:	e8bd8800 	pop	{fp, pc}
   12274:	000147dc 	ldrdeq	r4, [r1], -ip
   12278:	000147e0 	andeq	r4, r1, r0, ror #15
   1227c:	000148c0 	andeq	r4, r1, r0, asr #17

00012280 <vTaskSuspend>:
   12280:	e92d4800 	push	{fp, lr}
   12284:	e28db004 	add	fp, sp, #4
   12288:	e24dd010 	sub	sp, sp, #16
   1228c:	e50b0010 	str	r0, [fp, #-16]
   12290:	ebfff8aa 	bl	10540 <vPortEnterCritical>
   12294:	e59f30d8 	ldr	r3, [pc, #216]	; 12374 <vTaskSuspend+0xf4>
   12298:	e5933000 	ldr	r3, [r3]
   1229c:	e51b2010 	ldr	r2, [fp, #-16]
   122a0:	e1520003 	cmp	r2, r3
   122a4:	1a000001 	bne	122b0 <vTaskSuspend+0x30>
   122a8:	e3a03000 	mov	r3, #0
   122ac:	e50b3010 	str	r3, [fp, #-16]
   122b0:	e51b3010 	ldr	r3, [fp, #-16]
   122b4:	e3530000 	cmp	r3, #0
   122b8:	1a000002 	bne	122c8 <vTaskSuspend+0x48>
   122bc:	e59f30b0 	ldr	r3, [pc, #176]	; 12374 <vTaskSuspend+0xf4>
   122c0:	e5933000 	ldr	r3, [r3]
   122c4:	ea000000 	b	122cc <vTaskSuspend+0x4c>
   122c8:	e51b3010 	ldr	r3, [fp, #-16]
   122cc:	e50b3008 	str	r3, [fp, #-8]
   122d0:	e51b3008 	ldr	r3, [fp, #-8]
   122d4:	e2833004 	add	r3, r3, #4
   122d8:	e1a00003 	mov	r0, r3
   122dc:	ebfffb1d 	bl	10f58 <vListRemove>
   122e0:	e51b3008 	ldr	r3, [fp, #-8]
   122e4:	e5933028 	ldr	r3, [r3, #40]	; 0x28
   122e8:	e3530000 	cmp	r3, #0
   122ec:	0a000003 	beq	12300 <vTaskSuspend+0x80>
   122f0:	e51b3008 	ldr	r3, [fp, #-8]
   122f4:	e2833018 	add	r3, r3, #24
   122f8:	e1a00003 	mov	r0, r3
   122fc:	ebfffb15 	bl	10f58 <vListRemove>
   12300:	e51b3008 	ldr	r3, [fp, #-8]
   12304:	e2833004 	add	r3, r3, #4
   12308:	e1a01003 	mov	r1, r3
   1230c:	e59f0064 	ldr	r0, [pc, #100]	; 12378 <vTaskSuspend+0xf8>
   12310:	ebfffab4 	bl	10de8 <vListInsertEnd>
   12314:	ebfff89a 	bl	10584 <vPortExitCritical>
   12318:	e51b3010 	ldr	r3, [fp, #-16]
   1231c:	e3530000 	cmp	r3, #0
   12320:	1a000010 	bne	12368 <vTaskSuspend+0xe8>
   12324:	e59f3050 	ldr	r3, [pc, #80]	; 1237c <vTaskSuspend+0xfc>
   12328:	e5933000 	ldr	r3, [r3]
   1232c:	e3530000 	cmp	r3, #0
   12330:	0a000001 	beq	1233c <vTaskSuspend+0xbc>
   12334:	ef000000 	svc	0x00000000
   12338:	ea00000a 	b	12368 <vTaskSuspend+0xe8>
   1233c:	e59f3034 	ldr	r3, [pc, #52]	; 12378 <vTaskSuspend+0xf8>
   12340:	e5932000 	ldr	r2, [r3]
   12344:	e59f3034 	ldr	r3, [pc, #52]	; 12380 <vTaskSuspend+0x100>
   12348:	e5933000 	ldr	r3, [r3]
   1234c:	e1520003 	cmp	r2, r3
   12350:	1a000003 	bne	12364 <vTaskSuspend+0xe4>
   12354:	e59f3018 	ldr	r3, [pc, #24]	; 12374 <vTaskSuspend+0xf4>
   12358:	e3a02000 	mov	r2, #0
   1235c:	e5832000 	str	r2, [r3]
   12360:	ea000000 	b	12368 <vTaskSuspend+0xe8>
   12364:	eb00024c 	bl	12c9c <vTaskSwitchContext>
   12368:	e320f000 	nop	{0}
   1236c:	e24bd004 	sub	sp, fp, #4
   12370:	e8bd8800 	pop	{fp, pc}
   12374:	000147dc 	ldrdeq	r4, [r1], -ip
   12378:	000148a0 	andeq	r4, r1, r0, lsr #17
   1237c:	000148c4 	andeq	r4, r1, r4, asr #17
   12380:	000148b4 			; <UNDEFINED> instruction: 0x000148b4

00012384 <xTaskIsTaskSuspended>:
   12384:	e52db004 	push	{fp}		; (str fp, [sp, #-4]!)
   12388:	e28db000 	add	fp, sp, #0
   1238c:	e24dd014 	sub	sp, sp, #20
   12390:	e50b0010 	str	r0, [fp, #-16]
   12394:	e3a03000 	mov	r3, #0
   12398:	e50b3008 	str	r3, [fp, #-8]
   1239c:	e51b3010 	ldr	r3, [fp, #-16]
   123a0:	e50b300c 	str	r3, [fp, #-12]
   123a4:	e51b300c 	ldr	r3, [fp, #-12]
   123a8:	e5933014 	ldr	r3, [r3, #20]
   123ac:	e59f2044 	ldr	r2, [pc, #68]	; 123f8 <xTaskIsTaskSuspended+0x74>
   123b0:	e1530002 	cmp	r3, r2
   123b4:	1a00000a 	bne	123e4 <xTaskIsTaskSuspended+0x60>
   123b8:	e51b300c 	ldr	r3, [fp, #-12]
   123bc:	e5933028 	ldr	r3, [r3, #40]	; 0x28
   123c0:	e59f2034 	ldr	r2, [pc, #52]	; 123fc <xTaskIsTaskSuspended+0x78>
   123c4:	e1530002 	cmp	r3, r2
   123c8:	0a000005 	beq	123e4 <xTaskIsTaskSuspended+0x60>
   123cc:	e51b300c 	ldr	r3, [fp, #-12]
   123d0:	e5933028 	ldr	r3, [r3, #40]	; 0x28
   123d4:	e3530000 	cmp	r3, #0
   123d8:	1a000001 	bne	123e4 <xTaskIsTaskSuspended+0x60>
   123dc:	e3a03001 	mov	r3, #1
   123e0:	e50b3008 	str	r3, [fp, #-8]
   123e4:	e51b3008 	ldr	r3, [fp, #-8]
   123e8:	e1a00003 	mov	r0, r3
   123ec:	e28bd000 	add	sp, fp, #0
   123f0:	e49db004 	pop	{fp}		; (ldr fp, [sp], #4)
   123f4:	e12fff1e 	bx	lr
   123f8:	000148a0 	andeq	r4, r1, r0, lsr #17
   123fc:	00014874 	andeq	r4, r1, r4, ror r8

00012400 <vTaskResume>:
   12400:	e92d4800 	push	{fp, lr}
   12404:	e28db004 	add	fp, sp, #4
   12408:	e24dd010 	sub	sp, sp, #16
   1240c:	e50b0010 	str	r0, [fp, #-16]
   12410:	e51b3010 	ldr	r3, [fp, #-16]
   12414:	e50b3008 	str	r3, [fp, #-8]
   12418:	e51b3008 	ldr	r3, [fp, #-8]
   1241c:	e3530000 	cmp	r3, #0
   12420:	0a00002e 	beq	124e0 <vTaskResume+0xe0>
   12424:	e59f30c0 	ldr	r3, [pc, #192]	; 124ec <vTaskResume+0xec>
   12428:	e5933000 	ldr	r3, [r3]
   1242c:	e51b2008 	ldr	r2, [fp, #-8]
   12430:	e1520003 	cmp	r2, r3
   12434:	0a000029 	beq	124e0 <vTaskResume+0xe0>
   12438:	ebfff840 	bl	10540 <vPortEnterCritical>
   1243c:	e51b0008 	ldr	r0, [fp, #-8]
   12440:	ebffffcf 	bl	12384 <xTaskIsTaskSuspended>
   12444:	e1a03000 	mov	r3, r0
   12448:	e3530001 	cmp	r3, #1
   1244c:	1a000022 	bne	124dc <vTaskResume+0xdc>
   12450:	e51b3008 	ldr	r3, [fp, #-8]
   12454:	e2833004 	add	r3, r3, #4
   12458:	e1a00003 	mov	r0, r3
   1245c:	ebfffabd 	bl	10f58 <vListRemove>
   12460:	e51b3008 	ldr	r3, [fp, #-8]
   12464:	e593202c 	ldr	r2, [r3, #44]	; 0x2c
   12468:	e59f3080 	ldr	r3, [pc, #128]	; 124f0 <vTaskResume+0xf0>
   1246c:	e5933000 	ldr	r3, [r3]
   12470:	e1520003 	cmp	r2, r3
   12474:	9a000003 	bls	12488 <vTaskResume+0x88>
   12478:	e51b3008 	ldr	r3, [fp, #-8]
   1247c:	e593302c 	ldr	r3, [r3, #44]	; 0x2c
   12480:	e59f2068 	ldr	r2, [pc, #104]	; 124f0 <vTaskResume+0xf0>
   12484:	e5823000 	str	r3, [r2]
   12488:	e51b3008 	ldr	r3, [fp, #-8]
   1248c:	e593202c 	ldr	r2, [r3, #44]	; 0x2c
   12490:	e1a03002 	mov	r3, r2
   12494:	e1a03103 	lsl	r3, r3, #2
   12498:	e0833002 	add	r3, r3, r2
   1249c:	e1a03103 	lsl	r3, r3, #2
   124a0:	e59f204c 	ldr	r2, [pc, #76]	; 124f4 <vTaskResume+0xf4>
   124a4:	e0832002 	add	r2, r3, r2
   124a8:	e51b3008 	ldr	r3, [fp, #-8]
   124ac:	e2833004 	add	r3, r3, #4
   124b0:	e1a01003 	mov	r1, r3
   124b4:	e1a00002 	mov	r0, r2
   124b8:	ebfffa4a 	bl	10de8 <vListInsertEnd>
   124bc:	e51b3008 	ldr	r3, [fp, #-8]
   124c0:	e593202c 	ldr	r2, [r3, #44]	; 0x2c
   124c4:	e59f3020 	ldr	r3, [pc, #32]	; 124ec <vTaskResume+0xec>
   124c8:	e5933000 	ldr	r3, [r3]
   124cc:	e593302c 	ldr	r3, [r3, #44]	; 0x2c
   124d0:	e1520003 	cmp	r2, r3
   124d4:	3a000000 	bcc	124dc <vTaskResume+0xdc>
   124d8:	ef000000 	svc	0x00000000
   124dc:	ebfff828 	bl	10584 <vPortExitCritical>
   124e0:	e320f000 	nop	{0}
   124e4:	e24bd004 	sub	sp, fp, #4
   124e8:	e8bd8800 	pop	{fp, pc}
   124ec:	000147dc 	ldrdeq	r4, [r1], -ip
   124f0:	000148c0 	andeq	r4, r1, r0, asr #17
   124f4:	000147e0 	andeq	r4, r1, r0, ror #15

000124f8 <xTaskResumeFromISR>:
   124f8:	e92d4800 	push	{fp, lr}
   124fc:	e28db004 	add	fp, sp, #4
   12500:	e24dd018 	sub	sp, sp, #24
   12504:	e50b0018 	str	r0, [fp, #-24]	; 0xffffffe8
   12508:	e3a03000 	mov	r3, #0
   1250c:	e50b3008 	str	r3, [fp, #-8]
   12510:	e51b3018 	ldr	r3, [fp, #-24]	; 0xffffffe8
   12514:	e50b300c 	str	r3, [fp, #-12]
   12518:	e3a03000 	mov	r3, #0
   1251c:	e50b3010 	str	r3, [fp, #-16]
   12520:	e51b000c 	ldr	r0, [fp, #-12]
   12524:	ebffff96 	bl	12384 <xTaskIsTaskSuspended>
   12528:	e1a03000 	mov	r3, r0
   1252c:	e3530001 	cmp	r3, #1
   12530:	1a00002e 	bne	125f0 <xTaskResumeFromISR+0xf8>
   12534:	e59f30c4 	ldr	r3, [pc, #196]	; 12600 <xTaskResumeFromISR+0x108>
   12538:	e5933000 	ldr	r3, [r3]
   1253c:	e3530000 	cmp	r3, #0
   12540:	1a000025 	bne	125dc <xTaskResumeFromISR+0xe4>
   12544:	e51b300c 	ldr	r3, [fp, #-12]
   12548:	e593202c 	ldr	r2, [r3, #44]	; 0x2c
   1254c:	e59f30b0 	ldr	r3, [pc, #176]	; 12604 <xTaskResumeFromISR+0x10c>
   12550:	e5933000 	ldr	r3, [r3]
   12554:	e593302c 	ldr	r3, [r3, #44]	; 0x2c
   12558:	e1520003 	cmp	r2, r3
   1255c:	23a03001 	movcs	r3, #1
   12560:	33a03000 	movcc	r3, #0
   12564:	e6ef3073 	uxtb	r3, r3
   12568:	e50b3008 	str	r3, [fp, #-8]
   1256c:	e51b300c 	ldr	r3, [fp, #-12]
   12570:	e2833004 	add	r3, r3, #4
   12574:	e1a00003 	mov	r0, r3
   12578:	ebfffa76 	bl	10f58 <vListRemove>
   1257c:	e51b300c 	ldr	r3, [fp, #-12]
   12580:	e593202c 	ldr	r2, [r3, #44]	; 0x2c
   12584:	e59f307c 	ldr	r3, [pc, #124]	; 12608 <xTaskResumeFromISR+0x110>
   12588:	e5933000 	ldr	r3, [r3]
   1258c:	e1520003 	cmp	r2, r3
   12590:	9a000003 	bls	125a4 <xTaskResumeFromISR+0xac>
   12594:	e51b300c 	ldr	r3, [fp, #-12]
   12598:	e593302c 	ldr	r3, [r3, #44]	; 0x2c
   1259c:	e59f2064 	ldr	r2, [pc, #100]	; 12608 <xTaskResumeFromISR+0x110>
   125a0:	e5823000 	str	r3, [r2]
   125a4:	e51b300c 	ldr	r3, [fp, #-12]
   125a8:	e593202c 	ldr	r2, [r3, #44]	; 0x2c
   125ac:	e1a03002 	mov	r3, r2
   125b0:	e1a03103 	lsl	r3, r3, #2
   125b4:	e0833002 	add	r3, r3, r2
   125b8:	e1a03103 	lsl	r3, r3, #2
   125bc:	e59f2048 	ldr	r2, [pc, #72]	; 1260c <xTaskResumeFromISR+0x114>
   125c0:	e0832002 	add	r2, r3, r2
   125c4:	e51b300c 	ldr	r3, [fp, #-12]
   125c8:	e2833004 	add	r3, r3, #4
   125cc:	e1a01003 	mov	r1, r3
   125d0:	e1a00002 	mov	r0, r2
   125d4:	ebfffa03 	bl	10de8 <vListInsertEnd>
   125d8:	ea000004 	b	125f0 <xTaskResumeFromISR+0xf8>
   125dc:	e51b300c 	ldr	r3, [fp, #-12]
   125e0:	e2833018 	add	r3, r3, #24
   125e4:	e1a01003 	mov	r1, r3
   125e8:	e59f0020 	ldr	r0, [pc, #32]	; 12610 <xTaskResumeFromISR+0x118>
   125ec:	ebfff9fd 	bl	10de8 <vListInsertEnd>
   125f0:	e51b3008 	ldr	r3, [fp, #-8]
   125f4:	e1a00003 	mov	r0, r3
   125f8:	e24bd004 	sub	sp, fp, #4
   125fc:	e8bd8800 	pop	{fp, pc}
   12600:	000148c8 	andeq	r4, r1, r8, asr #17
   12604:	000147dc 	ldrdeq	r4, [r1], -ip
   12608:	000148c0 	andeq	r4, r1, r0, asr #17
   1260c:	000147e0 	andeq	r4, r1, r0, ror #15
   12610:	00014874 	andeq	r4, r1, r4, ror r8

00012614 <vTaskStartScheduler>:
   12614:	e92d4800 	push	{fp, lr}
   12618:	e28db004 	add	fp, sp, #4
   1261c:	e24dd018 	sub	sp, sp, #24
   12620:	e3a03000 	mov	r3, #0
   12624:	e58d300c 	str	r3, [sp, #12]
   12628:	e3a03000 	mov	r3, #0
   1262c:	e58d3008 	str	r3, [sp, #8]
   12630:	e3a03000 	mov	r3, #0
   12634:	e58d3004 	str	r3, [sp, #4]
   12638:	e3a03000 	mov	r3, #0
   1263c:	e58d3000 	str	r3, [sp]
   12640:	e3a03000 	mov	r3, #0
   12644:	e3a02080 	mov	r2, #128	; 0x80
   12648:	e59f1050 	ldr	r1, [pc, #80]	; 126a0 <vTaskStartScheduler+0x8c>
   1264c:	e59f0050 	ldr	r0, [pc, #80]	; 126a4 <vTaskStartScheduler+0x90>
   12650:	ebfffd52 	bl	11ba0 <xTaskGenericCreate>
   12654:	e50b0008 	str	r0, [fp, #-8]
   12658:	e51b3008 	ldr	r3, [fp, #-8]
   1265c:	e3530001 	cmp	r3, #1
   12660:	1a00000b 	bne	12694 <vTaskStartScheduler+0x80>
   12664:	e92d0001 	stmfd	sp!, {r0}
   12668:	e10f0000 	mrs	r0, CPSR
   1266c:	e38000c0 	orr	r0, r0, #192	; 0xc0
   12670:	e129f000 	msr	CPSR_fc, r0
   12674:	e8bd0001 	ldmfd	sp!, {r0}
   12678:	e59f3028 	ldr	r3, [pc, #40]	; 126a8 <vTaskStartScheduler+0x94>
   1267c:	e3a02001 	mov	r2, #1
   12680:	e5832000 	str	r2, [r3]
   12684:	e59f3020 	ldr	r3, [pc, #32]	; 126ac <vTaskStartScheduler+0x98>
   12688:	e3a02000 	mov	r2, #0
   1268c:	e5832000 	str	r2, [r3]
   12690:	ebfff6ea 	bl	10240 <xPortStartScheduler>
   12694:	e320f000 	nop	{0}
   12698:	e24bd004 	sub	sp, fp, #4
   1269c:	e8bd8800 	pop	{fp, pc}
   126a0:	0001441c 	andeq	r4, r1, ip, lsl r4
   126a4:	000130bc 	strheq	r3, [r1], -ip
   126a8:	000148c4 	andeq	r4, r1, r4, asr #17
   126ac:	000148b8 			; <UNDEFINED> instruction: 0x000148b8

000126b0 <vTaskEndScheduler>:
   126b0:	e92d4800 	push	{fp, lr}
   126b4:	e28db004 	add	fp, sp, #4
   126b8:	e92d0001 	stmfd	sp!, {r0}
   126bc:	e10f0000 	mrs	r0, CPSR
   126c0:	e38000c0 	orr	r0, r0, #192	; 0xc0
   126c4:	e129f000 	msr	CPSR_fc, r0
   126c8:	e8bd0001 	ldmfd	sp!, {r0}
   126cc:	e59f3010 	ldr	r3, [pc, #16]	; 126e4 <vTaskEndScheduler+0x34>
   126d0:	e3a02000 	mov	r2, #0
   126d4:	e5832000 	str	r2, [r3]
   126d8:	ebfff6df 	bl	1025c <vPortEndScheduler>
   126dc:	e320f000 	nop	{0}
   126e0:	e8bd8800 	pop	{fp, pc}
   126e4:	000148c4 	andeq	r4, r1, r4, asr #17

000126e8 <vTaskSuspendAll>:
   126e8:	e52db004 	push	{fp}		; (str fp, [sp, #-4]!)
   126ec:	e28db000 	add	fp, sp, #0
   126f0:	e59f301c 	ldr	r3, [pc, #28]	; 12714 <vTaskSuspendAll+0x2c>
   126f4:	e5933000 	ldr	r3, [r3]
   126f8:	e2833001 	add	r3, r3, #1
   126fc:	e59f2010 	ldr	r2, [pc, #16]	; 12714 <vTaskSuspendAll+0x2c>
   12700:	e5823000 	str	r3, [r2]
   12704:	e320f000 	nop	{0}
   12708:	e28bd000 	add	sp, fp, #0
   1270c:	e49db004 	pop	{fp}		; (ldr fp, [sp], #4)
   12710:	e12fff1e 	bx	lr
   12714:	000148c8 	andeq	r4, r1, r8, asr #17

00012718 <xTaskResumeAll>:
   12718:	e92d4810 	push	{r4, fp, lr}
   1271c:	e28db008 	add	fp, sp, #8
   12720:	e24dd00c 	sub	sp, sp, #12
   12724:	e3a03000 	mov	r3, #0
   12728:	e50b3010 	str	r3, [fp, #-16]
   1272c:	ebfff783 	bl	10540 <vPortEnterCritical>
   12730:	e59f3164 	ldr	r3, [pc, #356]	; 1289c <xTaskResumeAll+0x184>
   12734:	e5933000 	ldr	r3, [r3]
   12738:	e2433001 	sub	r3, r3, #1
   1273c:	e59f2158 	ldr	r2, [pc, #344]	; 1289c <xTaskResumeAll+0x184>
   12740:	e5823000 	str	r3, [r2]
   12744:	e59f3150 	ldr	r3, [pc, #336]	; 1289c <xTaskResumeAll+0x184>
   12748:	e5933000 	ldr	r3, [r3]
   1274c:	e3530000 	cmp	r3, #0
   12750:	1a00004c 	bne	12888 <xTaskResumeAll+0x170>
   12754:	e59f3144 	ldr	r3, [pc, #324]	; 128a0 <xTaskResumeAll+0x188>
   12758:	e5933000 	ldr	r3, [r3]
   1275c:	e3530000 	cmp	r3, #0
   12760:	0a000048 	beq	12888 <xTaskResumeAll+0x170>
   12764:	e3a03000 	mov	r3, #0
   12768:	e50b3014 	str	r3, [fp, #-20]	; 0xffffffec
   1276c:	ea000023 	b	12800 <xTaskResumeAll+0xe8>
   12770:	e59f312c 	ldr	r3, [pc, #300]	; 128a4 <xTaskResumeAll+0x18c>
   12774:	e593300c 	ldr	r3, [r3, #12]
   12778:	e593400c 	ldr	r4, [r3, #12]
   1277c:	e2843018 	add	r3, r4, #24
   12780:	e1a00003 	mov	r0, r3
   12784:	ebfff9f3 	bl	10f58 <vListRemove>
   12788:	e2843004 	add	r3, r4, #4
   1278c:	e1a00003 	mov	r0, r3
   12790:	ebfff9f0 	bl	10f58 <vListRemove>
   12794:	e594202c 	ldr	r2, [r4, #44]	; 0x2c
   12798:	e59f3108 	ldr	r3, [pc, #264]	; 128a8 <xTaskResumeAll+0x190>
   1279c:	e5933000 	ldr	r3, [r3]
   127a0:	e1520003 	cmp	r2, r3
   127a4:	9a000002 	bls	127b4 <xTaskResumeAll+0x9c>
   127a8:	e594302c 	ldr	r3, [r4, #44]	; 0x2c
   127ac:	e59f20f4 	ldr	r2, [pc, #244]	; 128a8 <xTaskResumeAll+0x190>
   127b0:	e5823000 	str	r3, [r2]
   127b4:	e594202c 	ldr	r2, [r4, #44]	; 0x2c
   127b8:	e1a03002 	mov	r3, r2
   127bc:	e1a03103 	lsl	r3, r3, #2
   127c0:	e0833002 	add	r3, r3, r2
   127c4:	e1a03103 	lsl	r3, r3, #2
   127c8:	e59f20dc 	ldr	r2, [pc, #220]	; 128ac <xTaskResumeAll+0x194>
   127cc:	e0833002 	add	r3, r3, r2
   127d0:	e2842004 	add	r2, r4, #4
   127d4:	e1a01002 	mov	r1, r2
   127d8:	e1a00003 	mov	r0, r3
   127dc:	ebfff981 	bl	10de8 <vListInsertEnd>
   127e0:	e594202c 	ldr	r2, [r4, #44]	; 0x2c
   127e4:	e59f30c4 	ldr	r3, [pc, #196]	; 128b0 <xTaskResumeAll+0x198>
   127e8:	e5933000 	ldr	r3, [r3]
   127ec:	e593302c 	ldr	r3, [r3, #44]	; 0x2c
   127f0:	e1520003 	cmp	r2, r3
   127f4:	3a000001 	bcc	12800 <xTaskResumeAll+0xe8>
   127f8:	e3a03001 	mov	r3, #1
   127fc:	e50b3014 	str	r3, [fp, #-20]	; 0xffffffec
   12800:	e59f309c 	ldr	r3, [pc, #156]	; 128a4 <xTaskResumeAll+0x18c>
   12804:	e5933000 	ldr	r3, [r3]
   12808:	e3530000 	cmp	r3, #0
   1280c:	1affffd7 	bne	12770 <xTaskResumeAll+0x58>
   12810:	e59f309c 	ldr	r3, [pc, #156]	; 128b4 <xTaskResumeAll+0x19c>
   12814:	e5933000 	ldr	r3, [r3]
   12818:	e3530000 	cmp	r3, #0
   1281c:	0a00000c 	beq	12854 <xTaskResumeAll+0x13c>
   12820:	ea000005 	b	1283c <xTaskResumeAll+0x124>
   12824:	eb000048 	bl	1294c <vTaskIncrementTick>
   12828:	e59f3084 	ldr	r3, [pc, #132]	; 128b4 <xTaskResumeAll+0x19c>
   1282c:	e5933000 	ldr	r3, [r3]
   12830:	e2433001 	sub	r3, r3, #1
   12834:	e59f2078 	ldr	r2, [pc, #120]	; 128b4 <xTaskResumeAll+0x19c>
   12838:	e5823000 	str	r3, [r2]
   1283c:	e59f3070 	ldr	r3, [pc, #112]	; 128b4 <xTaskResumeAll+0x19c>
   12840:	e5933000 	ldr	r3, [r3]
   12844:	e3530000 	cmp	r3, #0
   12848:	1afffff5 	bne	12824 <xTaskResumeAll+0x10c>
   1284c:	e3a03001 	mov	r3, #1
   12850:	e50b3014 	str	r3, [fp, #-20]	; 0xffffffec
   12854:	e51b3014 	ldr	r3, [fp, #-20]	; 0xffffffec
   12858:	e3530001 	cmp	r3, #1
   1285c:	0a000003 	beq	12870 <xTaskResumeAll+0x158>
   12860:	e59f3050 	ldr	r3, [pc, #80]	; 128b8 <xTaskResumeAll+0x1a0>
   12864:	e5933000 	ldr	r3, [r3]
   12868:	e3530001 	cmp	r3, #1
   1286c:	1a000005 	bne	12888 <xTaskResumeAll+0x170>
   12870:	e3a03001 	mov	r3, #1
   12874:	e50b3010 	str	r3, [fp, #-16]
   12878:	e59f3038 	ldr	r3, [pc, #56]	; 128b8 <xTaskResumeAll+0x1a0>
   1287c:	e3a02000 	mov	r2, #0
   12880:	e5832000 	str	r2, [r3]
   12884:	ef000000 	svc	0x00000000
   12888:	ebfff73d 	bl	10584 <vPortExitCritical>
   1288c:	e51b3010 	ldr	r3, [fp, #-16]
   12890:	e1a00003 	mov	r0, r3
   12894:	e24bd008 	sub	sp, fp, #8
   12898:	e8bd8810 	pop	{r4, fp, pc}
   1289c:	000148c8 	andeq	r4, r1, r8, asr #17
   128a0:	000148b4 			; <UNDEFINED> instruction: 0x000148b4
   128a4:	00014874 	andeq	r4, r1, r4, ror r8
   128a8:	000148c0 	andeq	r4, r1, r0, asr #17
   128ac:	000147e0 	andeq	r4, r1, r0, ror #15
   128b0:	000147dc 	ldrdeq	r4, [r1], -ip
   128b4:	000148cc 	andeq	r4, r1, ip, asr #17
   128b8:	000148d0 	ldrdeq	r4, [r1], -r0

000128bc <xTaskGetTickCount>:
   128bc:	e92d4800 	push	{fp, lr}
   128c0:	e28db004 	add	fp, sp, #4
   128c4:	e24dd008 	sub	sp, sp, #8
   128c8:	ebfff71c 	bl	10540 <vPortEnterCritical>
   128cc:	e59f3018 	ldr	r3, [pc, #24]	; 128ec <xTaskGetTickCount+0x30>
   128d0:	e5933000 	ldr	r3, [r3]
   128d4:	e50b3008 	str	r3, [fp, #-8]
   128d8:	ebfff729 	bl	10584 <vPortExitCritical>
   128dc:	e51b3008 	ldr	r3, [fp, #-8]
   128e0:	e1a00003 	mov	r0, r3
   128e4:	e24bd004 	sub	sp, fp, #4
   128e8:	e8bd8800 	pop	{fp, pc}
   128ec:	000148b8 			; <UNDEFINED> instruction: 0x000148b8

000128f0 <xTaskGetTickCountFromISR>:
   128f0:	e52db004 	push	{fp}		; (str fp, [sp, #-4]!)
   128f4:	e28db000 	add	fp, sp, #0
   128f8:	e24dd00c 	sub	sp, sp, #12
   128fc:	e3a03000 	mov	r3, #0
   12900:	e50b3008 	str	r3, [fp, #-8]
   12904:	e59f3018 	ldr	r3, [pc, #24]	; 12924 <xTaskGetTickCountFromISR+0x34>
   12908:	e5933000 	ldr	r3, [r3]
   1290c:	e50b300c 	str	r3, [fp, #-12]
   12910:	e51b300c 	ldr	r3, [fp, #-12]
   12914:	e1a00003 	mov	r0, r3
   12918:	e28bd000 	add	sp, fp, #0
   1291c:	e49db004 	pop	{fp}		; (ldr fp, [sp], #4)
   12920:	e12fff1e 	bx	lr
   12924:	000148b8 			; <UNDEFINED> instruction: 0x000148b8

00012928 <uxTaskGetNumberOfTasks>:
   12928:	e52db004 	push	{fp}		; (str fp, [sp, #-4]!)
   1292c:	e28db000 	add	fp, sp, #0
   12930:	e59f3010 	ldr	r3, [pc, #16]	; 12948 <uxTaskGetNumberOfTasks+0x20>
   12934:	e5933000 	ldr	r3, [r3]
   12938:	e1a00003 	mov	r0, r3
   1293c:	e28bd000 	add	sp, fp, #0
   12940:	e49db004 	pop	{fp}		; (ldr fp, [sp], #4)
   12944:	e12fff1e 	bx	lr
   12948:	000148b4 			; <UNDEFINED> instruction: 0x000148b4

0001294c <vTaskIncrementTick>:
   1294c:	e92d4800 	push	{fp, lr}
   12950:	e28db004 	add	fp, sp, #4
   12954:	e24dd010 	sub	sp, sp, #16
   12958:	e59f31e4 	ldr	r3, [pc, #484]	; 12b44 <vTaskIncrementTick+0x1f8>
   1295c:	e5933000 	ldr	r3, [r3]
   12960:	e3530000 	cmp	r3, #0
   12964:	1a00006d 	bne	12b20 <vTaskIncrementTick+0x1d4>
   12968:	e59f31d8 	ldr	r3, [pc, #472]	; 12b48 <vTaskIncrementTick+0x1fc>
   1296c:	e5933000 	ldr	r3, [r3]
   12970:	e2833001 	add	r3, r3, #1
   12974:	e59f21cc 	ldr	r2, [pc, #460]	; 12b48 <vTaskIncrementTick+0x1fc>
   12978:	e5823000 	str	r3, [r2]
   1297c:	e59f31c4 	ldr	r3, [pc, #452]	; 12b48 <vTaskIncrementTick+0x1fc>
   12980:	e5933000 	ldr	r3, [r3]
   12984:	e3530000 	cmp	r3, #0
   12988:	1a000020 	bne	12a10 <vTaskIncrementTick+0xc4>
   1298c:	e59f31b8 	ldr	r3, [pc, #440]	; 12b4c <vTaskIncrementTick+0x200>
   12990:	e5933000 	ldr	r3, [r3]
   12994:	e50b3008 	str	r3, [fp, #-8]
   12998:	e59f31b0 	ldr	r3, [pc, #432]	; 12b50 <vTaskIncrementTick+0x204>
   1299c:	e5933000 	ldr	r3, [r3]
   129a0:	e59f21a4 	ldr	r2, [pc, #420]	; 12b4c <vTaskIncrementTick+0x200>
   129a4:	e5823000 	str	r3, [r2]
   129a8:	e59f21a0 	ldr	r2, [pc, #416]	; 12b50 <vTaskIncrementTick+0x204>
   129ac:	e51b3008 	ldr	r3, [fp, #-8]
   129b0:	e5823000 	str	r3, [r2]
   129b4:	e59f3198 	ldr	r3, [pc, #408]	; 12b54 <vTaskIncrementTick+0x208>
   129b8:	e5933000 	ldr	r3, [r3]
   129bc:	e2833001 	add	r3, r3, #1
   129c0:	e59f218c 	ldr	r2, [pc, #396]	; 12b54 <vTaskIncrementTick+0x208>
   129c4:	e5823000 	str	r3, [r2]
   129c8:	e59f317c 	ldr	r3, [pc, #380]	; 12b4c <vTaskIncrementTick+0x200>
   129cc:	e5933000 	ldr	r3, [r3]
   129d0:	e5933000 	ldr	r3, [r3]
   129d4:	e3530000 	cmp	r3, #0
   129d8:	1a000003 	bne	129ec <vTaskIncrementTick+0xa0>
   129dc:	e59f3174 	ldr	r3, [pc, #372]	; 12b58 <vTaskIncrementTick+0x20c>
   129e0:	e3e02000 	mvn	r2, #0
   129e4:	e5832000 	str	r2, [r3]
   129e8:	ea000008 	b	12a10 <vTaskIncrementTick+0xc4>
   129ec:	e59f3158 	ldr	r3, [pc, #344]	; 12b4c <vTaskIncrementTick+0x200>
   129f0:	e5933000 	ldr	r3, [r3]
   129f4:	e593300c 	ldr	r3, [r3, #12]
   129f8:	e593300c 	ldr	r3, [r3, #12]
   129fc:	e50b300c 	str	r3, [fp, #-12]
   12a00:	e51b300c 	ldr	r3, [fp, #-12]
   12a04:	e5933004 	ldr	r3, [r3, #4]
   12a08:	e59f2148 	ldr	r2, [pc, #328]	; 12b58 <vTaskIncrementTick+0x20c>
   12a0c:	e5823000 	str	r3, [r2]
   12a10:	e59f3130 	ldr	r3, [pc, #304]	; 12b48 <vTaskIncrementTick+0x1fc>
   12a14:	e5932000 	ldr	r2, [r3]
   12a18:	e59f3138 	ldr	r3, [pc, #312]	; 12b58 <vTaskIncrementTick+0x20c>
   12a1c:	e5933000 	ldr	r3, [r3]
   12a20:	e1520003 	cmp	r2, r3
   12a24:	3a000043 	bcc	12b38 <vTaskIncrementTick+0x1ec>
   12a28:	e59f311c 	ldr	r3, [pc, #284]	; 12b4c <vTaskIncrementTick+0x200>
   12a2c:	e5933000 	ldr	r3, [r3]
   12a30:	e5933000 	ldr	r3, [r3]
   12a34:	e3530000 	cmp	r3, #0
   12a38:	1a000003 	bne	12a4c <vTaskIncrementTick+0x100>
   12a3c:	e59f3114 	ldr	r3, [pc, #276]	; 12b58 <vTaskIncrementTick+0x20c>
   12a40:	e3e02000 	mvn	r2, #0
   12a44:	e5832000 	str	r2, [r3]
   12a48:	ea00003a 	b	12b38 <vTaskIncrementTick+0x1ec>
   12a4c:	e59f30f8 	ldr	r3, [pc, #248]	; 12b4c <vTaskIncrementTick+0x200>
   12a50:	e5933000 	ldr	r3, [r3]
   12a54:	e593300c 	ldr	r3, [r3, #12]
   12a58:	e593300c 	ldr	r3, [r3, #12]
   12a5c:	e50b300c 	str	r3, [fp, #-12]
   12a60:	e51b300c 	ldr	r3, [fp, #-12]
   12a64:	e5933004 	ldr	r3, [r3, #4]
   12a68:	e50b3010 	str	r3, [fp, #-16]
   12a6c:	e59f30d4 	ldr	r3, [pc, #212]	; 12b48 <vTaskIncrementTick+0x1fc>
   12a70:	e5933000 	ldr	r3, [r3]
   12a74:	e51b2010 	ldr	r2, [fp, #-16]
   12a78:	e1520003 	cmp	r2, r3
   12a7c:	9a000003 	bls	12a90 <vTaskIncrementTick+0x144>
   12a80:	e59f20d0 	ldr	r2, [pc, #208]	; 12b58 <vTaskIncrementTick+0x20c>
   12a84:	e51b3010 	ldr	r3, [fp, #-16]
   12a88:	e5823000 	str	r3, [r2]
   12a8c:	ea000029 	b	12b38 <vTaskIncrementTick+0x1ec>
   12a90:	e51b300c 	ldr	r3, [fp, #-12]
   12a94:	e2833004 	add	r3, r3, #4
   12a98:	e1a00003 	mov	r0, r3
   12a9c:	ebfff92d 	bl	10f58 <vListRemove>
   12aa0:	e51b300c 	ldr	r3, [fp, #-12]
   12aa4:	e5933028 	ldr	r3, [r3, #40]	; 0x28
   12aa8:	e3530000 	cmp	r3, #0
   12aac:	0a000003 	beq	12ac0 <vTaskIncrementTick+0x174>
   12ab0:	e51b300c 	ldr	r3, [fp, #-12]
   12ab4:	e2833018 	add	r3, r3, #24
   12ab8:	e1a00003 	mov	r0, r3
   12abc:	ebfff925 	bl	10f58 <vListRemove>
   12ac0:	e51b300c 	ldr	r3, [fp, #-12]
   12ac4:	e593202c 	ldr	r2, [r3, #44]	; 0x2c
   12ac8:	e59f308c 	ldr	r3, [pc, #140]	; 12b5c <vTaskIncrementTick+0x210>
   12acc:	e5933000 	ldr	r3, [r3]
   12ad0:	e1520003 	cmp	r2, r3
   12ad4:	9a000003 	bls	12ae8 <vTaskIncrementTick+0x19c>
   12ad8:	e51b300c 	ldr	r3, [fp, #-12]
   12adc:	e593302c 	ldr	r3, [r3, #44]	; 0x2c
   12ae0:	e59f2074 	ldr	r2, [pc, #116]	; 12b5c <vTaskIncrementTick+0x210>
   12ae4:	e5823000 	str	r3, [r2]
   12ae8:	e51b300c 	ldr	r3, [fp, #-12]
   12aec:	e593202c 	ldr	r2, [r3, #44]	; 0x2c
   12af0:	e1a03002 	mov	r3, r2
   12af4:	e1a03103 	lsl	r3, r3, #2
   12af8:	e0833002 	add	r3, r3, r2
   12afc:	e1a03103 	lsl	r3, r3, #2
   12b00:	e59f2058 	ldr	r2, [pc, #88]	; 12b60 <vTaskIncrementTick+0x214>
   12b04:	e0832002 	add	r2, r3, r2
   12b08:	e51b300c 	ldr	r3, [fp, #-12]
   12b0c:	e2833004 	add	r3, r3, #4
   12b10:	e1a01003 	mov	r1, r3
   12b14:	e1a00002 	mov	r0, r2
   12b18:	ebfff8b2 	bl	10de8 <vListInsertEnd>
   12b1c:	eaffffc1 	b	12a28 <vTaskIncrementTick+0xdc>
   12b20:	e59f303c 	ldr	r3, [pc, #60]	; 12b64 <vTaskIncrementTick+0x218>
   12b24:	e5933000 	ldr	r3, [r3]
   12b28:	e2833001 	add	r3, r3, #1
   12b2c:	e59f2030 	ldr	r2, [pc, #48]	; 12b64 <vTaskIncrementTick+0x218>
   12b30:	e5823000 	str	r3, [r2]
   12b34:	eaffffff 	b	12b38 <vTaskIncrementTick+0x1ec>
   12b38:	e320f000 	nop	{0}
   12b3c:	e24bd004 	sub	sp, fp, #4
   12b40:	e8bd8800 	pop	{fp, pc}
   12b44:	000148c8 	andeq	r4, r1, r8, asr #17
   12b48:	000148b8 			; <UNDEFINED> instruction: 0x000148b8
   12b4c:	0001486c 	andeq	r4, r1, ip, ror #16
   12b50:	00014870 	andeq	r4, r1, r0, ror r8
   12b54:	000148d4 	ldrdeq	r4, [r1], -r4	; <UNPREDICTABLE>
   12b58:	0001474c 	andeq	r4, r1, ip, asr #14
   12b5c:	000148c0 	andeq	r4, r1, r0, asr #17
   12b60:	000147e0 	andeq	r4, r1, r0, ror #15
   12b64:	000148cc 	andeq	r4, r1, ip, asr #17

00012b68 <vTaskSetApplicationTaskTag>:
   12b68:	e92d4800 	push	{fp, lr}
   12b6c:	e28db004 	add	fp, sp, #4
   12b70:	e24dd010 	sub	sp, sp, #16
   12b74:	e50b0010 	str	r0, [fp, #-16]
   12b78:	e50b1014 	str	r1, [fp, #-20]	; 0xffffffec
   12b7c:	e51b3010 	ldr	r3, [fp, #-16]
   12b80:	e3530000 	cmp	r3, #0
   12b84:	1a000003 	bne	12b98 <vTaskSetApplicationTaskTag+0x30>
   12b88:	e59f3030 	ldr	r3, [pc, #48]	; 12bc0 <vTaskSetApplicationTaskTag+0x58>
   12b8c:	e5933000 	ldr	r3, [r3]
   12b90:	e50b3008 	str	r3, [fp, #-8]
   12b94:	ea000001 	b	12ba0 <vTaskSetApplicationTaskTag+0x38>
   12b98:	e51b3010 	ldr	r3, [fp, #-16]
   12b9c:	e50b3008 	str	r3, [fp, #-8]
   12ba0:	ebfff666 	bl	10540 <vPortEnterCritical>
   12ba4:	e51b3008 	ldr	r3, [fp, #-8]
   12ba8:	e51b2014 	ldr	r2, [fp, #-20]	; 0xffffffec
   12bac:	e5832044 	str	r2, [r3, #68]	; 0x44
   12bb0:	ebfff673 	bl	10584 <vPortExitCritical>
   12bb4:	e320f000 	nop	{0}
   12bb8:	e24bd004 	sub	sp, fp, #4
   12bbc:	e8bd8800 	pop	{fp, pc}
   12bc0:	000147dc 	ldrdeq	r4, [r1], -ip

00012bc4 <xTaskGetApplicationTaskTag>:
   12bc4:	e92d4800 	push	{fp, lr}
   12bc8:	e28db004 	add	fp, sp, #4
   12bcc:	e24dd010 	sub	sp, sp, #16
   12bd0:	e50b0010 	str	r0, [fp, #-16]
   12bd4:	e51b3010 	ldr	r3, [fp, #-16]
   12bd8:	e3530000 	cmp	r3, #0
   12bdc:	1a000003 	bne	12bf0 <xTaskGetApplicationTaskTag+0x2c>
   12be0:	e59f3034 	ldr	r3, [pc, #52]	; 12c1c <xTaskGetApplicationTaskTag+0x58>
   12be4:	e5933000 	ldr	r3, [r3]
   12be8:	e50b3008 	str	r3, [fp, #-8]
   12bec:	ea000001 	b	12bf8 <xTaskGetApplicationTaskTag+0x34>
   12bf0:	e51b3010 	ldr	r3, [fp, #-16]
   12bf4:	e50b3008 	str	r3, [fp, #-8]
   12bf8:	ebfff650 	bl	10540 <vPortEnterCritical>
   12bfc:	e51b3008 	ldr	r3, [fp, #-8]
   12c00:	e5933044 	ldr	r3, [r3, #68]	; 0x44
   12c04:	e50b300c 	str	r3, [fp, #-12]
   12c08:	ebfff65d 	bl	10584 <vPortExitCritical>
   12c0c:	e51b300c 	ldr	r3, [fp, #-12]
   12c10:	e1a00003 	mov	r0, r3
   12c14:	e24bd004 	sub	sp, fp, #4
   12c18:	e8bd8800 	pop	{fp, pc}
   12c1c:	000147dc 	ldrdeq	r4, [r1], -ip

00012c20 <xTaskCallApplicationTaskHook>:
   12c20:	e92d4800 	push	{fp, lr}
   12c24:	e28db004 	add	fp, sp, #4
   12c28:	e24dd010 	sub	sp, sp, #16
   12c2c:	e50b0010 	str	r0, [fp, #-16]
   12c30:	e50b1014 	str	r1, [fp, #-20]	; 0xffffffec
   12c34:	e51b3010 	ldr	r3, [fp, #-16]
   12c38:	e3530000 	cmp	r3, #0
   12c3c:	1a000003 	bne	12c50 <xTaskCallApplicationTaskHook+0x30>
   12c40:	e59f3050 	ldr	r3, [pc, #80]	; 12c98 <xTaskCallApplicationTaskHook+0x78>
   12c44:	e5933000 	ldr	r3, [r3]
   12c48:	e50b3008 	str	r3, [fp, #-8]
   12c4c:	ea000001 	b	12c58 <xTaskCallApplicationTaskHook+0x38>
   12c50:	e51b3010 	ldr	r3, [fp, #-16]
   12c54:	e50b3008 	str	r3, [fp, #-8]
   12c58:	e51b3008 	ldr	r3, [fp, #-8]
   12c5c:	e5933044 	ldr	r3, [r3, #68]	; 0x44
   12c60:	e3530000 	cmp	r3, #0
   12c64:	0a000005 	beq	12c80 <xTaskCallApplicationTaskHook+0x60>
   12c68:	e51b3008 	ldr	r3, [fp, #-8]
   12c6c:	e5933044 	ldr	r3, [r3, #68]	; 0x44
   12c70:	e51b0014 	ldr	r0, [fp, #-20]	; 0xffffffec
   12c74:	e12fff33 	blx	r3
   12c78:	e50b000c 	str	r0, [fp, #-12]
   12c7c:	ea000001 	b	12c88 <xTaskCallApplicationTaskHook+0x68>
   12c80:	e3a03000 	mov	r3, #0
   12c84:	e50b300c 	str	r3, [fp, #-12]
   12c88:	e51b300c 	ldr	r3, [fp, #-12]
   12c8c:	e1a00003 	mov	r0, r3
   12c90:	e24bd004 	sub	sp, fp, #4
   12c94:	e8bd8800 	pop	{fp, pc}
   12c98:	000147dc 	ldrdeq	r4, [r1], -ip

00012c9c <vTaskSwitchContext>:
   12c9c:	e52db004 	push	{fp}		; (str fp, [sp, #-4]!)
   12ca0:	e28db000 	add	fp, sp, #0
   12ca4:	e24dd00c 	sub	sp, sp, #12
   12ca8:	e59f30e0 	ldr	r3, [pc, #224]	; 12d90 <vTaskSwitchContext+0xf4>
   12cac:	e5933000 	ldr	r3, [r3]
   12cb0:	e3530000 	cmp	r3, #0
   12cb4:	0a000008 	beq	12cdc <vTaskSwitchContext+0x40>
   12cb8:	e59f30d4 	ldr	r3, [pc, #212]	; 12d94 <vTaskSwitchContext+0xf8>
   12cbc:	e3a02001 	mov	r2, #1
   12cc0:	e5832000 	str	r2, [r3]
   12cc4:	ea00002d 	b	12d80 <vTaskSwitchContext+0xe4>
   12cc8:	e59f30c8 	ldr	r3, [pc, #200]	; 12d98 <vTaskSwitchContext+0xfc>
   12ccc:	e5933000 	ldr	r3, [r3]
   12cd0:	e2433001 	sub	r3, r3, #1
   12cd4:	e59f20bc 	ldr	r2, [pc, #188]	; 12d98 <vTaskSwitchContext+0xfc>
   12cd8:	e5823000 	str	r3, [r2]
   12cdc:	e59f30b4 	ldr	r3, [pc, #180]	; 12d98 <vTaskSwitchContext+0xfc>
   12ce0:	e5932000 	ldr	r2, [r3]
   12ce4:	e59f10b0 	ldr	r1, [pc, #176]	; 12d9c <vTaskSwitchContext+0x100>
   12ce8:	e1a03002 	mov	r3, r2
   12cec:	e1a03103 	lsl	r3, r3, #2
   12cf0:	e0833002 	add	r3, r3, r2
   12cf4:	e1a03103 	lsl	r3, r3, #2
   12cf8:	e0813003 	add	r3, r1, r3
   12cfc:	e5933000 	ldr	r3, [r3]
   12d00:	e3530000 	cmp	r3, #0
   12d04:	0affffef 	beq	12cc8 <vTaskSwitchContext+0x2c>
   12d08:	e59f3088 	ldr	r3, [pc, #136]	; 12d98 <vTaskSwitchContext+0xfc>
   12d0c:	e5932000 	ldr	r2, [r3]
   12d10:	e1a03002 	mov	r3, r2
   12d14:	e1a03103 	lsl	r3, r3, #2
   12d18:	e0833002 	add	r3, r3, r2
   12d1c:	e1a03103 	lsl	r3, r3, #2
   12d20:	e59f2074 	ldr	r2, [pc, #116]	; 12d9c <vTaskSwitchContext+0x100>
   12d24:	e0833002 	add	r3, r3, r2
   12d28:	e50b3008 	str	r3, [fp, #-8]
   12d2c:	e51b3008 	ldr	r3, [fp, #-8]
   12d30:	e5933004 	ldr	r3, [r3, #4]
   12d34:	e5932004 	ldr	r2, [r3, #4]
   12d38:	e51b3008 	ldr	r3, [fp, #-8]
   12d3c:	e5832004 	str	r2, [r3, #4]
   12d40:	e51b3008 	ldr	r3, [fp, #-8]
   12d44:	e5932004 	ldr	r2, [r3, #4]
   12d48:	e51b3008 	ldr	r3, [fp, #-8]
   12d4c:	e2833008 	add	r3, r3, #8
   12d50:	e1520003 	cmp	r2, r3
   12d54:	1a000004 	bne	12d6c <vTaskSwitchContext+0xd0>
   12d58:	e51b3008 	ldr	r3, [fp, #-8]
   12d5c:	e5933004 	ldr	r3, [r3, #4]
   12d60:	e5932004 	ldr	r2, [r3, #4]
   12d64:	e51b3008 	ldr	r3, [fp, #-8]
   12d68:	e5832004 	str	r2, [r3, #4]
   12d6c:	e51b3008 	ldr	r3, [fp, #-8]
   12d70:	e5933004 	ldr	r3, [r3, #4]
   12d74:	e593300c 	ldr	r3, [r3, #12]
   12d78:	e59f2020 	ldr	r2, [pc, #32]	; 12da0 <vTaskSwitchContext+0x104>
   12d7c:	e5823000 	str	r3, [r2]
   12d80:	e320f000 	nop	{0}
   12d84:	e28bd000 	add	sp, fp, #0
   12d88:	e49db004 	pop	{fp}		; (ldr fp, [sp], #4)
   12d8c:	e12fff1e 	bx	lr
   12d90:	000148c8 	andeq	r4, r1, r8, asr #17
   12d94:	000148d0 	ldrdeq	r4, [r1], -r0
   12d98:	000148c0 	andeq	r4, r1, r0, asr #17
   12d9c:	000147e0 	andeq	r4, r1, r0, ror #15
   12da0:	000147dc 	ldrdeq	r4, [r1], -ip

00012da4 <vTaskPlaceOnEventList>:
   12da4:	e92d4800 	push	{fp, lr}
   12da8:	e28db004 	add	fp, sp, #4
   12dac:	e24dd010 	sub	sp, sp, #16
   12db0:	e50b0010 	str	r0, [fp, #-16]
   12db4:	e50b1014 	str	r1, [fp, #-20]	; 0xffffffec
   12db8:	e59f3074 	ldr	r3, [pc, #116]	; 12e34 <vTaskPlaceOnEventList+0x90>
   12dbc:	e5933000 	ldr	r3, [r3]
   12dc0:	e2833018 	add	r3, r3, #24
   12dc4:	e1a01003 	mov	r1, r3
   12dc8:	e51b0010 	ldr	r0, [fp, #-16]
   12dcc:	ebfff82b 	bl	10e80 <vListInsert>
   12dd0:	e59f305c 	ldr	r3, [pc, #92]	; 12e34 <vTaskPlaceOnEventList+0x90>
   12dd4:	e5933000 	ldr	r3, [r3]
   12dd8:	e2833004 	add	r3, r3, #4
   12ddc:	e1a00003 	mov	r0, r3
   12de0:	ebfff85c 	bl	10f58 <vListRemove>
   12de4:	e51b3014 	ldr	r3, [fp, #-20]	; 0xffffffec
   12de8:	e3730001 	cmn	r3, #1
   12dec:	1a000006 	bne	12e0c <vTaskPlaceOnEventList+0x68>
   12df0:	e59f303c 	ldr	r3, [pc, #60]	; 12e34 <vTaskPlaceOnEventList+0x90>
   12df4:	e5933000 	ldr	r3, [r3]
   12df8:	e2833004 	add	r3, r3, #4
   12dfc:	e1a01003 	mov	r1, r3
   12e00:	e59f0030 	ldr	r0, [pc, #48]	; 12e38 <vTaskPlaceOnEventList+0x94>
   12e04:	ebfff7f7 	bl	10de8 <vListInsertEnd>
   12e08:	ea000006 	b	12e28 <vTaskPlaceOnEventList+0x84>
   12e0c:	e59f3028 	ldr	r3, [pc, #40]	; 12e3c <vTaskPlaceOnEventList+0x98>
   12e10:	e5933000 	ldr	r3, [r3]
   12e14:	e51b2014 	ldr	r2, [fp, #-20]	; 0xffffffec
   12e18:	e0823003 	add	r3, r2, r3
   12e1c:	e50b3008 	str	r3, [fp, #-8]
   12e20:	e51b0008 	ldr	r0, [fp, #-8]
   12e24:	eb00013f 	bl	13328 <prvAddCurrentTaskToDelayedList>
   12e28:	e320f000 	nop	{0}
   12e2c:	e24bd004 	sub	sp, fp, #4
   12e30:	e8bd8800 	pop	{fp, pc}
   12e34:	000147dc 	ldrdeq	r4, [r1], -ip
   12e38:	000148a0 	andeq	r4, r1, r0, lsr #17
   12e3c:	000148b8 			; <UNDEFINED> instruction: 0x000148b8

00012e40 <xTaskRemoveFromEventList>:
   12e40:	e92d4800 	push	{fp, lr}
   12e44:	e28db004 	add	fp, sp, #4
   12e48:	e24dd010 	sub	sp, sp, #16
   12e4c:	e50b0010 	str	r0, [fp, #-16]
   12e50:	e51b3010 	ldr	r3, [fp, #-16]
   12e54:	e593300c 	ldr	r3, [r3, #12]
   12e58:	e593300c 	ldr	r3, [r3, #12]
   12e5c:	e50b300c 	str	r3, [fp, #-12]
   12e60:	e51b300c 	ldr	r3, [fp, #-12]
   12e64:	e2833018 	add	r3, r3, #24
   12e68:	e1a00003 	mov	r0, r3
   12e6c:	ebfff839 	bl	10f58 <vListRemove>
   12e70:	e59f30cc 	ldr	r3, [pc, #204]	; 12f44 <xTaskRemoveFromEventList+0x104>
   12e74:	e5933000 	ldr	r3, [r3]
   12e78:	e3530000 	cmp	r3, #0
   12e7c:	1a00001b 	bne	12ef0 <xTaskRemoveFromEventList+0xb0>
   12e80:	e51b300c 	ldr	r3, [fp, #-12]
   12e84:	e2833004 	add	r3, r3, #4
   12e88:	e1a00003 	mov	r0, r3
   12e8c:	ebfff831 	bl	10f58 <vListRemove>
   12e90:	e51b300c 	ldr	r3, [fp, #-12]
   12e94:	e593202c 	ldr	r2, [r3, #44]	; 0x2c
   12e98:	e59f30a8 	ldr	r3, [pc, #168]	; 12f48 <xTaskRemoveFromEventList+0x108>
   12e9c:	e5933000 	ldr	r3, [r3]
   12ea0:	e1520003 	cmp	r2, r3
   12ea4:	9a000003 	bls	12eb8 <xTaskRemoveFromEventList+0x78>
   12ea8:	e51b300c 	ldr	r3, [fp, #-12]
   12eac:	e593302c 	ldr	r3, [r3, #44]	; 0x2c
   12eb0:	e59f2090 	ldr	r2, [pc, #144]	; 12f48 <xTaskRemoveFromEventList+0x108>
   12eb4:	e5823000 	str	r3, [r2]
   12eb8:	e51b300c 	ldr	r3, [fp, #-12]
   12ebc:	e593202c 	ldr	r2, [r3, #44]	; 0x2c
   12ec0:	e1a03002 	mov	r3, r2
   12ec4:	e1a03103 	lsl	r3, r3, #2
   12ec8:	e0833002 	add	r3, r3, r2
   12ecc:	e1a03103 	lsl	r3, r3, #2
   12ed0:	e59f2074 	ldr	r2, [pc, #116]	; 12f4c <xTaskRemoveFromEventList+0x10c>
   12ed4:	e0832002 	add	r2, r3, r2
   12ed8:	e51b300c 	ldr	r3, [fp, #-12]
   12edc:	e2833004 	add	r3, r3, #4
   12ee0:	e1a01003 	mov	r1, r3
   12ee4:	e1a00002 	mov	r0, r2
   12ee8:	ebfff7be 	bl	10de8 <vListInsertEnd>
   12eec:	ea000004 	b	12f04 <xTaskRemoveFromEventList+0xc4>
   12ef0:	e51b300c 	ldr	r3, [fp, #-12]
   12ef4:	e2833018 	add	r3, r3, #24
   12ef8:	e1a01003 	mov	r1, r3
   12efc:	e59f004c 	ldr	r0, [pc, #76]	; 12f50 <xTaskRemoveFromEventList+0x110>
   12f00:	ebfff7b8 	bl	10de8 <vListInsertEnd>
   12f04:	e51b300c 	ldr	r3, [fp, #-12]
   12f08:	e593202c 	ldr	r2, [r3, #44]	; 0x2c
   12f0c:	e59f3040 	ldr	r3, [pc, #64]	; 12f54 <xTaskRemoveFromEventList+0x114>
   12f10:	e5933000 	ldr	r3, [r3]
   12f14:	e593302c 	ldr	r3, [r3, #44]	; 0x2c
   12f18:	e1520003 	cmp	r2, r3
   12f1c:	3a000002 	bcc	12f2c <xTaskRemoveFromEventList+0xec>
   12f20:	e3a03001 	mov	r3, #1
   12f24:	e50b3008 	str	r3, [fp, #-8]
   12f28:	ea000001 	b	12f34 <xTaskRemoveFromEventList+0xf4>
   12f2c:	e3a03000 	mov	r3, #0
   12f30:	e50b3008 	str	r3, [fp, #-8]
   12f34:	e51b3008 	ldr	r3, [fp, #-8]
   12f38:	e1a00003 	mov	r0, r3
   12f3c:	e24bd004 	sub	sp, fp, #4
   12f40:	e8bd8800 	pop	{fp, pc}
   12f44:	000148c8 	andeq	r4, r1, r8, asr #17
   12f48:	000148c0 	andeq	r4, r1, r0, asr #17
   12f4c:	000147e0 	andeq	r4, r1, r0, ror #15
   12f50:	00014874 	andeq	r4, r1, r4, ror r8
   12f54:	000147dc 	ldrdeq	r4, [r1], -ip

00012f58 <vTaskSetTimeOutState>:
   12f58:	e52db004 	push	{fp}		; (str fp, [sp, #-4]!)
   12f5c:	e28db000 	add	fp, sp, #0
   12f60:	e24dd00c 	sub	sp, sp, #12
   12f64:	e50b0008 	str	r0, [fp, #-8]
   12f68:	e59f3028 	ldr	r3, [pc, #40]	; 12f98 <vTaskSetTimeOutState+0x40>
   12f6c:	e5932000 	ldr	r2, [r3]
   12f70:	e51b3008 	ldr	r3, [fp, #-8]
   12f74:	e5832000 	str	r2, [r3]
   12f78:	e59f301c 	ldr	r3, [pc, #28]	; 12f9c <vTaskSetTimeOutState+0x44>
   12f7c:	e5932000 	ldr	r2, [r3]
   12f80:	e51b3008 	ldr	r3, [fp, #-8]
   12f84:	e5832004 	str	r2, [r3, #4]
   12f88:	e320f000 	nop	{0}
   12f8c:	e28bd000 	add	sp, fp, #0
   12f90:	e49db004 	pop	{fp}		; (ldr fp, [sp], #4)
   12f94:	e12fff1e 	bx	lr
   12f98:	000148d4 	ldrdeq	r4, [r1], -r4	; <UNPREDICTABLE>
   12f9c:	000148b8 			; <UNDEFINED> instruction: 0x000148b8

00012fa0 <xTaskCheckForTimeOut>:
   12fa0:	e92d4800 	push	{fp, lr}
   12fa4:	e28db004 	add	fp, sp, #4
   12fa8:	e24dd010 	sub	sp, sp, #16
   12fac:	e50b0010 	str	r0, [fp, #-16]
   12fb0:	e50b1014 	str	r1, [fp, #-20]	; 0xffffffec
   12fb4:	ebfff561 	bl	10540 <vPortEnterCritical>
   12fb8:	e51b3014 	ldr	r3, [fp, #-20]	; 0xffffffec
   12fbc:	e5933000 	ldr	r3, [r3]
   12fc0:	e3730001 	cmn	r3, #1
   12fc4:	1a000002 	bne	12fd4 <xTaskCheckForTimeOut+0x34>
   12fc8:	e3a03000 	mov	r3, #0
   12fcc:	e50b3008 	str	r3, [fp, #-8]
   12fd0:	ea000028 	b	13078 <xTaskCheckForTimeOut+0xd8>
   12fd4:	e51b3010 	ldr	r3, [fp, #-16]
   12fd8:	e5932000 	ldr	r2, [r3]
   12fdc:	e59f30a8 	ldr	r3, [pc, #168]	; 1308c <xTaskCheckForTimeOut+0xec>
   12fe0:	e5933000 	ldr	r3, [r3]
   12fe4:	e1520003 	cmp	r2, r3
   12fe8:	0a000008 	beq	13010 <xTaskCheckForTimeOut+0x70>
   12fec:	e51b3010 	ldr	r3, [fp, #-16]
   12ff0:	e5932004 	ldr	r2, [r3, #4]
   12ff4:	e59f3094 	ldr	r3, [pc, #148]	; 13090 <xTaskCheckForTimeOut+0xf0>
   12ff8:	e5933000 	ldr	r3, [r3]
   12ffc:	e1520003 	cmp	r2, r3
   13000:	8a000002 	bhi	13010 <xTaskCheckForTimeOut+0x70>
   13004:	e3a03001 	mov	r3, #1
   13008:	e50b3008 	str	r3, [fp, #-8]
   1300c:	ea000019 	b	13078 <xTaskCheckForTimeOut+0xd8>
   13010:	e59f3078 	ldr	r3, [pc, #120]	; 13090 <xTaskCheckForTimeOut+0xf0>
   13014:	e5932000 	ldr	r2, [r3]
   13018:	e51b3010 	ldr	r3, [fp, #-16]
   1301c:	e5933004 	ldr	r3, [r3, #4]
   13020:	e0422003 	sub	r2, r2, r3
   13024:	e51b3014 	ldr	r3, [fp, #-20]	; 0xffffffec
   13028:	e5933000 	ldr	r3, [r3]
   1302c:	e1520003 	cmp	r2, r3
   13030:	2a00000e 	bcs	13070 <xTaskCheckForTimeOut+0xd0>
   13034:	e59f3054 	ldr	r3, [pc, #84]	; 13090 <xTaskCheckForTimeOut+0xf0>
   13038:	e5932000 	ldr	r2, [r3]
   1303c:	e51b3010 	ldr	r3, [fp, #-16]
   13040:	e5933004 	ldr	r3, [r3, #4]
   13044:	e0423003 	sub	r3, r2, r3
   13048:	e51b2014 	ldr	r2, [fp, #-20]	; 0xffffffec
   1304c:	e5922000 	ldr	r2, [r2]
   13050:	e0422003 	sub	r2, r2, r3
   13054:	e51b3014 	ldr	r3, [fp, #-20]	; 0xffffffec
   13058:	e5832000 	str	r2, [r3]
   1305c:	e51b0010 	ldr	r0, [fp, #-16]
   13060:	ebffffbc 	bl	12f58 <vTaskSetTimeOutState>
   13064:	e3a03000 	mov	r3, #0
   13068:	e50b3008 	str	r3, [fp, #-8]
   1306c:	ea000001 	b	13078 <xTaskCheckForTimeOut+0xd8>
   13070:	e3a03001 	mov	r3, #1
   13074:	e50b3008 	str	r3, [fp, #-8]
   13078:	ebfff541 	bl	10584 <vPortExitCritical>
   1307c:	e51b3008 	ldr	r3, [fp, #-8]
   13080:	e1a00003 	mov	r0, r3
   13084:	e24bd004 	sub	sp, fp, #4
   13088:	e8bd8800 	pop	{fp, pc}
   1308c:	000148d4 	ldrdeq	r4, [r1], -r4	; <UNPREDICTABLE>
   13090:	000148b8 			; <UNDEFINED> instruction: 0x000148b8

00013094 <vTaskMissedYield>:
   13094:	e52db004 	push	{fp}		; (str fp, [sp, #-4]!)
   13098:	e28db000 	add	fp, sp, #0
   1309c:	e59f3014 	ldr	r3, [pc, #20]	; 130b8 <vTaskMissedYield+0x24>
   130a0:	e3a02001 	mov	r2, #1
   130a4:	e5832000 	str	r2, [r3]
   130a8:	e320f000 	nop	{0}
   130ac:	e28bd000 	add	sp, fp, #0
   130b0:	e49db004 	pop	{fp}		; (ldr fp, [sp], #4)
   130b4:	e12fff1e 	bx	lr
   130b8:	000148d0 	ldrdeq	r4, [r1], -r0

000130bc <prvIdleTask>:
   130bc:	e92d4800 	push	{fp, lr}
   130c0:	e28db004 	add	fp, sp, #4
   130c4:	e24dd008 	sub	sp, sp, #8
   130c8:	e50b0008 	str	r0, [fp, #-8]
   130cc:	eb000066 	bl	1326c <prvCheckTasksWaitingTermination>
   130d0:	e59f3010 	ldr	r3, [pc, #16]	; 130e8 <prvIdleTask+0x2c>
   130d4:	e5933000 	ldr	r3, [r3]
   130d8:	e3530001 	cmp	r3, #1
   130dc:	9afffffa 	bls	130cc <prvIdleTask+0x10>
   130e0:	ef000000 	svc	0x00000000
   130e4:	eafffff8 	b	130cc <prvIdleTask+0x10>
   130e8:	000147e0 	andeq	r4, r1, r0, ror #15

000130ec <prvInitialiseTCBVariables>:
   130ec:	e92d4800 	push	{fp, lr}
   130f0:	e28db004 	add	fp, sp, #4
   130f4:	e24dd010 	sub	sp, sp, #16
   130f8:	e50b0008 	str	r0, [fp, #-8]
   130fc:	e50b100c 	str	r1, [fp, #-12]
   13100:	e50b2010 	str	r2, [fp, #-16]
   13104:	e50b3014 	str	r3, [fp, #-20]	; 0xffffffec
   13108:	e51b3008 	ldr	r3, [fp, #-8]
   1310c:	e2833034 	add	r3, r3, #52	; 0x34
   13110:	e3a02010 	mov	r2, #16
   13114:	e51b100c 	ldr	r1, [fp, #-12]
   13118:	e1a00003 	mov	r0, r3
   1311c:	eb000551 	bl	14668 <strncpy>
   13120:	e51b3008 	ldr	r3, [fp, #-8]
   13124:	e3a02000 	mov	r2, #0
   13128:	e5c32043 	strb	r2, [r3, #67]	; 0x43
   1312c:	e51b3010 	ldr	r3, [fp, #-16]
   13130:	e3530004 	cmp	r3, #4
   13134:	9a000001 	bls	13140 <prvInitialiseTCBVariables+0x54>
   13138:	e3a03004 	mov	r3, #4
   1313c:	e50b3010 	str	r3, [fp, #-16]
   13140:	e51b3008 	ldr	r3, [fp, #-8]
   13144:	e51b2010 	ldr	r2, [fp, #-16]
   13148:	e583202c 	str	r2, [r3, #44]	; 0x2c
   1314c:	e51b3008 	ldr	r3, [fp, #-8]
   13150:	e2833004 	add	r3, r3, #4
   13154:	e1a00003 	mov	r0, r3
   13158:	ebfff717 	bl	10dbc <vListInitialiseItem>
   1315c:	e51b3008 	ldr	r3, [fp, #-8]
   13160:	e2833018 	add	r3, r3, #24
   13164:	e1a00003 	mov	r0, r3
   13168:	ebfff713 	bl	10dbc <vListInitialiseItem>
   1316c:	e51b3008 	ldr	r3, [fp, #-8]
   13170:	e51b2008 	ldr	r2, [fp, #-8]
   13174:	e5832010 	str	r2, [r3, #16]
   13178:	e51b3010 	ldr	r3, [fp, #-16]
   1317c:	e2632005 	rsb	r2, r3, #5
   13180:	e51b3008 	ldr	r3, [fp, #-8]
   13184:	e5832018 	str	r2, [r3, #24]
   13188:	e51b3008 	ldr	r3, [fp, #-8]
   1318c:	e51b2008 	ldr	r2, [fp, #-8]
   13190:	e5832024 	str	r2, [r3, #36]	; 0x24
   13194:	e51b3008 	ldr	r3, [fp, #-8]
   13198:	e3a02000 	mov	r2, #0
   1319c:	e5832044 	str	r2, [r3, #68]	; 0x44
   131a0:	e320f000 	nop	{0}
   131a4:	e24bd004 	sub	sp, fp, #4
   131a8:	e8bd8800 	pop	{fp, pc}

000131ac <prvInitialiseTaskLists>:
   131ac:	e92d4800 	push	{fp, lr}
   131b0:	e28db004 	add	fp, sp, #4
   131b4:	e24dd008 	sub	sp, sp, #8
   131b8:	e3a03000 	mov	r3, #0
   131bc:	e50b3008 	str	r3, [fp, #-8]
   131c0:	ea00000b 	b	131f4 <prvInitialiseTaskLists+0x48>
   131c4:	e51b2008 	ldr	r2, [fp, #-8]
   131c8:	e1a03002 	mov	r3, r2
   131cc:	e1a03103 	lsl	r3, r3, #2
   131d0:	e0833002 	add	r3, r3, r2
   131d4:	e1a03103 	lsl	r3, r3, #2
   131d8:	e59f206c 	ldr	r2, [pc, #108]	; 1324c <prvInitialiseTaskLists+0xa0>
   131dc:	e0833002 	add	r3, r3, r2
   131e0:	e1a00003 	mov	r0, r3
   131e4:	ebfff6da 	bl	10d54 <vListInitialise>
   131e8:	e51b3008 	ldr	r3, [fp, #-8]
   131ec:	e2833001 	add	r3, r3, #1
   131f0:	e50b3008 	str	r3, [fp, #-8]
   131f4:	e51b3008 	ldr	r3, [fp, #-8]
   131f8:	e3530004 	cmp	r3, #4
   131fc:	9afffff0 	bls	131c4 <prvInitialiseTaskLists+0x18>
   13200:	e59f0048 	ldr	r0, [pc, #72]	; 13250 <prvInitialiseTaskLists+0xa4>
   13204:	ebfff6d2 	bl	10d54 <vListInitialise>
   13208:	e59f0044 	ldr	r0, [pc, #68]	; 13254 <prvInitialiseTaskLists+0xa8>
   1320c:	ebfff6d0 	bl	10d54 <vListInitialise>
   13210:	e59f0040 	ldr	r0, [pc, #64]	; 13258 <prvInitialiseTaskLists+0xac>
   13214:	ebfff6ce 	bl	10d54 <vListInitialise>
   13218:	e59f003c 	ldr	r0, [pc, #60]	; 1325c <prvInitialiseTaskLists+0xb0>
   1321c:	ebfff6cc 	bl	10d54 <vListInitialise>
   13220:	e59f0038 	ldr	r0, [pc, #56]	; 13260 <prvInitialiseTaskLists+0xb4>
   13224:	ebfff6ca 	bl	10d54 <vListInitialise>
   13228:	e59f3034 	ldr	r3, [pc, #52]	; 13264 <prvInitialiseTaskLists+0xb8>
   1322c:	e59f201c 	ldr	r2, [pc, #28]	; 13250 <prvInitialiseTaskLists+0xa4>
   13230:	e5832000 	str	r2, [r3]
   13234:	e59f302c 	ldr	r3, [pc, #44]	; 13268 <prvInitialiseTaskLists+0xbc>
   13238:	e59f2014 	ldr	r2, [pc, #20]	; 13254 <prvInitialiseTaskLists+0xa8>
   1323c:	e5832000 	str	r2, [r3]
   13240:	e320f000 	nop	{0}
   13244:	e24bd004 	sub	sp, fp, #4
   13248:	e8bd8800 	pop	{fp, pc}
   1324c:	000147e0 	andeq	r4, r1, r0, ror #15
   13250:	00014844 	andeq	r4, r1, r4, asr #16
   13254:	00014858 	andeq	r4, r1, r8, asr r8
   13258:	00014874 	andeq	r4, r1, r4, ror r8
   1325c:	00014888 	andeq	r4, r1, r8, lsl #17
   13260:	000148a0 	andeq	r4, r1, r0, lsr #17
   13264:	0001486c 	andeq	r4, r1, ip, ror #16
   13268:	00014870 	andeq	r4, r1, r0, ror r8

0001326c <prvCheckTasksWaitingTermination>:
   1326c:	e92d4800 	push	{fp, lr}
   13270:	e28db004 	add	fp, sp, #4
   13274:	e24dd008 	sub	sp, sp, #8
   13278:	e59f309c 	ldr	r3, [pc, #156]	; 1331c <prvCheckTasksWaitingTermination+0xb0>
   1327c:	e5933000 	ldr	r3, [r3]
   13280:	e3530000 	cmp	r3, #0
   13284:	0a000021 	beq	13310 <prvCheckTasksWaitingTermination+0xa4>
   13288:	ebfffd16 	bl	126e8 <vTaskSuspendAll>
   1328c:	e59f308c 	ldr	r3, [pc, #140]	; 13320 <prvCheckTasksWaitingTermination+0xb4>
   13290:	e5933000 	ldr	r3, [r3]
   13294:	e3530000 	cmp	r3, #0
   13298:	03a03001 	moveq	r3, #1
   1329c:	13a03000 	movne	r3, #0
   132a0:	e6ef3073 	uxtb	r3, r3
   132a4:	e50b3008 	str	r3, [fp, #-8]
   132a8:	ebfffd1a 	bl	12718 <xTaskResumeAll>
   132ac:	e51b3008 	ldr	r3, [fp, #-8]
   132b0:	e3530000 	cmp	r3, #0
   132b4:	1a000015 	bne	13310 <prvCheckTasksWaitingTermination+0xa4>
   132b8:	ebfff4a0 	bl	10540 <vPortEnterCritical>
   132bc:	e59f305c 	ldr	r3, [pc, #92]	; 13320 <prvCheckTasksWaitingTermination+0xb4>
   132c0:	e593300c 	ldr	r3, [r3, #12]
   132c4:	e593300c 	ldr	r3, [r3, #12]
   132c8:	e50b300c 	str	r3, [fp, #-12]
   132cc:	e51b300c 	ldr	r3, [fp, #-12]
   132d0:	e2833004 	add	r3, r3, #4
   132d4:	e1a00003 	mov	r0, r3
   132d8:	ebfff71e 	bl	10f58 <vListRemove>
   132dc:	e59f3040 	ldr	r3, [pc, #64]	; 13324 <prvCheckTasksWaitingTermination+0xb8>
   132e0:	e5933000 	ldr	r3, [r3]
   132e4:	e2433001 	sub	r3, r3, #1
   132e8:	e59f2034 	ldr	r2, [pc, #52]	; 13324 <prvCheckTasksWaitingTermination+0xb8>
   132ec:	e5823000 	str	r3, [r2]
   132f0:	e59f3024 	ldr	r3, [pc, #36]	; 1331c <prvCheckTasksWaitingTermination+0xb0>
   132f4:	e5933000 	ldr	r3, [r3]
   132f8:	e2433001 	sub	r3, r3, #1
   132fc:	e59f2018 	ldr	r2, [pc, #24]	; 1331c <prvCheckTasksWaitingTermination+0xb0>
   13300:	e5823000 	str	r3, [r2]
   13304:	ebfff49e 	bl	10584 <vPortExitCritical>
   13308:	e51b000c 	ldr	r0, [fp, #-12]
   1330c:	eb00005f 	bl	13490 <prvDeleteTCB>
   13310:	e320f000 	nop	{0}
   13314:	e24bd004 	sub	sp, fp, #4
   13318:	e8bd8800 	pop	{fp, pc}
   1331c:	0001489c 	muleq	r1, ip, r8
   13320:	00014888 	andeq	r4, r1, r8, lsl #17
   13324:	000148b4 			; <UNDEFINED> instruction: 0x000148b4

00013328 <prvAddCurrentTaskToDelayedList>:
   13328:	e92d4800 	push	{fp, lr}
   1332c:	e28db004 	add	fp, sp, #4
   13330:	e24dd008 	sub	sp, sp, #8
   13334:	e50b0008 	str	r0, [fp, #-8]
   13338:	e59f308c 	ldr	r3, [pc, #140]	; 133cc <prvAddCurrentTaskToDelayedList+0xa4>
   1333c:	e5933000 	ldr	r3, [r3]
   13340:	e51b2008 	ldr	r2, [fp, #-8]
   13344:	e5832004 	str	r2, [r3, #4]
   13348:	e59f3080 	ldr	r3, [pc, #128]	; 133d0 <prvAddCurrentTaskToDelayedList+0xa8>
   1334c:	e5933000 	ldr	r3, [r3]
   13350:	e51b2008 	ldr	r2, [fp, #-8]
   13354:	e1520003 	cmp	r2, r3
   13358:	2a000008 	bcs	13380 <prvAddCurrentTaskToDelayedList+0x58>
   1335c:	e59f3070 	ldr	r3, [pc, #112]	; 133d4 <prvAddCurrentTaskToDelayedList+0xac>
   13360:	e5932000 	ldr	r2, [r3]
   13364:	e59f3060 	ldr	r3, [pc, #96]	; 133cc <prvAddCurrentTaskToDelayedList+0xa4>
   13368:	e5933000 	ldr	r3, [r3]
   1336c:	e2833004 	add	r3, r3, #4
   13370:	e1a01003 	mov	r1, r3
   13374:	e1a00002 	mov	r0, r2
   13378:	ebfff6c0 	bl	10e80 <vListInsert>
   1337c:	ea00000f 	b	133c0 <prvAddCurrentTaskToDelayedList+0x98>
   13380:	e59f3050 	ldr	r3, [pc, #80]	; 133d8 <prvAddCurrentTaskToDelayedList+0xb0>
   13384:	e5932000 	ldr	r2, [r3]
   13388:	e59f303c 	ldr	r3, [pc, #60]	; 133cc <prvAddCurrentTaskToDelayedList+0xa4>
   1338c:	e5933000 	ldr	r3, [r3]
   13390:	e2833004 	add	r3, r3, #4
   13394:	e1a01003 	mov	r1, r3
   13398:	e1a00002 	mov	r0, r2
   1339c:	ebfff6b7 	bl	10e80 <vListInsert>
   133a0:	e59f3034 	ldr	r3, [pc, #52]	; 133dc <prvAddCurrentTaskToDelayedList+0xb4>
   133a4:	e5933000 	ldr	r3, [r3]
   133a8:	e51b2008 	ldr	r2, [fp, #-8]
   133ac:	e1520003 	cmp	r2, r3
   133b0:	2a000002 	bcs	133c0 <prvAddCurrentTaskToDelayedList+0x98>
   133b4:	e59f2020 	ldr	r2, [pc, #32]	; 133dc <prvAddCurrentTaskToDelayedList+0xb4>
   133b8:	e51b3008 	ldr	r3, [fp, #-8]
   133bc:	e5823000 	str	r3, [r2]
   133c0:	e320f000 	nop	{0}
   133c4:	e24bd004 	sub	sp, fp, #4
   133c8:	e8bd8800 	pop	{fp, pc}
   133cc:	000147dc 	ldrdeq	r4, [r1], -ip
   133d0:	000148b8 			; <UNDEFINED> instruction: 0x000148b8
   133d4:	00014870 	andeq	r4, r1, r0, ror r8
   133d8:	0001486c 	andeq	r4, r1, ip, ror #16
   133dc:	0001474c 	andeq	r4, r1, ip, asr #14

000133e0 <prvAllocateTCBAndStack>:
   133e0:	e92d4800 	push	{fp, lr}
   133e4:	e28db004 	add	fp, sp, #4
   133e8:	e24dd010 	sub	sp, sp, #16
   133ec:	e1a03000 	mov	r3, r0
   133f0:	e50b1014 	str	r1, [fp, #-20]	; 0xffffffec
   133f4:	e14b30be 	strh	r3, [fp, #-14]
   133f8:	e3a00048 	mov	r0, #72	; 0x48
   133fc:	eb00028e 	bl	13e3c <pvPortMalloc>
   13400:	e50b0008 	str	r0, [fp, #-8]
   13404:	e51b3008 	ldr	r3, [fp, #-8]
   13408:	e3530000 	cmp	r3, #0
   1340c:	0a00001b 	beq	13480 <prvAllocateTCBAndStack+0xa0>
   13410:	e51b3014 	ldr	r3, [fp, #-20]	; 0xffffffec
   13414:	e3530000 	cmp	r3, #0
   13418:	1a000005 	bne	13434 <prvAllocateTCBAndStack+0x54>
   1341c:	e15b30be 	ldrh	r3, [fp, #-14]
   13420:	e1a03103 	lsl	r3, r3, #2
   13424:	e1a00003 	mov	r0, r3
   13428:	eb000283 	bl	13e3c <pvPortMalloc>
   1342c:	e1a03000 	mov	r3, r0
   13430:	ea000000 	b	13438 <prvAllocateTCBAndStack+0x58>
   13434:	e51b3014 	ldr	r3, [fp, #-20]	; 0xffffffec
   13438:	e51b2008 	ldr	r2, [fp, #-8]
   1343c:	e5823030 	str	r3, [r2, #48]	; 0x30
   13440:	e51b3008 	ldr	r3, [fp, #-8]
   13444:	e5933030 	ldr	r3, [r3, #48]	; 0x30
   13448:	e3530000 	cmp	r3, #0
   1344c:	1a000004 	bne	13464 <prvAllocateTCBAndStack+0x84>
   13450:	e51b0008 	ldr	r0, [fp, #-8]
   13454:	eb0002ea 	bl	14004 <vPortFree>
   13458:	e3a03000 	mov	r3, #0
   1345c:	e50b3008 	str	r3, [fp, #-8]
   13460:	ea000006 	b	13480 <prvAllocateTCBAndStack+0xa0>
   13464:	e51b3008 	ldr	r3, [fp, #-8]
   13468:	e5930030 	ldr	r0, [r3, #48]	; 0x30
   1346c:	e15b30be 	ldrh	r3, [fp, #-14]
   13470:	e1a03103 	lsl	r3, r3, #2
   13474:	e1a02003 	mov	r2, r3
   13478:	e3a010a5 	mov	r1, #165	; 0xa5
   1347c:	eb000434 	bl	14554 <memset>
   13480:	e51b3008 	ldr	r3, [fp, #-8]
   13484:	e1a00003 	mov	r0, r3
   13488:	e24bd004 	sub	sp, fp, #4
   1348c:	e8bd8800 	pop	{fp, pc}

00013490 <prvDeleteTCB>:
   13490:	e92d4800 	push	{fp, lr}
   13494:	e28db004 	add	fp, sp, #4
   13498:	e24dd008 	sub	sp, sp, #8
   1349c:	e50b0008 	str	r0, [fp, #-8]
   134a0:	e51b3008 	ldr	r3, [fp, #-8]
   134a4:	e5933030 	ldr	r3, [r3, #48]	; 0x30
   134a8:	e1a00003 	mov	r0, r3
   134ac:	eb0002d4 	bl	14004 <vPortFree>
   134b0:	e51b0008 	ldr	r0, [fp, #-8]
   134b4:	eb0002d2 	bl	14004 <vPortFree>
   134b8:	e320f000 	nop	{0}
   134bc:	e24bd004 	sub	sp, fp, #4
   134c0:	e8bd8800 	pop	{fp, pc}

000134c4 <handleRange>:
   134c4:	e92d4800 	push	{fp, lr}
   134c8:	e28db004 	add	fp, sp, #4
   134cc:	e24dd010 	sub	sp, sp, #16
   134d0:	e50b0010 	str	r0, [fp, #-16]
   134d4:	e50b1014 	str	r1, [fp, #-20]	; 0xffffffec
   134d8:	ea00001e 	b	13558 <handleRange+0x94>
   134dc:	e51b3010 	ldr	r3, [fp, #-16]
   134e0:	e16f3f13 	clz	r3, r3
   134e4:	e263301f 	rsb	r3, r3, #31
   134e8:	e50b3008 	str	r3, [fp, #-8]
   134ec:	e51b2014 	ldr	r2, [fp, #-20]	; 0xffffffec
   134f0:	e51b3008 	ldr	r3, [fp, #-8]
   134f4:	e0823003 	add	r3, r2, r3
   134f8:	e50b300c 	str	r3, [fp, #-12]
   134fc:	e59f206c 	ldr	r2, [pc, #108]	; 13570 <handleRange+0xac>
   13500:	e51b300c 	ldr	r3, [fp, #-12]
   13504:	e7923183 	ldr	r3, [r2, r3, lsl #3]
   13508:	e3530000 	cmp	r3, #0
   1350c:	0a00000a 	beq	1353c <handleRange+0x78>
   13510:	e59f2058 	ldr	r2, [pc, #88]	; 13570 <handleRange+0xac>
   13514:	e51b300c 	ldr	r3, [fp, #-12]
   13518:	e7922183 	ldr	r2, [r2, r3, lsl #3]
   1351c:	e59f104c 	ldr	r1, [pc, #76]	; 13570 <handleRange+0xac>
   13520:	e51b300c 	ldr	r3, [fp, #-12]
   13524:	e1a03183 	lsl	r3, r3, #3
   13528:	e0813003 	add	r3, r1, r3
   1352c:	e5933004 	ldr	r3, [r3, #4]
   13530:	e1a01003 	mov	r1, r3
   13534:	e51b000c 	ldr	r0, [fp, #-12]
   13538:	e12fff32 	blx	r2
   1353c:	e3a02001 	mov	r2, #1
   13540:	e51b3008 	ldr	r3, [fp, #-8]
   13544:	e1a03312 	lsl	r3, r2, r3
   13548:	e1e03003 	mvn	r3, r3
   1354c:	e51b2010 	ldr	r2, [fp, #-16]
   13550:	e0033002 	and	r3, r3, r2
   13554:	e50b3010 	str	r3, [fp, #-16]
   13558:	e51b3010 	ldr	r3, [fp, #-16]
   1355c:	e3530000 	cmp	r3, #0
   13560:	1affffdd 	bne	134dc <handleRange+0x18>
   13564:	e320f000 	nop	{0}
   13568:	e24bd004 	sub	sp, fp, #4
   1356c:	e8bd8800 	pop	{fp, pc}
   13570:	000148dc 	ldrdeq	r4, [r1], -ip

00013574 <irqHandler>:
   13574:	e92d4830 	push	{r4, r5, fp, lr}
   13578:	e28db00c 	add	fp, sp, #12
   1357c:	e59f3088 	ldr	r3, [pc, #136]	; 1360c <irqHandler+0x98>
   13580:	e5934000 	ldr	r4, [r3]
   13584:	e2043c01 	and	r3, r4, #256	; 0x100
   13588:	e3530000 	cmp	r3, #0
   1358c:	0a000007 	beq	135b0 <irqHandler+0x3c>
   13590:	e59f3074 	ldr	r3, [pc, #116]	; 1360c <irqHandler+0x98>
   13594:	e5932004 	ldr	r2, [r3, #4]
   13598:	e59f3070 	ldr	r3, [pc, #112]	; 13610 <irqHandler+0x9c>
   1359c:	e5933000 	ldr	r3, [r3]
   135a0:	e0033002 	and	r3, r3, r2
   135a4:	e3a01000 	mov	r1, #0
   135a8:	e1a00003 	mov	r0, r3
   135ac:	ebffffc4 	bl	134c4 <handleRange>
   135b0:	e2043c02 	and	r3, r4, #512	; 0x200
   135b4:	e3530000 	cmp	r3, #0
   135b8:	0a000007 	beq	135dc <irqHandler+0x68>
   135bc:	e59f3048 	ldr	r3, [pc, #72]	; 1360c <irqHandler+0x98>
   135c0:	e5932008 	ldr	r2, [r3, #8]
   135c4:	e59f3044 	ldr	r3, [pc, #68]	; 13610 <irqHandler+0x9c>
   135c8:	e5933004 	ldr	r3, [r3, #4]
   135cc:	e0033002 	and	r3, r3, r2
   135d0:	e3a01020 	mov	r1, #32
   135d4:	e1a00003 	mov	r0, r3
   135d8:	ebffffb9 	bl	134c4 <handleRange>
   135dc:	e6ef3074 	uxtb	r3, r4
   135e0:	e3530000 	cmp	r3, #0
   135e4:	0a000006 	beq	13604 <irqHandler+0x90>
   135e8:	e59f3020 	ldr	r3, [pc, #32]	; 13610 <irqHandler+0x9c>
   135ec:	e5933008 	ldr	r3, [r3, #8]
   135f0:	e0033004 	and	r3, r3, r4
   135f4:	e6ef3073 	uxtb	r3, r3
   135f8:	e3a01040 	mov	r1, #64	; 0x40
   135fc:	e1a00003 	mov	r0, r3
   13600:	ebffffaf 	bl	134c4 <handleRange>
   13604:	e320f000 	nop	{0}
   13608:	e8bd8830 	pop	{r4, r5, fp, pc}
   1360c:	2000b200 	andcs	fp, r0, r0, lsl #4
   13610:	00014b1c 	andeq	r4, r1, ip, lsl fp

00013614 <irqUnblock>:
   13614:	e52db004 	push	{fp}		; (str fp, [sp, #-4]!)
   13618:	e28db000 	add	fp, sp, #0
   1361c:	f1080080 	cpsie	i
   13620:	e320f000 	nop	{0}
   13624:	e28bd000 	add	sp, fp, #0
   13628:	e49db004 	pop	{fp}		; (ldr fp, [sp], #4)
   1362c:	e12fff1e 	bx	lr

00013630 <irqBlock>:
   13630:	e52db004 	push	{fp}		; (str fp, [sp, #-4]!)
   13634:	e28db000 	add	fp, sp, #0
   13638:	f10c0080 	cpsid	i
   1363c:	e320f000 	nop	{0}
   13640:	e28bd000 	add	sp, fp, #0
   13644:	e49db004 	pop	{fp}		; (ldr fp, [sp], #4)
   13648:	e12fff1e 	bx	lr

0001364c <irqRegister>:
   1364c:	e92d4800 	push	{fp, lr}
   13650:	e28db004 	add	fp, sp, #4
   13654:	e24dd010 	sub	sp, sp, #16
   13658:	e50b0008 	str	r0, [fp, #-8]
   1365c:	e50b100c 	str	r1, [fp, #-12]
   13660:	e50b2010 	str	r2, [fp, #-16]
   13664:	e51b3008 	ldr	r3, [fp, #-8]
   13668:	e3530047 	cmp	r3, #71	; 0x47
   1366c:	8a00000b 	bhi	136a0 <irqRegister+0x54>
   13670:	ebffffee 	bl	13630 <irqBlock>
   13674:	e59f1030 	ldr	r1, [pc, #48]	; 136ac <irqRegister+0x60>
   13678:	e51b3008 	ldr	r3, [fp, #-8]
   1367c:	e51b200c 	ldr	r2, [fp, #-12]
   13680:	e7812183 	str	r2, [r1, r3, lsl #3]
   13684:	e59f2020 	ldr	r2, [pc, #32]	; 136ac <irqRegister+0x60>
   13688:	e51b3008 	ldr	r3, [fp, #-8]
   1368c:	e1a03183 	lsl	r3, r3, #3
   13690:	e0823003 	add	r3, r2, r3
   13694:	e51b2010 	ldr	r2, [fp, #-16]
   13698:	e5832004 	str	r2, [r3, #4]
   1369c:	ebffffdc 	bl	13614 <irqUnblock>
   136a0:	e320f000 	nop	{0}
   136a4:	e24bd004 	sub	sp, fp, #4
   136a8:	e8bd8800 	pop	{fp, pc}
   136ac:	000148dc 	ldrdeq	r4, [r1], -ip

000136b0 <irqEnable>:
   136b0:	e52db004 	push	{fp}		; (str fp, [sp, #-4]!)
   136b4:	e28db000 	add	fp, sp, #0
   136b8:	e24dd014 	sub	sp, sp, #20
   136bc:	e50b0010 	str	r0, [fp, #-16]
   136c0:	e51b3010 	ldr	r3, [fp, #-16]
   136c4:	e203301f 	and	r3, r3, #31
   136c8:	e3a02001 	mov	r2, #1
   136cc:	e1a03312 	lsl	r3, r2, r3
   136d0:	e50b3008 	str	r3, [fp, #-8]
   136d4:	e51b3010 	ldr	r3, [fp, #-16]
   136d8:	e353001f 	cmp	r3, #31
   136dc:	8a000009 	bhi	13708 <irqEnable+0x58>
   136e0:	e59f2094 	ldr	r2, [pc, #148]	; 1377c <irqEnable+0xcc>
   136e4:	e51b3008 	ldr	r3, [fp, #-8]
   136e8:	e5823010 	str	r3, [r2, #16]
   136ec:	e59f308c 	ldr	r3, [pc, #140]	; 13780 <irqEnable+0xd0>
   136f0:	e5932000 	ldr	r2, [r3]
   136f4:	e51b3008 	ldr	r3, [fp, #-8]
   136f8:	e1823003 	orr	r3, r2, r3
   136fc:	e59f207c 	ldr	r2, [pc, #124]	; 13780 <irqEnable+0xd0>
   13700:	e5823000 	str	r3, [r2]
   13704:	ea000018 	b	1376c <irqEnable+0xbc>
   13708:	e51b3010 	ldr	r3, [fp, #-16]
   1370c:	e353003f 	cmp	r3, #63	; 0x3f
   13710:	8a000009 	bhi	1373c <irqEnable+0x8c>
   13714:	e59f2060 	ldr	r2, [pc, #96]	; 1377c <irqEnable+0xcc>
   13718:	e51b3008 	ldr	r3, [fp, #-8]
   1371c:	e5823014 	str	r3, [r2, #20]
   13720:	e59f3058 	ldr	r3, [pc, #88]	; 13780 <irqEnable+0xd0>
   13724:	e5932004 	ldr	r2, [r3, #4]
   13728:	e51b3008 	ldr	r3, [fp, #-8]
   1372c:	e1823003 	orr	r3, r2, r3
   13730:	e59f2048 	ldr	r2, [pc, #72]	; 13780 <irqEnable+0xd0>
   13734:	e5823004 	str	r3, [r2, #4]
   13738:	ea00000b 	b	1376c <irqEnable+0xbc>
   1373c:	e51b3010 	ldr	r3, [fp, #-16]
   13740:	e3530047 	cmp	r3, #71	; 0x47
   13744:	8a000008 	bhi	1376c <irqEnable+0xbc>
   13748:	e59f202c 	ldr	r2, [pc, #44]	; 1377c <irqEnable+0xcc>
   1374c:	e51b3008 	ldr	r3, [fp, #-8]
   13750:	e5823018 	str	r3, [r2, #24]
   13754:	e59f3024 	ldr	r3, [pc, #36]	; 13780 <irqEnable+0xd0>
   13758:	e5932008 	ldr	r2, [r3, #8]
   1375c:	e51b3008 	ldr	r3, [fp, #-8]
   13760:	e1823003 	orr	r3, r2, r3
   13764:	e59f2014 	ldr	r2, [pc, #20]	; 13780 <irqEnable+0xd0>
   13768:	e5823008 	str	r3, [r2, #8]
   1376c:	e320f000 	nop	{0}
   13770:	e28bd000 	add	sp, fp, #0
   13774:	e49db004 	pop	{fp}		; (ldr fp, [sp], #4)
   13778:	e12fff1e 	bx	lr
   1377c:	2000b200 	andcs	fp, r0, r0, lsl #4
   13780:	00014b1c 	andeq	r4, r1, ip, lsl fp

00013784 <irqDisable>:
   13784:	e52db004 	push	{fp}		; (str fp, [sp, #-4]!)
   13788:	e28db000 	add	fp, sp, #0
   1378c:	e24dd014 	sub	sp, sp, #20
   13790:	e50b0010 	str	r0, [fp, #-16]
   13794:	e51b3010 	ldr	r3, [fp, #-16]
   13798:	e203301f 	and	r3, r3, #31
   1379c:	e3a02001 	mov	r2, #1
   137a0:	e1a03312 	lsl	r3, r2, r3
   137a4:	e50b3008 	str	r3, [fp, #-8]
   137a8:	e51b3010 	ldr	r3, [fp, #-16]
   137ac:	e353001f 	cmp	r3, #31
   137b0:	8a00000a 	bhi	137e0 <irqDisable+0x5c>
   137b4:	e59f20a0 	ldr	r2, [pc, #160]	; 1385c <irqDisable+0xd8>
   137b8:	e51b3008 	ldr	r3, [fp, #-8]
   137bc:	e582301c 	str	r3, [r2, #28]
   137c0:	e59f3098 	ldr	r3, [pc, #152]	; 13860 <irqDisable+0xdc>
   137c4:	e5932000 	ldr	r2, [r3]
   137c8:	e51b3008 	ldr	r3, [fp, #-8]
   137cc:	e1e03003 	mvn	r3, r3
   137d0:	e0033002 	and	r3, r3, r2
   137d4:	e59f2084 	ldr	r2, [pc, #132]	; 13860 <irqDisable+0xdc>
   137d8:	e5823000 	str	r3, [r2]
   137dc:	ea00001a 	b	1384c <irqDisable+0xc8>
   137e0:	e51b3010 	ldr	r3, [fp, #-16]
   137e4:	e353003f 	cmp	r3, #63	; 0x3f
   137e8:	8a00000a 	bhi	13818 <irqDisable+0x94>
   137ec:	e59f2068 	ldr	r2, [pc, #104]	; 1385c <irqDisable+0xd8>
   137f0:	e51b3008 	ldr	r3, [fp, #-8]
   137f4:	e5823020 	str	r3, [r2, #32]
   137f8:	e59f3060 	ldr	r3, [pc, #96]	; 13860 <irqDisable+0xdc>
   137fc:	e5932004 	ldr	r2, [r3, #4]
   13800:	e51b3008 	ldr	r3, [fp, #-8]
   13804:	e1e03003 	mvn	r3, r3
   13808:	e0033002 	and	r3, r3, r2
   1380c:	e59f204c 	ldr	r2, [pc, #76]	; 13860 <irqDisable+0xdc>
   13810:	e5823004 	str	r3, [r2, #4]
   13814:	ea00000c 	b	1384c <irqDisable+0xc8>
   13818:	e51b3010 	ldr	r3, [fp, #-16]
   1381c:	e3530047 	cmp	r3, #71	; 0x47
   13820:	8a000009 	bhi	1384c <irqDisable+0xc8>
   13824:	e59f2030 	ldr	r2, [pc, #48]	; 1385c <irqDisable+0xd8>
   13828:	e51b3008 	ldr	r3, [fp, #-8]
   1382c:	e5823024 	str	r3, [r2, #36]	; 0x24
   13830:	e59f3028 	ldr	r3, [pc, #40]	; 13860 <irqDisable+0xdc>
   13834:	e5932008 	ldr	r2, [r3, #8]
   13838:	e51b3008 	ldr	r3, [fp, #-8]
   1383c:	e1e03003 	mvn	r3, r3
   13840:	e0033002 	and	r3, r3, r2
   13844:	e59f2014 	ldr	r2, [pc, #20]	; 13860 <irqDisable+0xdc>
   13848:	e5823008 	str	r3, [r2, #8]
   1384c:	e320f000 	nop	{0}
   13850:	e28bd000 	add	sp, fp, #0
   13854:	e49db004 	pop	{fp}		; (ldr fp, [sp], #4)
   13858:	e12fff1e 	bx	lr
   1385c:	2000b200 	andcs	fp, r0, r0, lsl #4
   13860:	00014b1c 	andeq	r4, r1, ip, lsl fp

00013864 <SetGpioFunction>:
   13864:	e52db004 	push	{fp}		; (str fp, [sp, #-4]!)
   13868:	e28db000 	add	fp, sp, #0
   1386c:	e24dd01c 	sub	sp, sp, #28
   13870:	e50b0018 	str	r0, [fp, #-24]	; 0xffffffe8
   13874:	e50b101c 	str	r1, [fp, #-28]	; 0xffffffe4
   13878:	e51b3018 	ldr	r3, [fp, #-24]	; 0xffffffe8
   1387c:	e59f20b4 	ldr	r2, [pc, #180]	; 13938 <SetGpioFunction+0xd4>
   13880:	e0832293 	umull	r2, r3, r3, r2
   13884:	e1a031a3 	lsr	r3, r3, #3
   13888:	e50b3008 	str	r3, [fp, #-8]
   1388c:	e59f20a8 	ldr	r2, [pc, #168]	; 1393c <SetGpioFunction+0xd8>
   13890:	e51b3008 	ldr	r3, [fp, #-8]
   13894:	e7923103 	ldr	r3, [r2, r3, lsl #2]
   13898:	e50b300c 	str	r3, [fp, #-12]
   1389c:	e51b1018 	ldr	r1, [fp, #-24]	; 0xffffffe8
   138a0:	e59f3090 	ldr	r3, [pc, #144]	; 13938 <SetGpioFunction+0xd4>
   138a4:	e0832391 	umull	r2, r3, r1, r3
   138a8:	e1a021a3 	lsr	r2, r3, #3
   138ac:	e1a03002 	mov	r3, r2
   138b0:	e1a03103 	lsl	r3, r3, #2
   138b4:	e0833002 	add	r3, r3, r2
   138b8:	e1a03083 	lsl	r3, r3, #1
   138bc:	e0412003 	sub	r2, r1, r3
   138c0:	e50b2010 	str	r2, [fp, #-16]
   138c4:	e51b2010 	ldr	r2, [fp, #-16]
   138c8:	e1a03002 	mov	r3, r2
   138cc:	e1a03083 	lsl	r3, r3, #1
   138d0:	e0833002 	add	r3, r3, r2
   138d4:	e3a02007 	mov	r2, #7
   138d8:	e1a03312 	lsl	r3, r2, r3
   138dc:	e1e03003 	mvn	r3, r3
   138e0:	e1a02003 	mov	r2, r3
   138e4:	e51b300c 	ldr	r3, [fp, #-12]
   138e8:	e0033002 	and	r3, r3, r2
   138ec:	e50b300c 	str	r3, [fp, #-12]
   138f0:	e51b301c 	ldr	r3, [fp, #-28]	; 0xffffffe4
   138f4:	e2031007 	and	r1, r3, #7
   138f8:	e51b2010 	ldr	r2, [fp, #-16]
   138fc:	e1a03002 	mov	r3, r2
   13900:	e1a03083 	lsl	r3, r3, #1
   13904:	e0833002 	add	r3, r3, r2
   13908:	e1a03311 	lsl	r3, r1, r3
   1390c:	e51b200c 	ldr	r2, [fp, #-12]
   13910:	e1823003 	orr	r3, r2, r3
   13914:	e50b300c 	str	r3, [fp, #-12]
   13918:	e59f101c 	ldr	r1, [pc, #28]	; 1393c <SetGpioFunction+0xd8>
   1391c:	e51b3008 	ldr	r3, [fp, #-8]
   13920:	e51b200c 	ldr	r2, [fp, #-12]
   13924:	e7812103 	str	r2, [r1, r3, lsl #2]
   13928:	e320f000 	nop	{0}
   1392c:	e28bd000 	add	sp, fp, #0
   13930:	e49db004 	pop	{fp}		; (ldr fp, [sp], #4)
   13934:	e12fff1e 	bx	lr
   13938:	cccccccd 	stclgt	12, cr12, [ip], {205}	; 0xcd
   1393c:	20200000 	eorcs	r0, r0, r0

00013940 <SetGpioDirection>:
   13940:	e92d4800 	push	{fp, lr}
   13944:	e28db004 	add	fp, sp, #4
   13948:	e24dd008 	sub	sp, sp, #8
   1394c:	e50b0008 	str	r0, [fp, #-8]
   13950:	e1a03001 	mov	r3, r1
   13954:	e54b3009 	strb	r3, [fp, #-9]
   13958:	e55b3009 	ldrb	r3, [fp, #-9]
   1395c:	e1a01003 	mov	r1, r3
   13960:	e51b0008 	ldr	r0, [fp, #-8]
   13964:	ebffffbe 	bl	13864 <SetGpioFunction>
   13968:	e320f000 	nop	{0}
   1396c:	e24bd004 	sub	sp, fp, #4
   13970:	e8bd8800 	pop	{fp, pc}

00013974 <SetGpio>:
   13974:	e52db004 	push	{fp}		; (str fp, [sp, #-4]!)
   13978:	e28db000 	add	fp, sp, #0
   1397c:	e24dd014 	sub	sp, sp, #20
   13980:	e50b0010 	str	r0, [fp, #-16]
   13984:	e50b1014 	str	r1, [fp, #-20]	; 0xffffffec
   13988:	e51b3010 	ldr	r3, [fp, #-16]
   1398c:	e1a032a3 	lsr	r3, r3, #5
   13990:	e50b3008 	str	r3, [fp, #-8]
   13994:	e51b3010 	ldr	r3, [fp, #-16]
   13998:	e203301f 	and	r3, r3, #31
   1399c:	e3a02001 	mov	r2, #1
   139a0:	e1a03312 	lsl	r3, r2, r3
   139a4:	e50b300c 	str	r3, [fp, #-12]
   139a8:	e51b3014 	ldr	r3, [fp, #-20]	; 0xffffffec
   139ac:	e3530000 	cmp	r3, #0
   139b0:	0a00000e 	beq	139f0 <SetGpio+0x7c>
   139b4:	e59f206c 	ldr	r2, [pc, #108]	; 13a28 <SetGpio+0xb4>
   139b8:	e51b3008 	ldr	r3, [fp, #-8]
   139bc:	e2833006 	add	r3, r3, #6
   139c0:	e1a03103 	lsl	r3, r3, #2
   139c4:	e0823003 	add	r3, r2, r3
   139c8:	e5932004 	ldr	r2, [r3, #4]
   139cc:	e59f1054 	ldr	r1, [pc, #84]	; 13a28 <SetGpio+0xb4>
   139d0:	e51b300c 	ldr	r3, [fp, #-12]
   139d4:	e1822003 	orr	r2, r2, r3
   139d8:	e51b3008 	ldr	r3, [fp, #-8]
   139dc:	e2833006 	add	r3, r3, #6
   139e0:	e1a03103 	lsl	r3, r3, #2
   139e4:	e0813003 	add	r3, r1, r3
   139e8:	e5832004 	str	r2, [r3, #4]
   139ec:	ea000009 	b	13a18 <SetGpio+0xa4>
   139f0:	e59f2030 	ldr	r2, [pc, #48]	; 13a28 <SetGpio+0xb4>
   139f4:	e51b3008 	ldr	r3, [fp, #-8]
   139f8:	e283300a 	add	r3, r3, #10
   139fc:	e7922103 	ldr	r2, [r2, r3, lsl #2]
   13a00:	e59f1020 	ldr	r1, [pc, #32]	; 13a28 <SetGpio+0xb4>
   13a04:	e51b300c 	ldr	r3, [fp, #-12]
   13a08:	e1822003 	orr	r2, r2, r3
   13a0c:	e51b3008 	ldr	r3, [fp, #-8]
   13a10:	e283300a 	add	r3, r3, #10
   13a14:	e7812103 	str	r2, [r1, r3, lsl #2]
   13a18:	e320f000 	nop	{0}
   13a1c:	e28bd000 	add	sp, fp, #0
   13a20:	e49db004 	pop	{fp}		; (ldr fp, [sp], #4)
   13a24:	e12fff1e 	bx	lr
   13a28:	20200000 	eorcs	r0, r0, r0

00013a2c <ReadGpio>:
   13a2c:	e52db004 	push	{fp}		; (str fp, [sp, #-4]!)
   13a30:	e28db000 	add	fp, sp, #0
   13a34:	e24dd00c 	sub	sp, sp, #12
   13a38:	e50b0008 	str	r0, [fp, #-8]
   13a3c:	e59f2034 	ldr	r2, [pc, #52]	; 13a78 <ReadGpio+0x4c>
   13a40:	e51b3008 	ldr	r3, [fp, #-8]
   13a44:	e1a032a3 	lsr	r3, r3, #5
   13a48:	e283300c 	add	r3, r3, #12
   13a4c:	e1a03103 	lsl	r3, r3, #2
   13a50:	e0823003 	add	r3, r2, r3
   13a54:	e5932004 	ldr	r2, [r3, #4]
   13a58:	e51b3008 	ldr	r3, [fp, #-8]
   13a5c:	e203301f 	and	r3, r3, #31
   13a60:	e1a03332 	lsr	r3, r2, r3
   13a64:	e2033001 	and	r3, r3, #1
   13a68:	e1a00003 	mov	r0, r3
   13a6c:	e28bd000 	add	sp, fp, #0
   13a70:	e49db004 	pop	{fp}		; (ldr fp, [sp], #4)
   13a74:	e12fff1e 	bx	lr
   13a78:	20200000 	eorcs	r0, r0, r0

00013a7c <EnableGpioDetect>:
   13a7c:	e52db004 	push	{fp}		; (str fp, [sp, #-4]!)
   13a80:	e28db000 	add	fp, sp, #0
   13a84:	e24dd014 	sub	sp, sp, #20
   13a88:	e50b0010 	str	r0, [fp, #-16]
   13a8c:	e1a03001 	mov	r3, r1
   13a90:	e54b3011 	strb	r3, [fp, #-17]	; 0xffffffef
   13a94:	e3a02001 	mov	r2, #1
   13a98:	e51b3010 	ldr	r3, [fp, #-16]
   13a9c:	e1a03312 	lsl	r3, r2, r3
   13aa0:	e50b3008 	str	r3, [fp, #-8]
   13aa4:	e51b3010 	ldr	r3, [fp, #-16]
   13aa8:	e1a032a3 	lsr	r3, r3, #5
   13aac:	e50b300c 	str	r3, [fp, #-12]
   13ab0:	e55b3011 	ldrb	r3, [fp, #-17]	; 0xffffffef
   13ab4:	e3530006 	cmp	r3, #6
   13ab8:	979ff103 	ldrls	pc, [pc, r3, lsl #2]
   13abc:	ea000055 	b	13c18 <EnableGpioDetect+0x19c>
   13ac0:	00013c14 	andeq	r3, r1, r4, lsl ip
   13ac4:	00013adc 	ldrdeq	r3, [r1], -ip
   13ac8:	00013b18 	andeq	r3, r1, r8, lsl fp
   13acc:	00013b44 	andeq	r3, r1, r4, asr #22
   13ad0:	00013b80 	andeq	r3, r1, r0, lsl #23
   13ad4:	00013bac 	andeq	r3, r1, ip, lsr #23
   13ad8:	00013be8 	andeq	r3, r1, r8, ror #23
   13adc:	e59f2144 	ldr	r2, [pc, #324]	; 13c28 <EnableGpioDetect+0x1ac>
   13ae0:	e51b300c 	ldr	r3, [fp, #-12]
   13ae4:	e2833012 	add	r3, r3, #18
   13ae8:	e1a03103 	lsl	r3, r3, #2
   13aec:	e0823003 	add	r3, r2, r3
   13af0:	e5932004 	ldr	r2, [r3, #4]
   13af4:	e59f112c 	ldr	r1, [pc, #300]	; 13c28 <EnableGpioDetect+0x1ac>
   13af8:	e51b3008 	ldr	r3, [fp, #-8]
   13afc:	e1822003 	orr	r2, r2, r3
   13b00:	e51b300c 	ldr	r3, [fp, #-12]
   13b04:	e2833012 	add	r3, r3, #18
   13b08:	e1a03103 	lsl	r3, r3, #2
   13b0c:	e0813003 	add	r3, r1, r3
   13b10:	e5832004 	str	r2, [r3, #4]
   13b14:	ea00003f 	b	13c18 <EnableGpioDetect+0x19c>
   13b18:	e59f2108 	ldr	r2, [pc, #264]	; 13c28 <EnableGpioDetect+0x1ac>
   13b1c:	e51b300c 	ldr	r3, [fp, #-12]
   13b20:	e2833016 	add	r3, r3, #22
   13b24:	e7922103 	ldr	r2, [r2, r3, lsl #2]
   13b28:	e59f10f8 	ldr	r1, [pc, #248]	; 13c28 <EnableGpioDetect+0x1ac>
   13b2c:	e51b3008 	ldr	r3, [fp, #-8]
   13b30:	e1822003 	orr	r2, r2, r3
   13b34:	e51b300c 	ldr	r3, [fp, #-12]
   13b38:	e2833016 	add	r3, r3, #22
   13b3c:	e7812103 	str	r2, [r1, r3, lsl #2]
   13b40:	ea000034 	b	13c18 <EnableGpioDetect+0x19c>
   13b44:	e59f20dc 	ldr	r2, [pc, #220]	; 13c28 <EnableGpioDetect+0x1ac>
   13b48:	e51b300c 	ldr	r3, [fp, #-12]
   13b4c:	e2833018 	add	r3, r3, #24
   13b50:	e1a03103 	lsl	r3, r3, #2
   13b54:	e0823003 	add	r3, r2, r3
   13b58:	e5932004 	ldr	r2, [r3, #4]
   13b5c:	e59f10c4 	ldr	r1, [pc, #196]	; 13c28 <EnableGpioDetect+0x1ac>
   13b60:	e51b3008 	ldr	r3, [fp, #-8]
   13b64:	e1822003 	orr	r2, r2, r3
   13b68:	e51b300c 	ldr	r3, [fp, #-12]
   13b6c:	e2833018 	add	r3, r3, #24
   13b70:	e1a03103 	lsl	r3, r3, #2
   13b74:	e0813003 	add	r3, r1, r3
   13b78:	e5832004 	str	r2, [r3, #4]
   13b7c:	ea000025 	b	13c18 <EnableGpioDetect+0x19c>
   13b80:	e59f20a0 	ldr	r2, [pc, #160]	; 13c28 <EnableGpioDetect+0x1ac>
   13b84:	e51b300c 	ldr	r3, [fp, #-12]
   13b88:	e283301c 	add	r3, r3, #28
   13b8c:	e7922103 	ldr	r2, [r2, r3, lsl #2]
   13b90:	e59f1090 	ldr	r1, [pc, #144]	; 13c28 <EnableGpioDetect+0x1ac>
   13b94:	e51b3008 	ldr	r3, [fp, #-8]
   13b98:	e1822003 	orr	r2, r2, r3
   13b9c:	e51b300c 	ldr	r3, [fp, #-12]
   13ba0:	e283301c 	add	r3, r3, #28
   13ba4:	e7812103 	str	r2, [r1, r3, lsl #2]
   13ba8:	ea00001a 	b	13c18 <EnableGpioDetect+0x19c>
   13bac:	e59f2074 	ldr	r2, [pc, #116]	; 13c28 <EnableGpioDetect+0x1ac>
   13bb0:	e51b300c 	ldr	r3, [fp, #-12]
   13bb4:	e283301e 	add	r3, r3, #30
   13bb8:	e1a03103 	lsl	r3, r3, #2
   13bbc:	e0823003 	add	r3, r2, r3
   13bc0:	e5932004 	ldr	r2, [r3, #4]
   13bc4:	e59f105c 	ldr	r1, [pc, #92]	; 13c28 <EnableGpioDetect+0x1ac>
   13bc8:	e51b3008 	ldr	r3, [fp, #-8]
   13bcc:	e1822003 	orr	r2, r2, r3
   13bd0:	e51b300c 	ldr	r3, [fp, #-12]
   13bd4:	e283301e 	add	r3, r3, #30
   13bd8:	e1a03103 	lsl	r3, r3, #2
   13bdc:	e0813003 	add	r3, r1, r3
   13be0:	e5832004 	str	r2, [r3, #4]
   13be4:	ea00000b 	b	13c18 <EnableGpioDetect+0x19c>
   13be8:	e59f2038 	ldr	r2, [pc, #56]	; 13c28 <EnableGpioDetect+0x1ac>
   13bec:	e51b300c 	ldr	r3, [fp, #-12]
   13bf0:	e2833022 	add	r3, r3, #34	; 0x22
   13bf4:	e7922103 	ldr	r2, [r2, r3, lsl #2]
   13bf8:	e59f1028 	ldr	r1, [pc, #40]	; 13c28 <EnableGpioDetect+0x1ac>
   13bfc:	e51b3008 	ldr	r3, [fp, #-8]
   13c00:	e1822003 	orr	r2, r2, r3
   13c04:	e51b300c 	ldr	r3, [fp, #-12]
   13c08:	e2833022 	add	r3, r3, #34	; 0x22
   13c0c:	e7812103 	str	r2, [r1, r3, lsl #2]
   13c10:	ea000000 	b	13c18 <EnableGpioDetect+0x19c>
   13c14:	e320f000 	nop	{0}
   13c18:	e320f000 	nop	{0}
   13c1c:	e28bd000 	add	sp, fp, #0
   13c20:	e49db004 	pop	{fp}		; (ldr fp, [sp], #4)
   13c24:	e12fff1e 	bx	lr
   13c28:	20200000 	eorcs	r0, r0, r0

00013c2c <DisableGpioDetect>:
   13c2c:	e52db004 	push	{fp}		; (str fp, [sp, #-4]!)
   13c30:	e28db000 	add	fp, sp, #0
   13c34:	e24dd014 	sub	sp, sp, #20
   13c38:	e50b0010 	str	r0, [fp, #-16]
   13c3c:	e1a03001 	mov	r3, r1
   13c40:	e54b3011 	strb	r3, [fp, #-17]	; 0xffffffef
   13c44:	e51b3010 	ldr	r3, [fp, #-16]
   13c48:	e203301f 	and	r3, r3, #31
   13c4c:	e3a02001 	mov	r2, #1
   13c50:	e1a03312 	lsl	r3, r2, r3
   13c54:	e1e03003 	mvn	r3, r3
   13c58:	e50b3008 	str	r3, [fp, #-8]
   13c5c:	e51b3010 	ldr	r3, [fp, #-16]
   13c60:	e1a032a3 	lsr	r3, r3, #5
   13c64:	e50b300c 	str	r3, [fp, #-12]
   13c68:	e55b3011 	ldrb	r3, [fp, #-17]	; 0xffffffef
   13c6c:	e3530006 	cmp	r3, #6
   13c70:	979ff103 	ldrls	pc, [pc, r3, lsl #2]
   13c74:	ea000055 	b	13dd0 <DisableGpioDetect+0x1a4>
   13c78:	00013dcc 	andeq	r3, r1, ip, asr #27
   13c7c:	00013c94 	muleq	r1, r4, ip
   13c80:	00013cd0 	ldrdeq	r3, [r1], -r0
   13c84:	00013cfc 	strdeq	r3, [r1], -ip
   13c88:	00013d38 	andeq	r3, r1, r8, lsr sp
   13c8c:	00013d64 	andeq	r3, r1, r4, ror #26
   13c90:	00013da0 	andeq	r3, r1, r0, lsr #27
   13c94:	e59f2144 	ldr	r2, [pc, #324]	; 13de0 <DisableGpioDetect+0x1b4>
   13c98:	e51b300c 	ldr	r3, [fp, #-12]
   13c9c:	e2833012 	add	r3, r3, #18
   13ca0:	e1a03103 	lsl	r3, r3, #2
   13ca4:	e0823003 	add	r3, r2, r3
   13ca8:	e5932004 	ldr	r2, [r3, #4]
   13cac:	e59f112c 	ldr	r1, [pc, #300]	; 13de0 <DisableGpioDetect+0x1b4>
   13cb0:	e51b3008 	ldr	r3, [fp, #-8]
   13cb4:	e0022003 	and	r2, r2, r3
   13cb8:	e51b300c 	ldr	r3, [fp, #-12]
   13cbc:	e2833012 	add	r3, r3, #18
   13cc0:	e1a03103 	lsl	r3, r3, #2
   13cc4:	e0813003 	add	r3, r1, r3
   13cc8:	e5832004 	str	r2, [r3, #4]
   13ccc:	ea00003f 	b	13dd0 <DisableGpioDetect+0x1a4>
   13cd0:	e59f2108 	ldr	r2, [pc, #264]	; 13de0 <DisableGpioDetect+0x1b4>
   13cd4:	e51b300c 	ldr	r3, [fp, #-12]
   13cd8:	e2833016 	add	r3, r3, #22
   13cdc:	e7922103 	ldr	r2, [r2, r3, lsl #2]
   13ce0:	e59f10f8 	ldr	r1, [pc, #248]	; 13de0 <DisableGpioDetect+0x1b4>
   13ce4:	e51b3008 	ldr	r3, [fp, #-8]
   13ce8:	e0022003 	and	r2, r2, r3
   13cec:	e51b300c 	ldr	r3, [fp, #-12]
   13cf0:	e2833016 	add	r3, r3, #22
   13cf4:	e7812103 	str	r2, [r1, r3, lsl #2]
   13cf8:	ea000034 	b	13dd0 <DisableGpioDetect+0x1a4>
   13cfc:	e59f20dc 	ldr	r2, [pc, #220]	; 13de0 <DisableGpioDetect+0x1b4>
   13d00:	e51b300c 	ldr	r3, [fp, #-12]
   13d04:	e2833018 	add	r3, r3, #24
   13d08:	e1a03103 	lsl	r3, r3, #2
   13d0c:	e0823003 	add	r3, r2, r3
   13d10:	e5932004 	ldr	r2, [r3, #4]
   13d14:	e59f10c4 	ldr	r1, [pc, #196]	; 13de0 <DisableGpioDetect+0x1b4>
   13d18:	e51b3008 	ldr	r3, [fp, #-8]
   13d1c:	e0022003 	and	r2, r2, r3
   13d20:	e51b300c 	ldr	r3, [fp, #-12]
   13d24:	e2833018 	add	r3, r3, #24
   13d28:	e1a03103 	lsl	r3, r3, #2
   13d2c:	e0813003 	add	r3, r1, r3
   13d30:	e5832004 	str	r2, [r3, #4]
   13d34:	ea000025 	b	13dd0 <DisableGpioDetect+0x1a4>
   13d38:	e59f20a0 	ldr	r2, [pc, #160]	; 13de0 <DisableGpioDetect+0x1b4>
   13d3c:	e51b300c 	ldr	r3, [fp, #-12]
   13d40:	e283301c 	add	r3, r3, #28
   13d44:	e7922103 	ldr	r2, [r2, r3, lsl #2]
   13d48:	e59f1090 	ldr	r1, [pc, #144]	; 13de0 <DisableGpioDetect+0x1b4>
   13d4c:	e51b3008 	ldr	r3, [fp, #-8]
   13d50:	e0022003 	and	r2, r2, r3
   13d54:	e51b300c 	ldr	r3, [fp, #-12]
   13d58:	e283301c 	add	r3, r3, #28
   13d5c:	e7812103 	str	r2, [r1, r3, lsl #2]
   13d60:	ea00001a 	b	13dd0 <DisableGpioDetect+0x1a4>
   13d64:	e59f2074 	ldr	r2, [pc, #116]	; 13de0 <DisableGpioDetect+0x1b4>
   13d68:	e51b300c 	ldr	r3, [fp, #-12]
   13d6c:	e283301e 	add	r3, r3, #30
   13d70:	e1a03103 	lsl	r3, r3, #2
   13d74:	e0823003 	add	r3, r2, r3
   13d78:	e5932004 	ldr	r2, [r3, #4]
   13d7c:	e59f105c 	ldr	r1, [pc, #92]	; 13de0 <DisableGpioDetect+0x1b4>
   13d80:	e51b3008 	ldr	r3, [fp, #-8]
   13d84:	e0022003 	and	r2, r2, r3
   13d88:	e51b300c 	ldr	r3, [fp, #-12]
   13d8c:	e283301e 	add	r3, r3, #30
   13d90:	e1a03103 	lsl	r3, r3, #2
   13d94:	e0813003 	add	r3, r1, r3
   13d98:	e5832004 	str	r2, [r3, #4]
   13d9c:	ea00000b 	b	13dd0 <DisableGpioDetect+0x1a4>
   13da0:	e59f2038 	ldr	r2, [pc, #56]	; 13de0 <DisableGpioDetect+0x1b4>
   13da4:	e51b300c 	ldr	r3, [fp, #-12]
   13da8:	e2833022 	add	r3, r3, #34	; 0x22
   13dac:	e7922103 	ldr	r2, [r2, r3, lsl #2]
   13db0:	e59f1028 	ldr	r1, [pc, #40]	; 13de0 <DisableGpioDetect+0x1b4>
   13db4:	e51b3008 	ldr	r3, [fp, #-8]
   13db8:	e0022003 	and	r2, r2, r3
   13dbc:	e51b300c 	ldr	r3, [fp, #-12]
   13dc0:	e2833022 	add	r3, r3, #34	; 0x22
   13dc4:	e7812103 	str	r2, [r1, r3, lsl #2]
   13dc8:	ea000000 	b	13dd0 <DisableGpioDetect+0x1a4>
   13dcc:	e320f000 	nop	{0}
   13dd0:	e320f000 	nop	{0}
   13dd4:	e28bd000 	add	sp, fp, #0
   13dd8:	e49db004 	pop	{fp}		; (ldr fp, [sp], #4)
   13ddc:	e12fff1e 	bx	lr
   13de0:	20200000 	eorcs	r0, r0, r0

00013de4 <ClearGpioInterrupt>:
   13de4:	e52db004 	push	{fp}		; (str fp, [sp, #-4]!)
   13de8:	e28db000 	add	fp, sp, #0
   13dec:	e24dd014 	sub	sp, sp, #20
   13df0:	e50b0010 	str	r0, [fp, #-16]
   13df4:	e51b3010 	ldr	r3, [fp, #-16]
   13df8:	e203301f 	and	r3, r3, #31
   13dfc:	e3a02001 	mov	r2, #1
   13e00:	e1a03312 	lsl	r3, r2, r3
   13e04:	e50b3008 	str	r3, [fp, #-8]
   13e08:	e51b3010 	ldr	r3, [fp, #-16]
   13e0c:	e1a032a3 	lsr	r3, r3, #5
   13e10:	e50b300c 	str	r3, [fp, #-12]
   13e14:	e59f101c 	ldr	r1, [pc, #28]	; 13e38 <ClearGpioInterrupt+0x54>
   13e18:	e51b300c 	ldr	r3, [fp, #-12]
   13e1c:	e2833010 	add	r3, r3, #16
   13e20:	e51b2008 	ldr	r2, [fp, #-8]
   13e24:	e7812103 	str	r2, [r1, r3, lsl #2]
   13e28:	e320f000 	nop	{0}
   13e2c:	e28bd000 	add	sp, fp, #0
   13e30:	e49db004 	pop	{fp}		; (ldr fp, [sp], #4)
   13e34:	e12fff1e 	bx	lr
   13e38:	20200000 	eorcs	r0, r0, r0

00013e3c <pvPortMalloc>:
   13e3c:	e92d4800 	push	{fp, lr}
   13e40:	e28db004 	add	fp, sp, #4
   13e44:	e24dd018 	sub	sp, sp, #24
   13e48:	e50b0018 	str	r0, [fp, #-24]	; 0xffffffe8
   13e4c:	e3a03000 	mov	r3, #0
   13e50:	e50b3010 	str	r3, [fp, #-16]
   13e54:	ebfffa23 	bl	126e8 <vTaskSuspendAll>
   13e58:	e59f3194 	ldr	r3, [pc, #404]	; 13ff4 <pvPortMalloc+0x1b8>
   13e5c:	e5933000 	ldr	r3, [r3]
   13e60:	e3530000 	cmp	r3, #0
   13e64:	1a000000 	bne	13e6c <pvPortMalloc+0x30>
   13e68:	eb000093 	bl	140bc <prvHeapInit>
   13e6c:	e51b3018 	ldr	r3, [fp, #-24]	; 0xffffffe8
   13e70:	e3530000 	cmp	r3, #0
   13e74:	0a00000c 	beq	13eac <pvPortMalloc+0x70>
   13e78:	e3a03010 	mov	r3, #16
   13e7c:	e1a02003 	mov	r2, r3
   13e80:	e51b3018 	ldr	r3, [fp, #-24]	; 0xffffffe8
   13e84:	e0833002 	add	r3, r3, r2
   13e88:	e50b3018 	str	r3, [fp, #-24]	; 0xffffffe8
   13e8c:	e51b3018 	ldr	r3, [fp, #-24]	; 0xffffffe8
   13e90:	e2033007 	and	r3, r3, #7
   13e94:	e3530000 	cmp	r3, #0
   13e98:	0a000003 	beq	13eac <pvPortMalloc+0x70>
   13e9c:	e51b3018 	ldr	r3, [fp, #-24]	; 0xffffffe8
   13ea0:	e3c33007 	bic	r3, r3, #7
   13ea4:	e2833008 	add	r3, r3, #8
   13ea8:	e50b3018 	str	r3, [fp, #-24]	; 0xffffffe8
   13eac:	e51b3018 	ldr	r3, [fp, #-24]	; 0xffffffe8
   13eb0:	e3530000 	cmp	r3, #0
   13eb4:	0a000043 	beq	13fc8 <pvPortMalloc+0x18c>
   13eb8:	e3a02a01 	mov	r2, #4096	; 0x1000
   13ebc:	e51b3018 	ldr	r3, [fp, #-24]	; 0xffffffe8
   13ec0:	e1530002 	cmp	r3, r2
   13ec4:	2a00003f 	bcs	13fc8 <pvPortMalloc+0x18c>
   13ec8:	e59f3128 	ldr	r3, [pc, #296]	; 13ff8 <pvPortMalloc+0x1bc>
   13ecc:	e50b300c 	str	r3, [fp, #-12]
   13ed0:	e59f3120 	ldr	r3, [pc, #288]	; 13ff8 <pvPortMalloc+0x1bc>
   13ed4:	e5933000 	ldr	r3, [r3]
   13ed8:	e50b3008 	str	r3, [fp, #-8]
   13edc:	ea000004 	b	13ef4 <pvPortMalloc+0xb8>
   13ee0:	e51b3008 	ldr	r3, [fp, #-8]
   13ee4:	e50b300c 	str	r3, [fp, #-12]
   13ee8:	e51b3008 	ldr	r3, [fp, #-8]
   13eec:	e5933000 	ldr	r3, [r3]
   13ef0:	e50b3008 	str	r3, [fp, #-8]
   13ef4:	e51b3008 	ldr	r3, [fp, #-8]
   13ef8:	e5933004 	ldr	r3, [r3, #4]
   13efc:	e51b2018 	ldr	r2, [fp, #-24]	; 0xffffffe8
   13f00:	e1520003 	cmp	r2, r3
   13f04:	9a000003 	bls	13f18 <pvPortMalloc+0xdc>
   13f08:	e51b3008 	ldr	r3, [fp, #-8]
   13f0c:	e5933000 	ldr	r3, [r3]
   13f10:	e3530000 	cmp	r3, #0
   13f14:	1afffff1 	bne	13ee0 <pvPortMalloc+0xa4>
   13f18:	e59f30d4 	ldr	r3, [pc, #212]	; 13ff4 <pvPortMalloc+0x1b8>
   13f1c:	e5933000 	ldr	r3, [r3]
   13f20:	e51b2008 	ldr	r2, [fp, #-8]
   13f24:	e1520003 	cmp	r2, r3
   13f28:	0a000026 	beq	13fc8 <pvPortMalloc+0x18c>
   13f2c:	e51b300c 	ldr	r3, [fp, #-12]
   13f30:	e5933000 	ldr	r3, [r3]
   13f34:	e3a02010 	mov	r2, #16
   13f38:	e0833002 	add	r3, r3, r2
   13f3c:	e50b3010 	str	r3, [fp, #-16]
   13f40:	e51b3008 	ldr	r3, [fp, #-8]
   13f44:	e5932000 	ldr	r2, [r3]
   13f48:	e51b300c 	ldr	r3, [fp, #-12]
   13f4c:	e5832000 	str	r2, [r3]
   13f50:	e51b3008 	ldr	r3, [fp, #-8]
   13f54:	e5932004 	ldr	r2, [r3, #4]
   13f58:	e51b3018 	ldr	r3, [fp, #-24]	; 0xffffffe8
   13f5c:	e0423003 	sub	r3, r2, r3
   13f60:	e3a02010 	mov	r2, #16
   13f64:	e1a02082 	lsl	r2, r2, #1
   13f68:	e1530002 	cmp	r3, r2
   13f6c:	9a00000e 	bls	13fac <pvPortMalloc+0x170>
   13f70:	e51b2008 	ldr	r2, [fp, #-8]
   13f74:	e51b3018 	ldr	r3, [fp, #-24]	; 0xffffffe8
   13f78:	e0823003 	add	r3, r2, r3
   13f7c:	e50b3014 	str	r3, [fp, #-20]	; 0xffffffec
   13f80:	e51b3008 	ldr	r3, [fp, #-8]
   13f84:	e5932004 	ldr	r2, [r3, #4]
   13f88:	e51b3018 	ldr	r3, [fp, #-24]	; 0xffffffe8
   13f8c:	e0422003 	sub	r2, r2, r3
   13f90:	e51b3014 	ldr	r3, [fp, #-20]	; 0xffffffec
   13f94:	e5832004 	str	r2, [r3, #4]
   13f98:	e51b3008 	ldr	r3, [fp, #-8]
   13f9c:	e51b2018 	ldr	r2, [fp, #-24]	; 0xffffffe8
   13fa0:	e5832004 	str	r2, [r3, #4]
   13fa4:	e51b0014 	ldr	r0, [fp, #-20]	; 0xffffffec
   13fa8:	eb000079 	bl	14194 <prvInsertBlockIntoFreeList>
   13fac:	e59f3048 	ldr	r3, [pc, #72]	; 13ffc <pvPortMalloc+0x1c0>
   13fb0:	e5932000 	ldr	r2, [r3]
   13fb4:	e51b3008 	ldr	r3, [fp, #-8]
   13fb8:	e5933004 	ldr	r3, [r3, #4]
   13fbc:	e0423003 	sub	r3, r2, r3
   13fc0:	e59f2034 	ldr	r2, [pc, #52]	; 13ffc <pvPortMalloc+0x1c0>
   13fc4:	e5823000 	str	r3, [r2]
   13fc8:	ebfff9d2 	bl	12718 <xTaskResumeAll>
   13fcc:	e59f302c 	ldr	r3, [pc, #44]	; 14000 <pvPortMalloc+0x1c4>
   13fd0:	e5932000 	ldr	r2, [r3]
   13fd4:	e51b3018 	ldr	r3, [fp, #-24]	; 0xffffffe8
   13fd8:	e0823003 	add	r3, r2, r3
   13fdc:	e59f201c 	ldr	r2, [pc, #28]	; 14000 <pvPortMalloc+0x1c4>
   13fe0:	e5823000 	str	r3, [r2]
   13fe4:	e51b3010 	ldr	r3, [fp, #-16]
   13fe8:	e1a00003 	mov	r0, r3
   13fec:	e24bd004 	sub	sp, fp, #4
   13ff0:	e8bd8800 	pop	{fp, pc}
   13ff4:	00015b30 	andeq	r5, r1, r0, lsr fp
   13ff8:	00015b28 	andeq	r5, r1, r8, lsr #22
   13ffc:	00014750 	andeq	r4, r1, r0, asr r7
   14000:	00015b34 	andeq	r5, r1, r4, lsr fp

00014004 <vPortFree>:
   14004:	e92d4800 	push	{fp, lr}
   14008:	e28db004 	add	fp, sp, #4
   1400c:	e24dd010 	sub	sp, sp, #16
   14010:	e50b0010 	str	r0, [fp, #-16]
   14014:	e51b3010 	ldr	r3, [fp, #-16]
   14018:	e50b3008 	str	r3, [fp, #-8]
   1401c:	e51b3010 	ldr	r3, [fp, #-16]
   14020:	e3530000 	cmp	r3, #0
   14024:	0a000011 	beq	14070 <vPortFree+0x6c>
   14028:	e3a03010 	mov	r3, #16
   1402c:	e2633000 	rsb	r3, r3, #0
   14030:	e51b2008 	ldr	r2, [fp, #-8]
   14034:	e0823003 	add	r3, r2, r3
   14038:	e50b3008 	str	r3, [fp, #-8]
   1403c:	e51b3008 	ldr	r3, [fp, #-8]
   14040:	e50b300c 	str	r3, [fp, #-12]
   14044:	ebfff9a7 	bl	126e8 <vTaskSuspendAll>
   14048:	e51b300c 	ldr	r3, [fp, #-12]
   1404c:	e5932004 	ldr	r2, [r3, #4]
   14050:	e59f3024 	ldr	r3, [pc, #36]	; 1407c <vPortFree+0x78>
   14054:	e5933000 	ldr	r3, [r3]
   14058:	e0823003 	add	r3, r2, r3
   1405c:	e59f2018 	ldr	r2, [pc, #24]	; 1407c <vPortFree+0x78>
   14060:	e5823000 	str	r3, [r2]
   14064:	e51b000c 	ldr	r0, [fp, #-12]
   14068:	eb000049 	bl	14194 <prvInsertBlockIntoFreeList>
   1406c:	ebfff9a9 	bl	12718 <xTaskResumeAll>
   14070:	e320f000 	nop	{0}
   14074:	e24bd004 	sub	sp, fp, #4
   14078:	e8bd8800 	pop	{fp, pc}
   1407c:	00014750 	andeq	r4, r1, r0, asr r7

00014080 <xPortGetFreeHeapSize>:
   14080:	e52db004 	push	{fp}		; (str fp, [sp, #-4]!)
   14084:	e28db000 	add	fp, sp, #0
   14088:	e59f3010 	ldr	r3, [pc, #16]	; 140a0 <xPortGetFreeHeapSize+0x20>
   1408c:	e5933000 	ldr	r3, [r3]
   14090:	e1a00003 	mov	r0, r3
   14094:	e28bd000 	add	sp, fp, #0
   14098:	e49db004 	pop	{fp}		; (ldr fp, [sp], #4)
   1409c:	e12fff1e 	bx	lr
   140a0:	00014750 	andeq	r4, r1, r0, asr r7

000140a4 <vPortInitialiseBlocks>:
   140a4:	e52db004 	push	{fp}		; (str fp, [sp, #-4]!)
   140a8:	e28db000 	add	fp, sp, #0
   140ac:	e320f000 	nop	{0}
   140b0:	e28bd000 	add	sp, fp, #0
   140b4:	e49db004 	pop	{fp}		; (ldr fp, [sp], #4)
   140b8:	e12fff1e 	bx	lr

000140bc <prvHeapInit>:
   140bc:	e52db004 	push	{fp}		; (str fp, [sp, #-4]!)
   140c0:	e28db000 	add	fp, sp, #0
   140c4:	e24dd00c 	sub	sp, sp, #12
   140c8:	e59f30b4 	ldr	r3, [pc, #180]	; 14184 <prvHeapInit+0xc8>
   140cc:	e59f20b4 	ldr	r2, [pc, #180]	; 14188 <prvHeapInit+0xcc>
   140d0:	e5832000 	str	r2, [r3]
   140d4:	e59f30a8 	ldr	r3, [pc, #168]	; 14184 <prvHeapInit+0xc8>
   140d8:	e3a02000 	mov	r2, #0
   140dc:	e5832004 	str	r2, [r3, #4]
   140e0:	e3a02a01 	mov	r2, #4096	; 0x1000
   140e4:	e59f309c 	ldr	r3, [pc, #156]	; 14188 <prvHeapInit+0xcc>
   140e8:	e0823003 	add	r3, r2, r3
   140ec:	e50b3008 	str	r3, [fp, #-8]
   140f0:	e3a03010 	mov	r3, #16
   140f4:	e2633000 	rsb	r3, r3, #0
   140f8:	e51b2008 	ldr	r2, [fp, #-8]
   140fc:	e0823003 	add	r3, r2, r3
   14100:	e50b3008 	str	r3, [fp, #-8]
   14104:	e59f2080 	ldr	r2, [pc, #128]	; 1418c <prvHeapInit+0xd0>
   14108:	e51b3008 	ldr	r3, [fp, #-8]
   1410c:	e5823000 	str	r3, [r2]
   14110:	e59f3074 	ldr	r3, [pc, #116]	; 1418c <prvHeapInit+0xd0>
   14114:	e5933000 	ldr	r3, [r3]
   14118:	e3a02000 	mov	r2, #0
   1411c:	e5832004 	str	r2, [r3, #4]
   14120:	e59f3064 	ldr	r3, [pc, #100]	; 1418c <prvHeapInit+0xd0>
   14124:	e5933000 	ldr	r3, [r3]
   14128:	e3a02000 	mov	r2, #0
   1412c:	e5832000 	str	r2, [r3]
   14130:	e59f3050 	ldr	r3, [pc, #80]	; 14188 <prvHeapInit+0xcc>
   14134:	e50b300c 	str	r3, [fp, #-12]
   14138:	e3a03a01 	mov	r3, #4096	; 0x1000
   1413c:	e3a02010 	mov	r2, #16
   14140:	e0432002 	sub	r2, r3, r2
   14144:	e51b300c 	ldr	r3, [fp, #-12]
   14148:	e5832004 	str	r2, [r3, #4]
   1414c:	e59f3038 	ldr	r3, [pc, #56]	; 1418c <prvHeapInit+0xd0>
   14150:	e5932000 	ldr	r2, [r3]
   14154:	e51b300c 	ldr	r3, [fp, #-12]
   14158:	e5832000 	str	r2, [r3]
   1415c:	e59f302c 	ldr	r3, [pc, #44]	; 14190 <prvHeapInit+0xd4>
   14160:	e5933000 	ldr	r3, [r3]
   14164:	e3a02010 	mov	r2, #16
   14168:	e0433002 	sub	r3, r3, r2
   1416c:	e59f201c 	ldr	r2, [pc, #28]	; 14190 <prvHeapInit+0xd4>
   14170:	e5823000 	str	r3, [r2]
   14174:	e320f000 	nop	{0}
   14178:	e28bd000 	add	sp, fp, #0
   1417c:	e49db004 	pop	{fp}		; (ldr fp, [sp], #4)
   14180:	e12fff1e 	bx	lr
   14184:	00015b28 	andeq	r5, r1, r8, lsr #22
   14188:	00014b28 	andeq	r4, r1, r8, lsr #22
   1418c:	00015b30 	andeq	r5, r1, r0, lsr fp
   14190:	00014750 	andeq	r4, r1, r0, asr r7

00014194 <prvInsertBlockIntoFreeList>:
   14194:	e52db004 	push	{fp}		; (str fp, [sp, #-4]!)
   14198:	e28db000 	add	fp, sp, #0
   1419c:	e24dd014 	sub	sp, sp, #20
   141a0:	e50b0010 	str	r0, [fp, #-16]
   141a4:	e59f3134 	ldr	r3, [pc, #308]	; 142e0 <prvInsertBlockIntoFreeList+0x14c>
   141a8:	e50b3008 	str	r3, [fp, #-8]
   141ac:	ea000002 	b	141bc <prvInsertBlockIntoFreeList+0x28>
   141b0:	e51b3008 	ldr	r3, [fp, #-8]
   141b4:	e5933000 	ldr	r3, [r3]
   141b8:	e50b3008 	str	r3, [fp, #-8]
   141bc:	e51b3008 	ldr	r3, [fp, #-8]
   141c0:	e5933000 	ldr	r3, [r3]
   141c4:	e51b2010 	ldr	r2, [fp, #-16]
   141c8:	e1520003 	cmp	r2, r3
   141cc:	8afffff7 	bhi	141b0 <prvInsertBlockIntoFreeList+0x1c>
   141d0:	e51b3008 	ldr	r3, [fp, #-8]
   141d4:	e50b300c 	str	r3, [fp, #-12]
   141d8:	e51b3008 	ldr	r3, [fp, #-8]
   141dc:	e5933004 	ldr	r3, [r3, #4]
   141e0:	e51b200c 	ldr	r2, [fp, #-12]
   141e4:	e0823003 	add	r3, r2, r3
   141e8:	e51b2010 	ldr	r2, [fp, #-16]
   141ec:	e1520003 	cmp	r2, r3
   141f0:	1a000008 	bne	14218 <prvInsertBlockIntoFreeList+0x84>
   141f4:	e51b3008 	ldr	r3, [fp, #-8]
   141f8:	e5932004 	ldr	r2, [r3, #4]
   141fc:	e51b3010 	ldr	r3, [fp, #-16]
   14200:	e5933004 	ldr	r3, [r3, #4]
   14204:	e0822003 	add	r2, r2, r3
   14208:	e51b3008 	ldr	r3, [fp, #-8]
   1420c:	e5832004 	str	r2, [r3, #4]
   14210:	e51b3008 	ldr	r3, [fp, #-8]
   14214:	e50b3010 	str	r3, [fp, #-16]
   14218:	e51b3010 	ldr	r3, [fp, #-16]
   1421c:	e50b300c 	str	r3, [fp, #-12]
   14220:	e51b3010 	ldr	r3, [fp, #-16]
   14224:	e5933004 	ldr	r3, [r3, #4]
   14228:	e51b200c 	ldr	r2, [fp, #-12]
   1422c:	e0822003 	add	r2, r2, r3
   14230:	e51b3008 	ldr	r3, [fp, #-8]
   14234:	e5933000 	ldr	r3, [r3]
   14238:	e1520003 	cmp	r2, r3
   1423c:	1a000018 	bne	142a4 <prvInsertBlockIntoFreeList+0x110>
   14240:	e51b3008 	ldr	r3, [fp, #-8]
   14244:	e5932000 	ldr	r2, [r3]
   14248:	e59f3094 	ldr	r3, [pc, #148]	; 142e4 <prvInsertBlockIntoFreeList+0x150>
   1424c:	e5933000 	ldr	r3, [r3]
   14250:	e1520003 	cmp	r2, r3
   14254:	0a00000d 	beq	14290 <prvInsertBlockIntoFreeList+0xfc>
   14258:	e51b3010 	ldr	r3, [fp, #-16]
   1425c:	e5932004 	ldr	r2, [r3, #4]
   14260:	e51b3008 	ldr	r3, [fp, #-8]
   14264:	e5933000 	ldr	r3, [r3]
   14268:	e5933004 	ldr	r3, [r3, #4]
   1426c:	e0822003 	add	r2, r2, r3
   14270:	e51b3010 	ldr	r3, [fp, #-16]
   14274:	e5832004 	str	r2, [r3, #4]
   14278:	e51b3008 	ldr	r3, [fp, #-8]
   1427c:	e5933000 	ldr	r3, [r3]
   14280:	e5932000 	ldr	r2, [r3]
   14284:	e51b3010 	ldr	r3, [fp, #-16]
   14288:	e5832000 	str	r2, [r3]
   1428c:	ea000008 	b	142b4 <prvInsertBlockIntoFreeList+0x120>
   14290:	e59f304c 	ldr	r3, [pc, #76]	; 142e4 <prvInsertBlockIntoFreeList+0x150>
   14294:	e5932000 	ldr	r2, [r3]
   14298:	e51b3010 	ldr	r3, [fp, #-16]
   1429c:	e5832000 	str	r2, [r3]
   142a0:	ea000003 	b	142b4 <prvInsertBlockIntoFreeList+0x120>
   142a4:	e51b3008 	ldr	r3, [fp, #-8]
   142a8:	e5932000 	ldr	r2, [r3]
   142ac:	e51b3010 	ldr	r3, [fp, #-16]
   142b0:	e5832000 	str	r2, [r3]
   142b4:	e51b2008 	ldr	r2, [fp, #-8]
   142b8:	e51b3010 	ldr	r3, [fp, #-16]
   142bc:	e1520003 	cmp	r2, r3
   142c0:	0a000002 	beq	142d0 <prvInsertBlockIntoFreeList+0x13c>
   142c4:	e51b3008 	ldr	r3, [fp, #-8]
   142c8:	e51b2010 	ldr	r2, [fp, #-16]
   142cc:	e5832000 	str	r2, [r3]
   142d0:	e320f000 	nop	{0}
   142d4:	e28bd000 	add	sp, fp, #0
   142d8:	e49db004 	pop	{fp}		; (ldr fp, [sp], #4)
   142dc:	e12fff1e 	bx	lr
   142e0:	00015b28 	andeq	r5, r1, r8, lsr #22
   142e4:	00015b30 	andeq	r5, r1, r0, lsr fp

000142e8 <undefined_instruction>:
   142e8:	eafffffe 	b	142e8 <undefined_instruction>

000142ec <prefetch_abort>:
   142ec:	eafffffe 	b	142ec <prefetch_abort>

000142f0 <data_abort>:
   142f0:	eafffffe 	b	142f0 <data_abort>

000142f4 <unused>:
   142f4:	eafffffe 	b	142f4 <unused>

000142f8 <fiq>:
   142f8:	eafffffe 	b	142f8 <fiq>

000142fc <hang>:
   142fc:	eafffffe 	b	142fc <hang>

00014300 <task1>:
   14300:	e92d4800 	push	{fp, lr}
   14304:	e28db004 	add	fp, sp, #4
   14308:	e24dd010 	sub	sp, sp, #16
   1430c:	e50b0010 	str	r0, [fp, #-16]
   14310:	e3a03000 	mov	r3, #0
   14314:	e50b3008 	str	r3, [fp, #-8]
   14318:	e51b3008 	ldr	r3, [fp, #-8]
   1431c:	e2833001 	add	r3, r3, #1
   14320:	e50b3008 	str	r3, [fp, #-8]
   14324:	e3a01001 	mov	r1, #1
   14328:	e3a00010 	mov	r0, #16
   1432c:	ebfffd90 	bl	13974 <SetGpio>
   14330:	e3a000c8 	mov	r0, #200	; 0xc8
   14334:	ebfff730 	bl	11ffc <vTaskDelay>
   14338:	eafffff6 	b	14318 <task1+0x18>

0001433c <task2>:
   1433c:	e92d4800 	push	{fp, lr}
   14340:	e28db004 	add	fp, sp, #4
   14344:	e24dd010 	sub	sp, sp, #16
   14348:	e50b0010 	str	r0, [fp, #-16]
   1434c:	e3a03000 	mov	r3, #0
   14350:	e50b3008 	str	r3, [fp, #-8]
   14354:	e51b3008 	ldr	r3, [fp, #-8]
   14358:	e2833001 	add	r3, r3, #1
   1435c:	e50b3008 	str	r3, [fp, #-8]
   14360:	e3a00064 	mov	r0, #100	; 0x64
   14364:	ebfff724 	bl	11ffc <vTaskDelay>
   14368:	e3a01000 	mov	r1, #0
   1436c:	e3a00010 	mov	r0, #16
   14370:	ebfffd7f 	bl	13974 <SetGpio>
   14374:	e3a00064 	mov	r0, #100	; 0x64
   14378:	ebfff71f 	bl	11ffc <vTaskDelay>
   1437c:	eafffff4 	b	14354 <task2+0x18>

00014380 <main>:
   14380:	e92d4800 	push	{fp, lr}
   14384:	e28db004 	add	fp, sp, #4
   14388:	e24dd010 	sub	sp, sp, #16
   1438c:	e3a01001 	mov	r1, #1
   14390:	e3a00010 	mov	r0, #16
   14394:	ebfffd32 	bl	13864 <SetGpioFunction>
   14398:	e3a03000 	mov	r3, #0
   1439c:	e58d300c 	str	r3, [sp, #12]
   143a0:	e3a03000 	mov	r3, #0
   143a4:	e58d3008 	str	r3, [sp, #8]
   143a8:	e3a03000 	mov	r3, #0
   143ac:	e58d3004 	str	r3, [sp, #4]
   143b0:	e3a03000 	mov	r3, #0
   143b4:	e58d3000 	str	r3, [sp]
   143b8:	e3a03000 	mov	r3, #0
   143bc:	e3a02080 	mov	r2, #128	; 0x80
   143c0:	e59f1040 	ldr	r1, [pc, #64]	; 14408 <main+0x88>
   143c4:	e59f0040 	ldr	r0, [pc, #64]	; 1440c <main+0x8c>
   143c8:	ebfff5f4 	bl	11ba0 <xTaskGenericCreate>
   143cc:	e3a03000 	mov	r3, #0
   143d0:	e58d300c 	str	r3, [sp, #12]
   143d4:	e3a03000 	mov	r3, #0
   143d8:	e58d3008 	str	r3, [sp, #8]
   143dc:	e3a03000 	mov	r3, #0
   143e0:	e58d3004 	str	r3, [sp, #4]
   143e4:	e3a03000 	mov	r3, #0
   143e8:	e58d3000 	str	r3, [sp]
   143ec:	e3a03000 	mov	r3, #0
   143f0:	e3a02080 	mov	r2, #128	; 0x80
   143f4:	e59f1014 	ldr	r1, [pc, #20]	; 14410 <main+0x90>
   143f8:	e59f0014 	ldr	r0, [pc, #20]	; 14414 <main+0x94>
   143fc:	ebfff5e7 	bl	11ba0 <xTaskGenericCreate>
   14400:	ebfff883 	bl	12614 <vTaskStartScheduler>
   14404:	eafffffe 	b	14404 <main+0x84>
   14408:	00014434 	andeq	r4, r1, r4, lsr r4
   1440c:	00014300 	andeq	r4, r1, r0, lsl #6
   14410:	0001443c 	andeq	r4, r1, ip, lsr r4
   14414:	0001433c 	andeq	r4, r1, ip, lsr r3

Disassembly of section .rodata:

00014418 <pRegs>:
   14418:	2000b400 	andcs	fp, r0, r0, lsl #8
   1441c:	454c4449 	strbmi	r4, [ip, #-1097]	; 0xfffffbb7
   14420:	00000000 	andeq	r0, r0, r0

00014424 <pRegs>:
   14424:	2000b200 	andcs	fp, r0, r0, lsl #4

00014428 <pRegs>:
   14428:	20200000 	eorcs	r0, r0, r0

0001442c <heapSTRUCT_SIZE>:
   1442c:	00000010 	andeq	r0, r0, r0, lsl r0

00014430 <xTotalHeapSize>:
   14430:	00001000 	andeq	r1, r0, r0
   14434:	5f44454c 	svcpl	0x0044454c
   14438:	00000030 	andeq	r0, r0, r0, lsr r0
   1443c:	5f44454c 	svcpl	0x0044454c
   14440:	Address 0x0000000000014440 is out of bounds.


Disassembly of section .text.memcpy:

00014444 <memcpy>:
   14444:	e352000f 	cmp	r2, #15
   14448:	9a00000a 	bls	14478 <memcpy+0x34>
   1444c:	e1803001 	orr	r3, r0, r1
   14450:	e3130003 	tst	r3, #3
   14454:	11a03000 	movne	r3, r0
   14458:	0a00000a 	beq	14488 <memcpy+0x44>
   1445c:	e2433001 	sub	r3, r3, #1
   14460:	e0812002 	add	r2, r1, r2
   14464:	e4d1c001 	ldrb	ip, [r1], #1
   14468:	e1510002 	cmp	r1, r2
   1446c:	e5e3c001 	strb	ip, [r3, #1]!
   14470:	1afffffb 	bne	14464 <memcpy+0x20>
   14474:	e12fff1e 	bx	lr
   14478:	e3520000 	cmp	r2, #0
   1447c:	e1a03000 	mov	r3, r0
   14480:	1afffff5 	bne	1445c <memcpy+0x18>
   14484:	e12fff1e 	bx	lr
   14488:	e2423010 	sub	r3, r2, #16
   1448c:	e92d4070 	push	{r4, r5, r6, lr}
   14490:	e1a03223 	lsr	r3, r3, #4
   14494:	e2816020 	add	r6, r1, #32
   14498:	e0866203 	add	r6, r6, r3, lsl #4
   1449c:	e281c010 	add	ip, r1, #16
   144a0:	e280e010 	add	lr, r0, #16
   144a4:	e51c5010 	ldr	r5, [ip, #-16]
   144a8:	e51c400c 	ldr	r4, [ip, #-12]
   144ac:	e50e5010 	str	r5, [lr, #-16]
   144b0:	e50e400c 	str	r4, [lr, #-12]
   144b4:	e51c5008 	ldr	r5, [ip, #-8]
   144b8:	e51c4004 	ldr	r4, [ip, #-4]
   144bc:	e28cc010 	add	ip, ip, #16
   144c0:	e15c0006 	cmp	ip, r6
   144c4:	e50e5008 	str	r5, [lr, #-8]
   144c8:	e50e4004 	str	r4, [lr, #-4]
   144cc:	e28ee010 	add	lr, lr, #16
   144d0:	1afffff3 	bne	144a4 <memcpy+0x60>
   144d4:	e202e00f 	and	lr, r2, #15
   144d8:	e2833001 	add	r3, r3, #1
   144dc:	e1a03203 	lsl	r3, r3, #4
   144e0:	e35e0003 	cmp	lr, #3
   144e4:	e0811003 	add	r1, r1, r3
   144e8:	91a0200e 	movls	r2, lr
   144ec:	e0803003 	add	r3, r0, r3
   144f0:	9a00000d 	bls	1452c <memcpy+0xe8>
   144f4:	e1a05001 	mov	r5, r1
   144f8:	e1a0c00e 	mov	ip, lr
   144fc:	e2434004 	sub	r4, r3, #4
   14500:	e24cc004 	sub	ip, ip, #4
   14504:	e4956004 	ldr	r6, [r5], #4
   14508:	e35c0003 	cmp	ip, #3
   1450c:	e5a46004 	str	r6, [r4, #4]!
   14510:	8afffffa 	bhi	14500 <memcpy+0xbc>
   14514:	e24ec004 	sub	ip, lr, #4
   14518:	e3ccc003 	bic	ip, ip, #3
   1451c:	e28cc004 	add	ip, ip, #4
   14520:	e083300c 	add	r3, r3, ip
   14524:	e081100c 	add	r1, r1, ip
   14528:	e2022003 	and	r2, r2, #3
   1452c:	e3520000 	cmp	r2, #0
   14530:	12433001 	subne	r3, r3, #1
   14534:	10812002 	addne	r2, r1, r2
   14538:	0a000003 	beq	1454c <memcpy+0x108>
   1453c:	e4d1c001 	ldrb	ip, [r1], #1
   14540:	e1510002 	cmp	r1, r2
   14544:	e5e3c001 	strb	ip, [r3, #1]!
   14548:	1afffffb 	bne	1453c <memcpy+0xf8>
   1454c:	e8bd4070 	pop	{r4, r5, r6, lr}
   14550:	e12fff1e 	bx	lr

Disassembly of section .text.memset:

00014554 <memset>:
   14554:	e3100003 	tst	r0, #3
   14558:	0a000040 	beq	14660 <memset+0x10c>
   1455c:	e3520000 	cmp	r2, #0
   14560:	e2422001 	sub	r2, r2, #1
   14564:	012fff1e 	bxeq	lr
   14568:	e201c0ff 	and	ip, r1, #255	; 0xff
   1456c:	e1a03000 	mov	r3, r0
   14570:	ea000002 	b	14580 <memset+0x2c>
   14574:	e2422001 	sub	r2, r2, #1
   14578:	e3720001 	cmn	r2, #1
   1457c:	012fff1e 	bxeq	lr
   14580:	e4c3c001 	strb	ip, [r3], #1
   14584:	e3130003 	tst	r3, #3
   14588:	1afffff9 	bne	14574 <memset+0x20>
   1458c:	e3520003 	cmp	r2, #3
   14590:	9a00002a 	bls	14640 <memset+0xec>
   14594:	e92d4030 	push	{r4, r5, lr}
   14598:	e201e0ff 	and	lr, r1, #255	; 0xff
   1459c:	e18ee40e 	orr	lr, lr, lr, lsl #8
   145a0:	e352000f 	cmp	r2, #15
   145a4:	e18ee80e 	orr	lr, lr, lr, lsl #16
   145a8:	9a000010 	bls	145f0 <memset+0x9c>
   145ac:	e2425010 	sub	r5, r2, #16
   145b0:	e1a05225 	lsr	r5, r5, #4
   145b4:	e2834020 	add	r4, r3, #32
   145b8:	e0844205 	add	r4, r4, r5, lsl #4
   145bc:	e283c010 	add	ip, r3, #16
   145c0:	e50ce010 	str	lr, [ip, #-16]
   145c4:	e50ce00c 	str	lr, [ip, #-12]
   145c8:	e50ce008 	str	lr, [ip, #-8]
   145cc:	e50ce004 	str	lr, [ip, #-4]
   145d0:	e28cc010 	add	ip, ip, #16
   145d4:	e15c0004 	cmp	ip, r4
   145d8:	1afffff8 	bne	145c0 <memset+0x6c>
   145dc:	e202200f 	and	r2, r2, #15
   145e0:	e2855001 	add	r5, r5, #1
   145e4:	e3520003 	cmp	r2, #3
   145e8:	e0833205 	add	r3, r3, r5, lsl #4
   145ec:	9a00000a 	bls	1461c <memset+0xc8>
   145f0:	e1a04003 	mov	r4, r3
   145f4:	e1a0c002 	mov	ip, r2
   145f8:	e24cc004 	sub	ip, ip, #4
   145fc:	e35c0003 	cmp	ip, #3
   14600:	e484e004 	str	lr, [r4], #4
   14604:	8afffffb 	bhi	145f8 <memset+0xa4>
   14608:	e242c004 	sub	ip, r2, #4
   1460c:	e3ccc003 	bic	ip, ip, #3
   14610:	e28cc004 	add	ip, ip, #4
   14614:	e083300c 	add	r3, r3, ip
   14618:	e2022003 	and	r2, r2, #3
   1461c:	e3520000 	cmp	r2, #0
   14620:	120110ff 	andne	r1, r1, #255	; 0xff
   14624:	10832002 	addne	r2, r3, r2
   14628:	0a000002 	beq	14638 <memset+0xe4>
   1462c:	e4c31001 	strb	r1, [r3], #1
   14630:	e1520003 	cmp	r2, r3
   14634:	1afffffc 	bne	1462c <memset+0xd8>
   14638:	e8bd4030 	pop	{r4, r5, lr}
   1463c:	e12fff1e 	bx	lr
   14640:	e3520000 	cmp	r2, #0
   14644:	012fff1e 	bxeq	lr
   14648:	e20110ff 	and	r1, r1, #255	; 0xff
   1464c:	e0832002 	add	r2, r3, r2
   14650:	e4c31001 	strb	r1, [r3], #1
   14654:	e1520003 	cmp	r2, r3
   14658:	1afffffc 	bne	14650 <memset+0xfc>
   1465c:	e12fff1e 	bx	lr
   14660:	e1a03000 	mov	r3, r0
   14664:	eaffffc8 	b	1458c <memset+0x38>

Disassembly of section .text.strncpy:

00014668 <strncpy>:
   14668:	e1803001 	orr	r3, r0, r1
   1466c:	e3520003 	cmp	r2, #3
   14670:	e2033003 	and	r3, r3, #3
   14674:	93a0c000 	movls	ip, #0
   14678:	83a0c001 	movhi	ip, #1
   1467c:	e3530000 	cmp	r3, #0
   14680:	13a0c000 	movne	ip, #0
   14684:	e35c0000 	cmp	ip, #0
   14688:	e92d4070 	push	{r4, r5, r6, lr}
   1468c:	01a03000 	moveq	r3, r0
   14690:	1a00001a 	bne	14700 <strncpy+0x98>
   14694:	e3520000 	cmp	r2, #0
   14698:	0a00000d 	beq	146d4 <strncpy+0x6c>
   1469c:	e5d1c000 	ldrb	ip, [r1]
   146a0:	e35c0000 	cmp	ip, #0
   146a4:	e5c3c000 	strb	ip, [r3]
   146a8:	e2422001 	sub	r2, r2, #1
   146ac:	e2833001 	add	r3, r3, #1
   146b0:	1a000005 	bne	146cc <strncpy+0x64>
   146b4:	ea000008 	b	146dc <strncpy+0x74>
   146b8:	e5f1c001 	ldrb	ip, [r1, #1]!
   146bc:	e35c0000 	cmp	ip, #0
   146c0:	e2422001 	sub	r2, r2, #1
   146c4:	e4c3c001 	strb	ip, [r3], #1
   146c8:	0a000003 	beq	146dc <strncpy+0x74>
   146cc:	e3520000 	cmp	r2, #0
   146d0:	1afffff8 	bne	146b8 <strncpy+0x50>
   146d4:	e8bd4070 	pop	{r4, r5, r6, lr}
   146d8:	e12fff1e 	bx	lr
   146dc:	e3520000 	cmp	r2, #0
   146e0:	13a01000 	movne	r1, #0
   146e4:	10832002 	addne	r2, r3, r2
   146e8:	0afffff9 	beq	146d4 <strncpy+0x6c>
   146ec:	e4c31001 	strb	r1, [r3], #1
   146f0:	e1530002 	cmp	r3, r2
   146f4:	1afffffc 	bne	146ec <strncpy+0x84>
   146f8:	e8bd4070 	pop	{r4, r5, r6, lr}
   146fc:	e12fff1e 	bx	lr
   14700:	e1a0c001 	mov	ip, r1
   14704:	e1a03000 	mov	r3, r0
   14708:	e59f6030 	ldr	r6, [pc, #48]	; 14740 <strncpy+0xd8>
   1470c:	e59f5030 	ldr	r5, [pc, #48]	; 14744 <strncpy+0xdc>
   14710:	e1a0100c 	mov	r1, ip
   14714:	e49c4004 	ldr	r4, [ip], #4
   14718:	e084e006 	add	lr, r4, r6
   1471c:	e1cee004 	bic	lr, lr, r4
   14720:	e11e0005 	tst	lr, r5
   14724:	1affffdc 	bne	1469c <strncpy+0x34>
   14728:	e2422004 	sub	r2, r2, #4
   1472c:	e3520003 	cmp	r2, #3
   14730:	e4834004 	str	r4, [r3], #4
   14734:	e1a0100c 	mov	r1, ip
   14738:	8afffff4 	bhi	14710 <strncpy+0xa8>
   1473c:	eaffffd4 	b	14694 <strncpy+0x2c>
   14740:	fefefeff 	mrc2	14, 7, pc, cr14, cr15, {7}
   14744:	80808080 	addhi	r8, r0, r0, lsl #1

Disassembly of section .data:

00014748 <ulCriticalNesting>:
   14748:	0000270f 	andeq	r2, r0, pc, lsl #14

0001474c <xNextTaskUnblockTime>:
   1474c:	ffffffff 			; <UNDEFINED> instruction: 0xffffffff

00014750 <xFreeBytesRemaining>:
   14750:	00001000 	andeq	r1, r0, r0

Disassembly of section .bss:

00014758 <g_bStarted>:
   14758:	00000000 	andeq	r0, r0, r0

0001475c <pxReadyCoRoutineLists>:
	...

00014784 <xDelayedCoRoutineList1>:
	...

00014798 <xDelayedCoRoutineList2>:
	...

000147ac <pxDelayedCoRoutineList>:
   147ac:	00000000 	andeq	r0, r0, r0

000147b0 <pxOverflowDelayedCoRoutineList>:
   147b0:	00000000 	andeq	r0, r0, r0

000147b4 <xPendingReadyCoRoutineList>:
	...

000147c8 <pxCurrentCoRoutine>:
   147c8:	00000000 	andeq	r0, r0, r0

000147cc <uxTopCoRoutineReadyPriority>:
   147cc:	00000000 	andeq	r0, r0, r0

000147d0 <xCoRoutineTickCount>:
   147d0:	00000000 	andeq	r0, r0, r0

000147d4 <xLastTickCount>:
   147d4:	00000000 	andeq	r0, r0, r0

000147d8 <xPassedTicks>:
   147d8:	00000000 	andeq	r0, r0, r0

000147dc <pxCurrentTCB>:
   147dc:	00000000 	andeq	r0, r0, r0

000147e0 <pxReadyTasksLists>:
	...

00014844 <xDelayedTaskList1>:
	...

00014858 <xDelayedTaskList2>:
	...

0001486c <pxDelayedTaskList>:
   1486c:	00000000 	andeq	r0, r0, r0

00014870 <pxOverflowDelayedTaskList>:
   14870:	00000000 	andeq	r0, r0, r0

00014874 <xPendingReadyList>:
	...

00014888 <xTasksWaitingTermination>:
	...

0001489c <uxTasksDeleted>:
   1489c:	00000000 	andeq	r0, r0, r0

000148a0 <xSuspendedTaskList>:
	...

000148b4 <uxCurrentNumberOfTasks>:
   148b4:	00000000 	andeq	r0, r0, r0

000148b8 <xTickCount>:
   148b8:	00000000 	andeq	r0, r0, r0

000148bc <uxTopUsedPriority>:
   148bc:	00000000 	andeq	r0, r0, r0

000148c0 <uxTopReadyPriority>:
   148c0:	00000000 	andeq	r0, r0, r0

000148c4 <xSchedulerRunning>:
   148c4:	00000000 	andeq	r0, r0, r0

000148c8 <uxSchedulerSuspended>:
   148c8:	00000000 	andeq	r0, r0, r0

000148cc <uxMissedTicks>:
   148cc:	00000000 	andeq	r0, r0, r0

000148d0 <xMissedYield>:
   148d0:	00000000 	andeq	r0, r0, r0

000148d4 <xNumOfOverflows>:
   148d4:	00000000 	andeq	r0, r0, r0

000148d8 <uxTaskNumber>:
   148d8:	00000000 	andeq	r0, r0, r0

000148dc <g_VectorTable>:
	...

00014b1c <enabled>:
	...

00014b28 <xHeap>:
	...

00015b28 <xStart>:
	...

00015b30 <pxEnd>:
   15b30:	00000000 	andeq	r0, r0, r0

00015b34 <allocated>:
   15b34:	00000000 	andeq	r0, r0, r0

Disassembly of section .debug_info:

00000000 <.debug_info>:
       0:	000001f8 	strdeq	r0, [r0], -r8
       4:	00000004 	andeq	r0, r0, r4
       8:	01040000 	mrseq	r0, (UNDEF: 4)
       c:	0000009a 	muleq	r0, sl, r0
      10:	0001920c 	andeq	r9, r1, ip, lsl #4
      14:	00000c00 	andeq	r0, r0, r0, lsl #24
      18:	01000000 	mrseq	r0, (UNDEF: 0)
      1c:	00034400 	andeq	r4, r3, r0, lsl #8
      20:	00000000 	andeq	r0, r0, r0
      24:	05040200 	streq	r0, [r4, #-512]	; 0xfffffe00
      28:	00746e69 	rsbseq	r6, r4, r9, ror #28
      2c:	40070403 	andmi	r0, r7, r3, lsl #8
      30:	03000006 	movweq	r0, #6
      34:	011f0508 	tsteq	pc, r8, lsl #10
      38:	08030000 	stmdaeq	r3, {}	; <UNPREDICTABLE>
      3c:	00014d04 	andeq	r4, r1, r4, lsl #26
      40:	007c0400 	rsbseq	r0, ip, r0, lsl #8
      44:	47020000 	strmi	r0, [r2, -r0]
      48:	0000004c 	andeq	r0, r0, ip, asr #32
      4c:	00520405 	subseq	r0, r2, r5, lsl #8
      50:	5d060000 	stcpl	0, cr0, [r6, #-0]
      54:	07000000 	streq	r0, [r0, -r0]
      58:	0000005d 	andeq	r0, r0, sp, asr r0
      5c:	04040800 	streq	r0, [r4], #-2048	; 0xfffff800
      60:	0000001c 	andeq	r0, r0, ip, lsl r0
      64:	006a6103 	rsbeq	r6, sl, r3, lsl #2
      68:	04030000 	streq	r0, [r3], #-0
      6c:	00063b07 	andeq	r3, r6, r7, lsl #22
      70:	05040300 	streq	r0, [r4, #-768]	; 0xfffffd00
      74:	00000124 	andeq	r0, r0, r4, lsr #2
      78:	94060103 	strls	r0, [r6], #-259	; 0xfffffefd
      7c:	03000008 	movweq	r0, #8
      80:	00690702 	rsbeq	r0, r9, r2, lsl #14
      84:	04050000 	streq	r0, [r5], #-0
      88:	0000006a 	andeq	r0, r0, sl, rrx
      8c:	00005509 	andeq	r5, r0, r9, lsl #10
      90:	56012400 	strpl	r2, [r1], -r0, lsl #8
      94:	00000105 	andeq	r0, r0, r5, lsl #2
      98:	444f4c0a 	strbmi	r4, [pc], #-3082	; a0 <_start-0x7f60>
      9c:	6a570100 	bvs	15c04a4 <__bss_end+0x15aa96c>
      a0:	00000000 	andeq	r0, r0, r0
      a4:	4c41560a 	mcrrmi	6, 0, r5, r1, cr10
      a8:	6a580100 	bvs	16004b0 <__bss_end+0x15ea978>
      ac:	04000000 	streq	r0, [r0], #-0
      b0:	4c54430a 	mrrcmi	3, 0, r4, r4, cr10	; <UNPREDICTABLE>
      b4:	6a590100 	bvs	16404bc <__bss_end+0x162a984>
      b8:	08000000 	stmdaeq	r0, {}	; <UNPREDICTABLE>
      bc:	494c430a 	stmdbmi	ip, {r1, r3, r8, r9, lr}^
      c0:	6a5a0100 	bvs	16804c8 <__bss_end+0x166a990>
      c4:	0c000000 	stceq	0, cr0, [r0], {-0}
      c8:	5349520a 	movtpl	r5, #37386	; 0x920a
      cc:	6a5b0100 	bvs	16c04d4 <__bss_end+0x16aa99c>
      d0:	10000000 	andne	r0, r0, r0
      d4:	53494d0a 	movtpl	r4, #40202	; 0x9d0a
      d8:	6a5c0100 	bvs	17004e0 <__bss_end+0x16ea9a8>
      dc:	14000000 	strne	r0, [r0], #-0
      e0:	444c520a 	strbmi	r5, [ip], #-522	; 0xfffffdf6
      e4:	6a5d0100 	bvs	17404ec <__bss_end+0x172a9b4>
      e8:	18000000 	stmdane	r0, {}	; <UNPREDICTABLE>
      ec:	5649440a 	strbpl	r4, [r9], -sl, lsl #8
      f0:	6a5e0100 	bvs	17804f8 <__bss_end+0x176a9c0>
      f4:	1c000000 	stcne	0, cr0, [r0], {-0}
      f8:	544e430a 	strbpl	r4, [lr], #-778	; 0xfffffcf6
      fc:	6a5f0100 	bvs	17c0504 <__bss_end+0x17aa9cc>
     100:	20000000 	andcs	r0, r0, r0
     104:	00560400 	subseq	r0, r6, r0, lsl #8
     108:	60010000 	andvs	r0, r1, r0
     10c:	0000008c 	andeq	r0, r0, ip, lsl #1
     110:	0001050b 	andeq	r0, r1, fp, lsl #10
     114:	013a0c00 	teqeq	sl, r0, lsl #24
     118:	62010000 	andvs	r0, r1, #0
     11c:	0000012c 	andeq	r0, r0, ip, lsr #2
     120:	44180305 	ldrmi	r0, [r8], #-773	; 0xfffffcfb
     124:	04050001 	streq	r0, [r5], #-1
     128:	00000110 	andeq	r0, r0, r0, lsl r1
     12c:	0001260d 	andeq	r2, r1, sp, lsl #12
     130:	00290e00 	eoreq	r0, r9, r0, lsl #28
     134:	eb010000 	bl	4013c <__bss_end+0x2a604>
     138:	000102ac 	andeq	r0, r1, ip, lsr #5
     13c:	00000098 	muleq	r0, r8, r0
     140:	01559c01 	cmpeq	r5, r1, lsl #24
     144:	6d0c0000 	stcvs	0, cr0, [ip, #-0]
     148:	01000001 	tsteq	r0, r1
     14c:	00006aed 	andeq	r6, r0, sp, ror #21
     150:	74910200 	ldrvc	r0, [r1], #512	; 0x200
     154:	01160f00 	tsteq	r6, r0, lsl #30
     158:	dd010000 	stcle	0, cr0, [r1, #-0]
     15c:	00010274 	andeq	r0, r1, r4, ror r2
     160:	00000038 	andeq	r0, r0, r8, lsr r0
     164:	01879c01 	orreq	r9, r7, r1, lsl #24
     168:	00100000 	andseq	r0, r0, r0
     16c:	01000000 	mrseq	r0, (UNDEF: 0)
     170:	00002cdd 	ldrdeq	r2, [r0], -sp
     174:	74910200 	ldrvc	r0, [r1], #512	; 0x200
     178:	00004010 	andeq	r4, r0, r0, lsl r0
     17c:	5ddd0100 	ldfple	f0, [sp]
     180:	02000000 	andeq	r0, r0, #0
     184:	11007091 	swpne	r7, r1, [r0]
     188:	00000088 	andeq	r0, r0, r8, lsl #1
     18c:	025cd001 	subseq	sp, ip, #1
     190:	00180001 	andseq	r0, r8, r1
     194:	9c010000 	stcls	0, cr0, [r1], {-0}
     198:	00015912 	andeq	r5, r1, r2, lsl r9
     19c:	71c20100 	bicvc	r0, r2, r0, lsl #2
     1a0:	40000000 	andmi	r0, r0, r0
     1a4:	1c000102 	stfnes	f0, [r0], {2}
     1a8:	01000000 	mrseq	r0, (UNDEF: 0)
     1ac:	017c139c 			; <UNDEFINED> instruction: 0x017c139c
     1b0:	77010000 	strvc	r0, [r1, -r0]
     1b4:	00000086 	andeq	r0, r0, r6, lsl #1
     1b8:	00010000 	andeq	r0, r1, r0
     1bc:	00000240 	andeq	r0, r0, r0, asr #4
     1c0:	40109c01 	andsmi	r9, r0, r1, lsl #24
     1c4:	01000001 	tsteq	r0, r1
     1c8:	00008677 	andeq	r8, r0, r7, ror r6
     1cc:	6c910200 	lfmvs	f0, 4, [r1], {0}
     1d0:	00000510 	andeq	r0, r0, r0, lsl r5
     1d4:	41770100 	cmnmi	r7, r0, lsl #2
     1d8:	02000000 	andeq	r0, r0, #0
     1dc:	2d106891 	ldccs	8, cr6, [r0, #-580]	; 0xfffffdbc
     1e0:	01000001 	tsteq	r0, r1
     1e4:	00005d77 	andeq	r5, r0, r7, ror sp
     1e8:	64910200 	ldrvs	r0, [r1], #512	; 0x200
     1ec:	0000470c 	andeq	r4, r0, ip, lsl #14
     1f0:	86790100 	ldrbthi	r0, [r9], -r0, lsl #2
     1f4:	02000000 	andeq	r0, r0, #0
     1f8:	00007491 	muleq	r0, r1, r4
     1fc:	00000187 	andeq	r0, r0, r7, lsl #3
     200:	011f0004 	tsteq	pc, r4
     204:	01040000 	mrseq	r0, (UNDEF: 4)
     208:	0000009a 	muleq	r0, sl, r0
     20c:	0002340c 	andeq	r3, r2, ip, lsl #8
     210:	00000c00 	andeq	r0, r0, r0, lsl #24
     214:	01034400 	tsteq	r3, r0, lsl #8
     218:	0002a400 	andeq	sl, r2, r0, lsl #8
     21c:	0000fd00 	andeq	pc, r0, r0, lsl #26
     220:	05040200 	streq	r0, [r4, #-512]	; 0xfffffe00
     224:	00746e69 	rsbseq	r6, r4, r9, ror #28
     228:	40070403 	andmi	r0, r7, r3, lsl #8
     22c:	03000006 	movweq	r0, #6
     230:	011f0508 	tsteq	pc, r8, lsl #10
     234:	08030000 	stmdaeq	r3, {}	; <UNPREDICTABLE>
     238:	00014d04 	andeq	r4, r1, r4, lsl #26
     23c:	07040300 	streq	r0, [r4, -r0, lsl #6]
     240:	0000063b 	andeq	r0, r0, fp, lsr r6
     244:	00004104 	andeq	r4, r0, r4, lsl #2
     248:	05040300 	streq	r0, [r4, #-768]	; 0xfffffd00
     24c:	00000124 	andeq	r0, r0, r4, lsr #2
     250:	0001e505 	andeq	lr, r1, r5, lsl #10
     254:	48650100 	stmdami	r5!, {r8}^
     258:	05000000 	streq	r0, [r0, #-0]
     25c:	01474803 	cmpeq	r7, r3, lsl #16
     260:	02850500 	addeq	r0, r5, #0, 10
     264:	73010000 	movwvc	r0, #4096	; 0x1000
     268:	00000025 	andeq	r0, r0, r5, lsr #32
     26c:	47580305 	ldrbmi	r0, [r8, -r5, lsl #6]
     270:	f7060001 			; <UNDEFINED> instruction: 0xf7060001
     274:	01000001 	tsteq	r0, r1
     278:	010584fe 	strdeq	r8, [r5, -lr]
     27c:	00006400 	andeq	r6, r0, r0, lsl #8
     280:	069c0100 	ldreq	r0, [ip], r0, lsl #2
     284:	000001d2 	ldrdeq	r0, [r0], -r2
     288:	0540ee01 	strbeq	lr, [r0, #-3585]	; 0xfffff1ff
     28c:	00440001 	subeq	r0, r4, r1
     290:	9c010000 	stcls	0, cr0, [r1], {-0}
     294:	00027707 	andeq	r7, r2, r7, lsl #14
     298:	90c10100 	sbcls	r0, r1, r0, lsl #2
     29c:	b0000104 	andlt	r0, r0, r4, lsl #2
     2a0:	01000000 	mrseq	r0, (UNDEF: 0)
     2a4:	0000f29c 	muleq	r0, ip, r2
     2a8:	04900800 	ldreq	r0, [r0], #2048	; 0x800
     2ac:	00580001 	subseq	r0, r8, r1
     2b0:	00d10000 	sbcseq	r0, r1, r0
     2b4:	90090000 	andls	r0, r9, r0
     2b8:	01000002 	tsteq	r0, r2
     2bc:	0000f8c2 	andeq	pc, r0, r2, asr #17
     2c0:	01e50900 	mvneq	r0, r0, lsl #18
     2c4:	c2010000 	andgt	r0, r1, #0
     2c8:	00000048 	andeq	r0, r0, r8, asr #32
     2cc:	04ec0a00 	strbteq	r0, [ip], #2560	; 0xa00
     2d0:	00480001 	subeq	r0, r8, r1
     2d4:	90090000 	andls	r0, r9, r0
     2d8:	01000002 	tsteq	r0, r2
     2dc:	0000f8c4 	andeq	pc, r0, r4, asr #17
     2e0:	01e50900 	mvneq	r0, r0, lsl #18
     2e4:	c4010000 	strgt	r0, [r1], #-0
     2e8:	00000048 	andeq	r0, r0, r8, asr #32
     2ec:	040b0000 	streq	r0, [fp], #-0
     2f0:	000000fd 	strdeq	r0, [r0], -sp
     2f4:	0000f204 	andeq	pc, r0, r4, lsl #4
     2f8:	200d0c00 	andcs	r0, sp, r0, lsl #24
     2fc:	01000002 	tsteq	r0, r2
     300:	0103dc9c 			; <UNDEFINED> instruction: 0x0103dc9c
     304:	0000b400 	andeq	fp, r0, r0, lsl #8
     308:	589c0100 	ldmpl	ip, {r8}
     30c:	08000001 	stmdaeq	r0, {r0}
     310:	000103e0 	andeq	r0, r1, r0, ror #7
     314:	00000058 	andeq	r0, r0, r8, asr r0
     318:	00000137 	andeq	r0, r0, r7, lsr r1
     31c:	00029009 	andeq	r9, r2, r9
     320:	f8a40100 			; <UNDEFINED> instruction: 0xf8a40100
     324:	09000000 	stmdbeq	r0, {}	; <UNPREDICTABLE>
     328:	000001e5 	andeq	r0, r0, r5, ror #3
     32c:	0048a401 	subeq	sl, r8, r1, lsl #8
     330:	0a000000 	beq	338 <_start-0x7cc8>
     334:	0001043c 	andeq	r0, r1, ip, lsr r4
     338:	00000048 	andeq	r0, r0, r8, asr #32
     33c:	00029009 	andeq	r9, r2, r9
     340:	f8aa0100 			; <UNDEFINED> instruction: 0xf8aa0100
     344:	09000000 	stmdbeq	r0, {}	; <UNPREDICTABLE>
     348:	000001e5 	andeq	r0, r0, r5, ror #3
     34c:	0048aa01 	subeq	sl, r8, r1, lsl #20
     350:	00000000 	andeq	r0, r0, r0
     354:	0002090e 	andeq	r0, r2, lr, lsl #18
     358:	44750100 	ldrbtmi	r0, [r5], #-256	; 0xffffff00
     35c:	98000103 	stmdals	r0, {r0, r1, r8}
     360:	01000000 	mrseq	r0, (UNDEF: 0)
     364:	036c0a9c 	cmneq	ip, #156, 20	; 0x9c000
     368:	00480001 	subeq	r0, r8, r1
     36c:	90090000 	andls	r0, r9, r0
     370:	01000002 	tsteq	r0, r2
     374:	0000f888 	andeq	pc, r0, r8, lsl #17
     378:	01e50900 	mvneq	r0, r0, lsl #18
     37c:	88010000 	stmdahi	r1, {}	; <UNPREDICTABLE>
     380:	00000048 	andeq	r0, r0, r8, asr #32
     384:	6d000000 	stcvs	0, cr0, [r0, #-0]
     388:	04000004 	streq	r0, [r0], #-4
     38c:	0001f800 	andeq	pc, r1, r0, lsl #16
     390:	9a010400 	bls	41398 <__bss_end+0x2b860>
     394:	0c000000 	stceq	0, cr0, [r0], {-0}
     398:	000004b0 			; <UNDEFINED> instruction: 0x000004b0
     39c:	0000000c 	andeq	r0, r0, ip
     3a0:	000105f0 	strdeq	r0, [r1], -r0	; <UNPREDICTABLE>
     3a4:	00000764 	andeq	r0, r0, r4, ror #14
     3a8:	0000019e 	muleq	r0, lr, r1
     3ac:	69050402 	stmdbvs	r5, {r1, sl}
     3b0:	0300746e 	movweq	r7, #1134	; 0x46e
     3b4:	06400704 	strbeq	r0, [r0], -r4, lsl #14
     3b8:	08030000 	stmdaeq	r3, {}	; <UNPREDICTABLE>
     3bc:	00011f05 	andeq	r1, r1, r5, lsl #30
     3c0:	04080300 	streq	r0, [r8], #-768	; 0xfffffd00
     3c4:	0000014d 	andeq	r0, r0, sp, asr #2
     3c8:	1c050404 	cfstrsne	mvf0, [r5], {4}
     3cc:	03000000 	movweq	r0, #0
     3d0:	00004e61 	andeq	r4, r0, r1, ror #28
     3d4:	07040300 	streq	r0, [r4, -r0, lsl #6]
     3d8:	0000063b 	andeq	r0, r0, fp, lsr r6
     3dc:	00004e06 	andeq	r4, r0, r6, lsl #28
     3e0:	05040300 	streq	r0, [r4, #-768]	; 0xfffffd00
     3e4:	00000124 	andeq	r0, r0, r4, lsr #2
     3e8:	00034407 	andeq	r4, r3, r7, lsl #8
     3ec:	69021400 	stmdbvs	r2, {sl, ip}
     3f0:	000000aa 	andeq	r0, r0, sl, lsr #1
     3f4:	0002f708 	andeq	pc, r2, r8, lsl #14
     3f8:	436b0200 	cmnmi	fp, #0, 4
     3fc:	00000000 	andeq	r0, r0, r0
     400:	0004a908 	andeq	sl, r4, r8, lsl #18
     404:	af6c0200 	svcge	0x006c0200
     408:	04000000 	streq	r0, [r0], #-0
     40c:	0003c008 	andeq	ip, r3, r8
     410:	af6d0200 	svcge	0x006d0200
     414:	08000000 	stmdaeq	r0, {}	; <UNPREDICTABLE>
     418:	00031908 	andeq	r1, r3, r8, lsl #18
     41c:	416e0200 	cmnmi	lr, r0, lsl #4
     420:	0c000000 	stceq	0, cr0, [r0], {-0}
     424:	0002cf08 	andeq	ip, r2, r8, lsl #30
     428:	416f0200 	cmnmi	pc, r0, lsl #4
     42c:	10000000 	andne	r0, r0, r0
     430:	00610600 	rsbeq	r0, r1, r0, lsl #12
     434:	04090000 	streq	r0, [r9], #-0
     438:	000000aa 	andeq	r0, r0, sl, lsr #1
     43c:	0004db05 	andeq	sp, r4, r5, lsl #22
     440:	61710200 	cmnvs	r1, r0, lsl #4
     444:	06000000 	streq	r0, [r0], -r0
     448:	000000b5 	strheq	r0, [r0], -r5
     44c:	00054407 	andeq	r4, r5, r7, lsl #8
     450:	73020c00 	movwvc	r0, #11264	; 0x2c00
     454:	000000f6 	strdeq	r0, [r0], -r6
     458:	0002f708 	andeq	pc, r2, r8, lsl #14
     45c:	43750200 	cmnmi	r5, #0, 4
     460:	00000000 	andeq	r0, r0, r0
     464:	0004a908 	andeq	sl, r4, r8, lsl #18
     468:	af760200 	svcge	0x00760200
     46c:	04000000 	streq	r0, [r0], #-0
     470:	0003c008 	andeq	ip, r3, r8
     474:	af770200 	svcge	0x00770200
     478:	08000000 	stmdaeq	r0, {}	; <UNPREDICTABLE>
     47c:	04300500 	ldrteq	r0, [r0], #-1280	; 0xfffffb00
     480:	79020000 	stmdbvc	r2, {}	; <UNPREDICTABLE>
     484:	000000c5 	andeq	r0, r0, r5, asr #1
     488:	0000f606 	andeq	pc, r0, r6, lsl #12
     48c:	05540700 	ldrbeq	r0, [r4, #-1792]	; 0xfffff900
     490:	02140000 	andseq	r0, r4, #0
     494:	0001377e 	andeq	r3, r1, lr, ror r7
     498:	044f0800 	strbeq	r0, [pc], #-2048	; 4a0 <_start-0x7b60>
     49c:	80020000 	andhi	r0, r2, r0
     4a0:	00000055 	andeq	r0, r0, r5, asr r0
     4a4:	02ef0800 	rsceq	r0, pc, #0, 16
     4a8:	81020000 	mrshi	r0, (UNDEF: 2)
     4ac:	00000137 	andeq	r0, r0, r7, lsr r1
     4b0:	03100804 	tsteq	r0, #4, 16	; 0x40000
     4b4:	82020000 	andhi	r0, r2, #0
     4b8:	00000101 	andeq	r0, r0, r1, lsl #2
     4bc:	04090008 	streq	r0, [r9], #-8
     4c0:	000000c0 	andeq	r0, r0, r0, asr #1
     4c4:	00098605 	andeq	r8, r9, r5, lsl #12
     4c8:	06830200 	streq	r0, [r3], r0, lsl #4
     4cc:	0a000001 	beq	4d8 <_start-0x7b28>
     4d0:	0000013d 	andeq	r0, r0, sp, lsr r1
     4d4:	94060103 	strls	r0, [r6], #-259	; 0xfffffefd
     4d8:	03000008 	movweq	r0, #8
     4dc:	00690702 	rsbeq	r0, r9, r2, lsl #14
     4e0:	7d050000 	stcvc	0, cr0, [r5, #-0]
     4e4:	04000004 	streq	r0, [r0], #-4
     4e8:	00004153 	andeq	r4, r0, r3, asr r1
     4ec:	05da0500 	ldrbeq	r0, [sl, #1280]	; 0x500
     4f0:	56040000 	strpl	r0, [r4], -r0
     4f4:	00000171 	andeq	r0, r0, r1, ror r1
     4f8:	01770409 	cmneq	r7, r9, lsl #8
     4fc:	870b0000 	strhi	r0, [fp, -r0]
     500:	0c000001 	stceq	0, cr0, [r0], {1}
     504:	0000015b 	andeq	r0, r0, fp, asr r1
     508:	00004e0c 	andeq	r4, r0, ip, lsl #28
     50c:	db070000 	blle	1c0514 <__bss_end+0x1aa9dc>
     510:	38000003 	stmdacc	r0, {r0, r1}
     514:	01dc5804 	bicseq	r5, ip, r4, lsl #16
     518:	db080000 	blle	200520 <__bss_end+0x1ea9e8>
     51c:	04000002 	streq	r0, [r0], #-2
     520:	0001665a 	andeq	r6, r1, sl, asr r6
     524:	8a080000 	bhi	20052c <__bss_end+0x1ea9f4>
     528:	04000005 	streq	r0, [r0], #-5
     52c:	0000b55b 	andeq	fp, r0, fp, asr r5
     530:	b7080400 	strlt	r0, [r8, -r0, lsl #8]
     534:	04000005 	streq	r0, [r0], #-5
     538:	0000b55c 	andeq	fp, r0, ip, asr r5
     53c:	72081800 	andvc	r1, r8, #0, 16
     540:	04000004 	streq	r0, [r0], #-4
     544:	00004e5d 	andeq	r4, r0, sp, asr lr
     548:	28082c00 	stmdacs	r8, {sl, fp, sp}
     54c:	04000004 	streq	r0, [r0], #-4
     550:	00004e5e 	andeq	r4, r0, lr, asr lr
     554:	1d083000 	stcne	0, cr3, [r8, #-0]
     558:	04000005 	streq	r0, [r0], #-5
     55c:	0001545f 	andeq	r5, r1, pc, asr r4
     560:	05003400 	streq	r3, [r0, #-1024]	; 0xfffffc00
     564:	000003b1 			; <UNDEFINED> instruction: 0x000003b1
     568:	01876004 	orreq	r6, r7, r4
     56c:	3d0d0000 	stccc	0, cr0, [sp, #-0]
     570:	f7000001 			; <UNDEFINED> instruction: 0xf7000001
     574:	0e000001 	cdpeq	0, 0, cr0, cr0, cr1, {0}
     578:	0000002c 	andeq	r0, r0, ip, lsr #32
     57c:	120f0001 	andne	r0, pc, #1
     580:	01000004 	tsteq	r0, r4
     584:	0001e751 	andeq	lr, r1, r1, asr r7
     588:	5c030500 	cfstr32pl	mvfx0, [r3], {-0}
     58c:	0f000147 	svceq	0x00000147
     590:	00000383 	andeq	r0, r0, r3, lsl #7
     594:	013d5201 	teqeq	sp, r1, lsl #4
     598:	03050000 	movweq	r0, #20480	; 0x5000
     59c:	00014784 	andeq	r4, r1, r4, lsl #15
     5a0:	00039a0f 	andeq	r9, r3, pc, lsl #20
     5a4:	3d530100 	ldfcce	f0, [r3, #-0]
     5a8:	05000001 	streq	r0, [r0, #-1]
     5ac:	01479803 	cmpeq	r7, r3, lsl #16
     5b0:	055a0f00 	ldrbeq	r0, [sl, #-3840]	; 0xfffff100
     5b4:	54010000 	strpl	r0, [r1], #-0
     5b8:	0000023b 	andeq	r0, r0, fp, lsr r2
     5bc:	47ac0305 	strmi	r0, [ip, r5, lsl #6]!
     5c0:	04090001 	streq	r0, [r9], #-1
     5c4:	0000013d 	andeq	r0, r0, sp, lsr r1
     5c8:	00023b0a 	andeq	r3, r2, sl, lsl #22
     5cc:	05250f00 	streq	r0, [r5, #-3840]!	; 0xfffff100
     5d0:	55010000 	strpl	r0, [r1, #-0]
     5d4:	0000023b 	andeq	r0, r0, fp, lsr r2
     5d8:	47b00305 	ldrmi	r0, [r0, r5, lsl #6]!
     5dc:	8e0f0001 	cdphi	0, 0, cr0, cr15, cr1, {0}
     5e0:	01000004 	tsteq	r0, r4
     5e4:	00013d56 	andeq	r3, r1, r6, asr sp
     5e8:	b4030500 	strlt	r0, [r3], #-1280	; 0xfffffb00
     5ec:	10000147 	andne	r0, r0, r7, asr #2
     5f0:	0000045f 	andeq	r0, r0, pc, asr r4
     5f4:	02795901 	rsbseq	r5, r9, #16384	; 0x4000
     5f8:	03050000 	movweq	r0, #20480	; 0x5000
     5fc:	000147c8 	andeq	r4, r1, r8, asr #15
     600:	01dc0409 	bicseq	r0, ip, r9, lsl #8
     604:	670f0000 	strvs	r0, [pc, -r0]
     608:	01000003 	tsteq	r0, r3
     60c:	00004e5a 	andeq	r4, r0, sl, asr lr
     610:	cc030500 	cfstr32gt	mvfx0, [r3], {-0}
     614:	0f000147 	svceq	0x00000147
     618:	00000330 	andeq	r0, r0, r0, lsr r3
     61c:	00435b01 	subeq	r5, r3, r1, lsl #22
     620:	03050000 	movweq	r0, #20480	; 0x5000
     624:	000147d0 	ldrdeq	r4, [r1], -r0
     628:	0003210f 	andeq	r2, r3, pc, lsl #2
     62c:	435b0100 	cmpmi	fp, #0, 2
     630:	05000000 	streq	r0, [r0, #-0]
     634:	0147d403 	cmpeq	r7, r3, lsl #8
     638:	05040f00 	streq	r0, [r4, #-3840]	; 0xfffff100
     63c:	5b010000 	blpl	40644 <__bss_end+0x2ab0c>
     640:	00000043 	andeq	r0, r0, r3, asr #32
     644:	47d80305 	ldrbmi	r0, [r8, r5, lsl #6]
     648:	f4110001 			; <UNDEFINED> instruction: 0xf4110001
     64c:	01000003 	tsteq	r0, r3
     650:	005a016c 	subseq	r0, sl, ip, ror #2
     654:	0cc80000 	stcleq	0, cr0, [r8], {0}
     658:	008c0001 	addeq	r0, ip, r1
     65c:	9c010000 	stcls	0, cr0, [r1], {-0}
     660:	0000030b 	andeq	r0, r0, fp, lsl #6
     664:	00035b12 	andeq	r5, r3, r2, lsl fp
     668:	016c0100 	cmneq	ip, r0, lsl #2
     66c:	0000030b 	andeq	r0, r0, fp, lsl #6
     670:	136c9102 	cmnne	ip, #-2147483648	; 0x80000000
     674:	0000029d 	muleq	r0, sp, r2
     678:	79016e01 	stmdbvc	r1, {r0, r9, sl, fp, sp, lr}
     67c:	02000002 	andeq	r0, r0, #2
     680:	cd137091 	ldcgt	0, cr7, [r3, #-580]	; 0xfffffdbc
     684:	0100000b 	tsteq	r0, fp
     688:	005a016f 	subseq	r0, sl, pc, ror #2
     68c:	91020000 	mrsls	r0, (UNDEF: 2)
     690:	04090074 	streq	r0, [r9], #-116	; 0xffffff8c
     694:	00000148 	andeq	r0, r0, r8, asr #2
     698:	00059b14 	andeq	r9, r5, r4, lsl fp
     69c:	01580100 	cmpeq	r8, r0, lsl #2
     6a0:	00010c20 	andeq	r0, r1, r0, lsr #24
     6a4:	000000a8 	andeq	r0, r0, r8, lsr #1
     6a8:	03379c01 	teqeq	r7, #256	; 0x100
     6ac:	72130000 	andsvc	r0, r3, #0
     6b0:	01000004 	tsteq	r0, r4
     6b4:	004e015a 	subeq	r0, lr, sl, asr r1
     6b8:	91020000 	mrsls	r0, (UNDEF: 2)
     6bc:	e5150074 	ldr	r0, [r5, #-116]	; 0xffffff8c
     6c0:	01000004 	tsteq	r0, r4
     6c4:	0af8013a 	beq	ffe00bb4 <_estack+0xf7df0bb4>
     6c8:	01280001 			; <UNDEFINED> instruction: 0x01280001
     6cc:	9c010000 	stcls	0, cr0, [r1], {-0}
     6d0:	00000367 	andeq	r0, r0, r7, ror #6
     6d4:	010b6016 	tsteq	fp, r6, lsl r0
     6d8:	00007800 	andeq	r7, r0, r0, lsl #16
     6dc:	034f1300 	movteq	r1, #62208	; 0xf300
     6e0:	4f010000 	svcmi	0x00010000
     6e4:	00024101 	andeq	r4, r2, r1, lsl #2
     6e8:	74910200 	ldrvc	r0, [r1], #512	; 0x200
     6ec:	c6140000 	ldrgt	r0, [r4], -r0
     6f0:	01000005 	tsteq	r0, r5
     6f4:	09280100 	stmdbeq	r8!, {r8}
     6f8:	01d00001 	bicseq	r0, r0, r1
     6fc:	9c010000 	stcls	0, cr0, [r1], {-0}
     700:	000003a6 	andeq	r0, r0, r6, lsr #7
     704:	0003b913 	andeq	fp, r3, r3, lsl r9
     708:	01020100 	mrseq	r0, (UNDEF: 18)
     70c:	00000279 	andeq	r0, r0, r9, ror r2
     710:	16709102 	ldrbtne	r9, [r0], -r2, lsl #2
     714:	0001098c 	andeq	r0, r1, ip, lsl #19
     718:	00000028 	andeq	r0, r0, r8, lsr #32
     71c:	0002ad13 	andeq	sl, r2, r3, lsl sp
     720:	010d0100 	mrseq	r0, (UNDEF: 29)
     724:	0000023b 	andeq	r0, r0, fp, lsr r2
     728:	00749102 	rsbseq	r9, r4, r2, lsl #2
     72c:	05711700 	ldrbeq	r1, [r1, #-1792]!	; 0xfffff900
     730:	e9010000 	stmdb	r1, {}	; <UNPREDICTABLE>
     734:	0001083c 	andeq	r0, r1, ip, lsr r8
     738:	000000ec 	andeq	r0, r0, ip, ror #1
     73c:	03d49c01 	bicseq	r9, r4, #256	; 0x100
     740:	4c160000 	ldcmi	0, cr0, [r6], {-0}
     744:	b4000108 	strlt	r0, [r0], #-264	; 0xfffffef8
     748:	0f000000 	svceq	0x00000000
     74c:	0000029d 	muleq	r0, sp, r2
     750:	0279f001 	rsbseq	pc, r9, #1
     754:	91020000 	mrsls	r0, (UNDEF: 2)
     758:	18000074 	stmdane	r0, {r2, r4, r5, r6}
     75c:	000002b4 			; <UNDEFINED> instruction: 0x000002b4
     760:	0758c301 	ldrbeq	ip, [r8, -r1, lsl #6]
     764:	00e40001 	rsceq	r0, r4, r1
     768:	9c010000 	stcls	0, cr0, [r1], {-0}
     76c:	00000414 	andeq	r0, r0, r4, lsl r4
     770:	00030219 	andeq	r0, r3, r9, lsl r2
     774:	43c30100 	bicmi	r0, r3, #0, 2
     778:	02000000 	andeq	r0, r0, #0
     77c:	5b196c91 	blpl	65b9c8 <__bss_end+0x645e90>
     780:	01000003 	tsteq	r0, r3
     784:	00023bc3 	andeq	r3, r2, r3, asr #23
     788:	68910200 	ldmvs	r1, {r9}
     78c:	0004f80f 	andeq	pc, r4, pc, lsl #16
     790:	43c50100 	bicmi	r0, r5, #0, 2
     794:	02000000 	andeq	r0, r0, #0
     798:	1a007491 	bne	1d9e4 <__bss_end+0x7eac>
     79c:	0000043e 	andeq	r0, r0, lr, lsr r4
     7a0:	005a8a01 	subseq	r8, sl, r1, lsl #20
     7a4:	05f00000 	ldrbeq	r0, [r0, #0]!
     7a8:	01680001 	cmneq	r8, r1
     7ac:	9c010000 	stcls	0, cr0, [r1], {-0}
     7b0:	0003cb19 	andeq	ip, r3, r9, lsl fp
     7b4:	668a0100 	strvs	r0, [sl], r0, lsl #2
     7b8:	02000001 	andeq	r0, r0, #1
     7bc:	72196c91 	andsvc	r6, r9, #37120	; 0x9100
     7c0:	01000004 	tsteq	r0, r4
     7c4:	00004e8a 	andeq	r4, r0, sl, lsl #29
     7c8:	68910200 	ldmvs	r1, {r9}
     7cc:	00042819 	andeq	r2, r4, r9, lsl r8
     7d0:	4e8a0100 	rmfmie	f0, f2, f0
     7d4:	02000000 	andeq	r0, r0, #0
     7d8:	cd0f6491 	cfstrsgt	mvf6, [pc, #-580]	; 59c <_start-0x7a64>
     7dc:	0100000b 	tsteq	r0, fp
     7e0:	00005a8c 	andeq	r5, r0, ip, lsl #21
     7e4:	74910200 	ldrvc	r0, [r1], #512	; 0x200
     7e8:	0005110f 	andeq	r1, r5, pc, lsl #2
     7ec:	798d0100 	stmibvc	sp, {r8}
     7f0:	02000002 	andeq	r0, r0, #2
     7f4:	00007091 	muleq	r0, r1, r0
     7f8:	00000aa3 	andeq	r0, r0, r3, lsr #21
     7fc:	037d0004 	cmneq	sp, #4
     800:	01040000 	mrseq	r0, (UNDEF: 4)
     804:	0000009a 	muleq	r0, sl, r0
     808:	0007b50c 	andeq	fp, r7, ip, lsl #10
     80c:	00000c00 	andeq	r0, r0, r0, lsl #24
     810:	010d5400 	tsteq	sp, r0, lsl #8
     814:	00029c00 	andeq	r9, r2, r0, lsl #24
     818:	00034800 	andeq	r4, r3, r0, lsl #16
     81c:	07040200 	streq	r0, [r4, -r0, lsl #4]
     820:	00000640 	andeq	r0, r0, r0, asr #12
     824:	69050403 	stmdbvs	r5, {r0, r1, sl}
     828:	0200746e 	andeq	r7, r0, #1845493760	; 0x6e000000
     82c:	011f0508 	tsteq	pc, r8, lsl #10
     830:	08020000 	stmdaeq	r2, {}	; <UNPREDICTABLE>
     834:	00014d04 	andeq	r4, r1, r4, lsl #26
     838:	06010200 	streq	r0, [r1], -r0, lsl #4
     83c:	00000894 	muleq	r0, r4, r8
     840:	92080102 	andls	r0, r8, #-2147483648	; 0x80000000
     844:	02000008 	andeq	r0, r0, #8
     848:	08ae0502 	stmiaeq	lr!, {r1, r8, sl}
     84c:	02020000 	andeq	r0, r2, #0
     850:	00006907 	andeq	r6, r0, r7, lsl #18
     854:	05040200 	streq	r0, [r4, #-512]	; 0xfffffe00
     858:	00000124 	andeq	r0, r0, r4, lsr #2
     85c:	3b070402 	blcc	1c186c <__bss_end+0x1abd34>
     860:	04000006 	streq	r0, [r0], #-6
     864:	00000064 	andeq	r0, r0, r4, rrx
     868:	36070802 	strcc	r0, [r7], -r2, lsl #16
     86c:	05000006 	streq	r0, [r0, #-6]
     870:	00000803 	andeq	r0, r0, r3, lsl #16
     874:	00822202 	addeq	r2, r2, r2, lsl #4
     878:	04060000 	streq	r0, [r6], #-0
     87c:	00000088 	andeq	r0, r0, r8, lsl #1
     880:	00095c07 	andeq	r5, r9, r7, lsl #24
     884:	08730500 	ldmdaeq	r3!, {r8, sl}^
     888:	2c030000 	stccs	0, cr0, [r3], {-0}
     88c:	0000005d 	andeq	r0, r0, sp, asr r0
     890:	00097d05 	andeq	r7, r9, r5, lsl #26
     894:	5d720300 	ldclpl	3, cr0, [r2, #-0]
     898:	08000000 	stmdaeq	r0, {}	; <UNPREDICTABLE>
     89c:	0000080b 	andeq	r0, r0, fp, lsl #16
     8a0:	25016504 	strcs	r6, [r1, #-1284]	; 0xfffffafc
     8a4:	09000000 	stmdbeq	r0, {}	; <UNPREDICTABLE>
     8a8:	cea60304 	cdpgt	3, 10, cr0, cr6, cr4, {0}
     8ac:	0a000000 	beq	8b4 <_start-0x774c>
     8b0:	000007fd 	strdeq	r0, [r0], -sp
     8b4:	00a3a803 	adceq	sl, r3, r3, lsl #16
     8b8:	880a0000 	stmdahi	sl, {}	; <UNPREDICTABLE>
     8bc:	03000007 	movweq	r0, #7
     8c0:	0000cea9 	andeq	ip, r0, r9, lsr #29
     8c4:	480b0000 	stmdami	fp, {}	; <UNPREDICTABLE>
     8c8:	de000000 	cdple	0, 0, cr0, cr0, cr0, {0}
     8cc:	0c000000 	stceq	0, cr0, [r0], {-0}
     8d0:	00000025 	andeq	r0, r0, r5, lsr #32
     8d4:	080d0003 	stmdaeq	sp, {r0, r1}
     8d8:	00ffa303 	rscseq	sl, pc, r3, lsl #6
     8dc:	540e0000 	strpl	r0, [lr], #-0
     8e0:	03000009 	movweq	r0, #9
     8e4:	00002ca5 	andeq	r2, r0, r5, lsr #25
     8e8:	630e0000 	movwvs	r0, #57344	; 0xe000
     8ec:	03000009 	movweq	r0, #9
     8f0:	0000afaa 	andeq	sl, r0, sl, lsr #31
     8f4:	05000400 	streq	r0, [r0, #-1024]	; 0xfffffc00
     8f8:	000008d6 	ldrdeq	r0, [r0], -r6
     8fc:	00deab03 	sbcseq	sl, lr, r3, lsl #22
     900:	4b050000 	blmi	140908 <__bss_end+0x12add0>
     904:	03000007 	movweq	r0, #7
     908:	000077af 	andeq	r7, r0, pc, lsr #15
     90c:	06040f00 	streq	r0, [r4], -r0, lsl #30
     910:	00011d04 	andeq	r1, r1, r4, lsl #26
     914:	08010200 	stmdaeq	r1, {r9}
     918:	0000089b 	muleq	r0, fp, r8
     91c:	00011d10 	andeq	r1, r1, r0, lsl sp
     920:	09c10500 	stmibeq	r1, {r8, sl}^
     924:	16050000 	strne	r0, [r5], -r0
     928:	00000064 	andeq	r0, r0, r4, rrx
     92c:	00075c11 	andeq	r5, r7, r1, lsl ip
     930:	2f051800 	svccs	0x00051800
     934:	00000187 	andeq	r0, r0, r7, lsl #3
     938:	0008f70e 	andeq	pc, r8, lr, lsl #14
     93c:	87310500 	ldrhi	r0, [r1, -r0, lsl #10]!
     940:	00000001 	andeq	r0, r0, r1
     944:	006b5f12 	rsbeq	r5, fp, r2, lsl pc
     948:	002c3205 	eoreq	r3, ip, r5, lsl #4
     94c:	0e040000 	cdpeq	0, 0, cr0, cr4, cr0, {0}
     950:	0000093f 	andeq	r0, r0, pc, lsr r9
     954:	002c3205 	eoreq	r3, ip, r5, lsl #4
     958:	0e080000 	cdpeq	0, 0, cr0, cr8, cr0, {0}
     95c:	00000745 	andeq	r0, r0, r5, asr #14
     960:	002c3205 	eoreq	r3, ip, r5, lsl #4
     964:	0e0c0000 	cdpeq	0, 0, cr0, cr12, cr0, {0}
     968:	00000a06 	andeq	r0, r0, r6, lsl #20
     96c:	002c3205 	eoreq	r3, ip, r5, lsl #4
     970:	12100000 	andsne	r0, r0, #0
     974:	0500785f 	streq	r7, [r0, #-2143]	; 0xfffff7a1
     978:	00018d33 	andeq	r8, r1, r3, lsr sp
     97c:	06001400 	streq	r1, [r0], -r0, lsl #8
     980:	00013404 	andeq	r3, r1, r4, lsl #8
     984:	01290b00 			; <UNDEFINED> instruction: 0x01290b00
     988:	019d0000 	orrseq	r0, sp, r0
     98c:	250c0000 	strcs	r0, [ip, #-0]
     990:	00000000 	andeq	r0, r0, r0
     994:	07831100 	streq	r1, [r3, r0, lsl #2]
     998:	05240000 	streq	r0, [r4, #-0]!
     99c:	00021637 	andeq	r1, r2, r7, lsr r6
     9a0:	067e0e00 	ldrbteq	r0, [lr], -r0, lsl #28
     9a4:	39050000 	stmdbcc	r5, {}	; <UNPREDICTABLE>
     9a8:	0000002c 	andeq	r0, r0, ip, lsr #32
     9ac:	098c0e00 	stmibeq	ip, {r9, sl, fp}
     9b0:	3a050000 	bcc	1409b8 <__bss_end+0x12ae80>
     9b4:	0000002c 	andeq	r0, r0, ip, lsr #32
     9b8:	06930e04 	ldreq	r0, [r3], r4, lsl #28
     9bc:	3b050000 	blcc	1409c4 <__bss_end+0x12ae8c>
     9c0:	0000002c 	andeq	r0, r0, ip, lsr #32
     9c4:	0a910e08 	beq	fe4441ec <_estack+0xf64341ec>
     9c8:	3c050000 	stccc	0, cr0, [r5], {-0}
     9cc:	0000002c 	andeq	r0, r0, ip, lsr #32
     9d0:	084d0e0c 	stmdaeq	sp, {r2, r3, r9, sl, fp}^
     9d4:	3d050000 	stccc	0, cr0, [r5, #-0]
     9d8:	0000002c 	andeq	r0, r0, ip, lsr #32
     9dc:	082d0e10 	stmdaeq	sp!, {r4, r9, sl, fp}
     9e0:	3e050000 	cdpcc	0, 0, cr0, cr5, cr0, {0}
     9e4:	0000002c 	andeq	r0, r0, ip, lsr #32
     9e8:	0a0b0e14 	beq	2c4240 <__bss_end+0x2ae708>
     9ec:	3f050000 	svccc	0x00050000
     9f0:	0000002c 	andeq	r0, r0, ip, lsr #32
     9f4:	08b80e18 	ldmeq	r8!, {r3, r4, r9, sl, fp}
     9f8:	40050000 	andmi	r0, r5, r0
     9fc:	0000002c 	andeq	r0, r0, ip, lsr #32
     a00:	0a580e1c 	beq	1604278 <__bss_end+0x15ee740>
     a04:	41050000 	mrsmi	r0, (UNDEF: 5)
     a08:	0000002c 	andeq	r0, r0, ip, lsr #32
     a0c:	a2130020 	andsge	r0, r3, #32
     a10:	08000006 	stmdaeq	r0, {r1, r2}
     a14:	564a0501 	strbpl	r0, [sl], -r1, lsl #10
     a18:	0e000002 	cdpeq	0, 0, cr0, cr0, cr2, {0}
     a1c:	00000724 	andeq	r0, r0, r4, lsr #14
     a20:	02564b05 	subseq	r4, r6, #5120	; 0x1400
     a24:	0e000000 	cdpeq	0, 0, cr0, cr0, cr0, {0}
     a28:	000005eb 	andeq	r0, r0, fp, ror #11
     a2c:	02564c05 	subseq	r4, r6, #1280	; 0x500
     a30:	14800000 	strne	r0, [r0], #0
     a34:	000009a8 	andeq	r0, r0, r8, lsr #19
     a38:	01294e05 			; <UNDEFINED> instruction: 0x01294e05
     a3c:	01000000 	mrseq	r0, (UNDEF: 0)
     a40:	0006c714 	andeq	ip, r6, r4, lsl r7
     a44:	29510500 	ldmdbcs	r1, {r8, sl}^
     a48:	04000001 	streq	r0, [r0], #-1
     a4c:	150b0001 	strne	r0, [fp, #-1]
     a50:	66000001 	strvs	r0, [r0], -r1
     a54:	0c000002 	stceq	0, cr0, [r0], {2}
     a58:	00000025 	andeq	r0, r0, r5, lsr #32
     a5c:	5613001f 			; <UNDEFINED> instruction: 0x5613001f
     a60:	90000008 	andls	r0, r0, r8
     a64:	a45d0501 	ldrbge	r0, [sp], #-1281	; 0xfffffaff
     a68:	0e000002 	cdpeq	0, 0, cr0, cr0, cr2, {0}
     a6c:	000008f7 	strdeq	r0, [r0], -r7
     a70:	02a45e05 	adceq	r5, r4, #5, 28	; 0x50
     a74:	0e000000 	cdpeq	0, 0, cr0, cr0, cr0, {0}
     a78:	0000090f 	andeq	r0, r0, pc, lsl #18
     a7c:	002c5f05 	eoreq	r5, ip, r5, lsl #30
     a80:	0e040000 	cdpeq	0, 0, cr0, cr4, cr0, {0}
     a84:	0000072c 	andeq	r0, r0, ip, lsr #14
     a88:	02aa6105 	adceq	r6, sl, #1073741825	; 0x40000001
     a8c:	0e080000 	cdpeq	0, 0, cr0, cr8, cr0, {0}
     a90:	000006a2 	andeq	r0, r0, r2, lsr #13
     a94:	02166205 	andseq	r6, r6, #1342177280	; 0x50000000
     a98:	00880000 	addeq	r0, r8, r0
     a9c:	02660406 	rsbeq	r0, r6, #100663296	; 0x6000000
     aa0:	ba0b0000 	blt	2c0aa8 <__bss_end+0x2aaf70>
     aa4:	ba000002 	blt	ab4 <_start-0x754c>
     aa8:	0c000002 	stceq	0, cr0, [r0], {2}
     aac:	00000025 	andeq	r0, r0, r5, lsr #32
     ab0:	0406001f 	streq	r0, [r6], #-31	; 0xffffffe1
     ab4:	000002c0 	andeq	r0, r0, r0, asr #5
     ab8:	08c21115 	stmiaeq	r2, {r0, r2, r4, r8, ip}^
     abc:	05080000 	streq	r0, [r8, #-0]
     ac0:	0002e675 	andeq	lr, r2, r5, ror r6
     ac4:	068d0e00 	streq	r0, [sp], r0, lsl #28
     ac8:	76050000 	strvc	r0, [r5], -r0
     acc:	000002e6 	andeq	r0, r0, r6, ror #5
     ad0:	05f70e00 	ldrbeq	r0, [r7, #3584]!	; 0xe00
     ad4:	77050000 	strvc	r0, [r5, -r0]
     ad8:	0000002c 	andeq	r0, r0, ip, lsr #32
     adc:	04060004 	streq	r0, [r6], #-4
     ae0:	00000048 	andeq	r0, r0, r8, asr #32
     ae4:	0008e111 	andeq	lr, r8, r1, lsl r1
     ae8:	b5056800 	strlt	r6, [r5, #-2048]	; 0xfffff800
     aec:	00000416 	andeq	r0, r0, r6, lsl r4
     af0:	00705f12 	rsbseq	r5, r0, r2, lsl pc
     af4:	02e6b605 	rsceq	fp, r6, #5242880	; 0x500000
     af8:	12000000 	andne	r0, r0, #0
     afc:	0500725f 	streq	r7, [r0, #-607]	; 0xfffffda1
     b00:	00002cb7 			; <UNDEFINED> instruction: 0x00002cb7
     b04:	5f120400 	svcpl	0x00120400
     b08:	b8050077 	stmdalt	r5, {r0, r1, r2, r4, r5, r6}
     b0c:	0000002c 	andeq	r0, r0, ip, lsr #32
     b10:	06c00e08 	strbeq	r0, [r0], r8, lsl #28
     b14:	b9050000 	stmdblt	r5, {}	; <UNPREDICTABLE>
     b18:	0000004f 	andeq	r0, r0, pc, asr #32
     b1c:	079f0e0c 	ldreq	r0, [pc, ip, lsl #28]
     b20:	ba050000 	blt	140b28 <__bss_end+0x12aff0>
     b24:	0000004f 	andeq	r0, r0, pc, asr #32
     b28:	625f120e 	subsvs	r1, pc, #-536870912	; 0xe0000000
     b2c:	bb050066 	bllt	140ccc <__bss_end+0x12b194>
     b30:	000002c1 	andeq	r0, r0, r1, asr #5
     b34:	064d0e10 			; <UNDEFINED> instruction: 0x064d0e10
     b38:	bc050000 	stclt	0, cr0, [r5], {-0}
     b3c:	0000002c 	andeq	r0, r0, ip, lsr #32
     b40:	06b00e18 	ssateq	r0, #17, r8, lsl #28
     b44:	c3050000 	movwgt	r0, #20480	; 0x5000
     b48:	00000115 	andeq	r0, r0, r5, lsl r1
     b4c:	07730e1c 			; <UNDEFINED> instruction: 0x07730e1c
     b50:	c5050000 	strgt	r0, [r5, #-0]
     b54:	00000571 	andeq	r0, r0, r1, ror r5
     b58:	08260e20 	stmdaeq	r6!, {r5, r9, sl, fp}
     b5c:	c7050000 	strgt	r0, [r5, -r0]
     b60:	0000059b 	muleq	r0, fp, r5
     b64:	096b0e24 	stmdbeq	fp!, {r2, r5, r9, sl, fp}^
     b68:	ca050000 	bgt	140b70 <__bss_end+0x12b038>
     b6c:	000005bf 			; <UNDEFINED> instruction: 0x000005bf
     b70:	0a720e28 	beq	1c84418 <__bss_end+0x1c6e8e0>
     b74:	cb050000 	blgt	140b7c <__bss_end+0x12b044>
     b78:	000005d9 	ldrdeq	r0, [r0], -r9
     b7c:	755f122c 	ldrbvc	r1, [pc, #-556]	; 958 <_start-0x76a8>
     b80:	ce050062 	cdpgt	0, 0, cr0, cr5, cr2, {3}
     b84:	000002c1 	andeq	r0, r0, r1, asr #5
     b88:	755f1230 	ldrbvc	r1, [pc, #-560]	; 960 <_start-0x76a0>
     b8c:	cf050070 	svcgt	0x00050070
     b90:	000002e6 	andeq	r0, r0, r6, ror #5
     b94:	755f1238 	ldrbvc	r1, [pc, #-568]	; 964 <_start-0x769c>
     b98:	d0050072 	andle	r0, r5, r2, ror r0
     b9c:	0000002c 	andeq	r0, r0, ip, lsr #32
     ba0:	06870e3c 			; <UNDEFINED> instruction: 0x06870e3c
     ba4:	d3050000 	movwle	r0, #20480	; 0x5000
     ba8:	000005df 	ldrdeq	r0, [r0], -pc	; <UNPREDICTABLE>
     bac:	0a4a0e40 	beq	12844b4 <__bss_end+0x126e97c>
     bb0:	d4050000 	strle	r0, [r5], #-0
     bb4:	000005ef 	andeq	r0, r0, pc, ror #11
     bb8:	6c5f1243 	lfmvs	f1, 2, [pc], {67}	; 0x43
     bbc:	d7050062 	strle	r0, [r5, -r2, rrx]
     bc0:	000002c1 	andeq	r0, r0, r1, asr #5
     bc4:	06d60e44 	ldrbeq	r0, [r6], r4, asr #28
     bc8:	da050000 	ble	140bd0 <__bss_end+0x12b098>
     bcc:	0000002c 	andeq	r0, r0, ip, lsr #32
     bd0:	06e70e4c 	strbteq	r0, [r7], ip, asr #28
     bd4:	db050000 	blle	140bdc <__bss_end+0x12b0a4>
     bd8:	0000008d 	andeq	r0, r0, sp, lsl #1
     bdc:	06100e50 			; <UNDEFINED> instruction: 0x06100e50
     be0:	de050000 	cdple	0, 0, cr0, cr5, cr0, {0}
     be4:	00000434 	andeq	r0, r0, r4, lsr r4
     be8:	095d0e54 	ldmdbeq	sp, {r2, r4, r6, r9, sl, fp}^
     bec:	e2050000 	and	r0, r5, #0
     bf0:	0000010a 	andeq	r0, r0, sl, lsl #2
     bf4:	08e90e58 	stmiaeq	r9!, {r3, r4, r6, r9, sl, fp}^
     bf8:	e4050000 	str	r0, [r5], #-0
     bfc:	000000ff 	strdeq	r0, [r0], -pc	; <UNPREDICTABLE>
     c00:	081e0e5c 	ldmdaeq	lr, {r2, r3, r4, r6, r9, sl, fp}
     c04:	e5050000 	str	r0, [r5, #-0]
     c08:	0000002c 	andeq	r0, r0, ip, lsr #32
     c0c:	2c160064 	ldccs	0, cr0, [r6], {100}	; 0x64
     c10:	34000000 	strcc	r0, [r0], #-0
     c14:	17000004 	strne	r0, [r0, -r4]
     c18:	00000434 	andeq	r0, r0, r4, lsr r4
     c1c:	00011517 	andeq	r1, r1, r7, lsl r5
     c20:	01171700 	tsteq	r7, r0, lsl #14
     c24:	2c170000 	ldccs	0, cr0, [r7], {-0}
     c28:	00000000 	andeq	r0, r0, r0
     c2c:	043f0406 	ldrteq	r0, [pc], #-1030	; c34 <_start-0x73cc>
     c30:	34100000 	ldrcc	r0, [r0], #-0
     c34:	18000004 	stmdane	r0, {r2}
     c38:	00000947 	andeq	r0, r0, r7, asr #18
     c3c:	60050428 	andvs	r0, r5, r8, lsr #8
     c40:	00057102 	andeq	r7, r5, r2, lsl #2
     c44:	08a71900 	stmiaeq	r7!, {r8, fp, ip}
     c48:	62050000 	andvs	r0, r5, #0
     c4c:	00002c02 	andeq	r2, r0, r2, lsl #24
     c50:	cf190000 	svcgt	0x00190000
     c54:	05000006 	streq	r0, [r0, #-6]
     c58:	06460267 	strbeq	r0, [r6], -r7, ror #4
     c5c:	19040000 	stmdbne	r4, {}	; <UNPREDICTABLE>
     c60:	0000078f 	andeq	r0, r0, pc, lsl #15
     c64:	46026705 	strmi	r6, [r2], -r5, lsl #14
     c68:	08000006 	stmdaeq	r0, {r1, r2}
     c6c:	00075419 	andeq	r5, r7, r9, lsl r4
     c70:	02670500 	rsbeq	r0, r7, #0, 10
     c74:	00000646 	andeq	r0, r0, r6, asr #12
     c78:	090a190c 	stmdbeq	sl, {r2, r3, r8, fp, ip}
     c7c:	69050000 	stmdbvs	r5, {}	; <UNPREDICTABLE>
     c80:	00002c02 	andeq	r2, r0, r2, lsl #24
     c84:	05191000 	ldreq	r1, [r9, #-0]
     c88:	05000006 	streq	r0, [r0, #-6]
     c8c:	0828026a 	stmdaeq	r8!, {r1, r3, r5, r6, r9}
     c90:	19140000 	ldmdbne	r4, {}	; <UNPREDICTABLE>
     c94:	00000926 	andeq	r0, r0, r6, lsr #18
     c98:	2c026d05 	stccs	13, cr6, [r2], {5}
     c9c:	30000000 	andcc	r0, r0, r0
     ca0:	00091419 	andeq	r1, r9, r9, lsl r4
     ca4:	026e0500 	rsbeq	r0, lr, #0, 10
     ca8:	0000083d 	andeq	r0, r0, sp, lsr r8
     cac:	08681934 	stmdaeq	r8!, {r2, r4, r5, r8, fp, ip}^
     cb0:	70050000 	andvc	r0, r5, r0
     cb4:	00002c02 	andeq	r2, r0, r2, lsl #24
     cb8:	1c193800 	ldcne	8, cr3, [r9], {-0}
     cbc:	05000009 	streq	r0, [r0, #-9]
     cc0:	084e0272 	stmdaeq	lr, {r1, r4, r5, r6, r9}^
     cc4:	193c0000 	ldmdbne	ip!, {}	; <UNPREDICTABLE>
     cc8:	000007f5 	strdeq	r0, [r0], -r5
     ccc:	87027505 	strhi	r7, [r2, -r5, lsl #10]
     cd0:	40000001 	andmi	r0, r0, r1
     cd4:	00077919 	andeq	r7, r7, r9, lsl r9
     cd8:	02760500 	rsbseq	r0, r6, #0, 10
     cdc:	0000002c 	andeq	r0, r0, ip, lsr #32
     ce0:	0a8c1944 	beq	fe3071f8 <_estack+0xf62f71f8>
     ce4:	77050000 	strvc	r0, [r5, -r0]
     ce8:	00018702 	andeq	r8, r1, r2, lsl #14
     cec:	7a194800 	bvc	652cf4 <__bss_end+0x63d1bc>
     cf0:	05000008 	streq	r0, [r0, #-8]
     cf4:	08540278 	ldmdaeq	r4, {r3, r4, r5, r6, r9}^
     cf8:	194c0000 	stmdbne	ip, {}^	; <UNPREDICTABLE>
     cfc:	00000797 	muleq	r0, r7, r7
     d00:	2c027b05 			; <UNDEFINED> instruction: 0x2c027b05
     d04:	50000000 	andpl	r0, r0, r0
     d08:	0006df19 	andeq	sp, r6, r9, lsl pc
     d0c:	027c0500 	rsbseq	r0, ip, #0, 10
     d10:	00000117 	andeq	r0, r0, r7, lsl r1
     d14:	08a01954 	stmiaeq	r0!, {r2, r4, r6, r8, fp, ip}
     d18:	9f050000 	svcls	0x00050000
     d1c:	00080602 	andeq	r0, r8, r2, lsl #12
     d20:	561a5800 	ldrpl	r5, [sl], -r0, lsl #16
     d24:	05000008 	streq	r0, [r0, #-8]
     d28:	02a402a3 	adceq	r0, r4, #805306378	; 0x3000000a
     d2c:	01480000 	mrseq	r0, (UNDEF: 72)
     d30:	0007ac1a 	andeq	sl, r7, sl, lsl ip
     d34:	02a40500 	adceq	r0, r4, #0, 10
     d38:	00000266 	andeq	r0, r0, r6, ror #4
     d3c:	2e1a014c 	mufcsem	f0, f2, #4.0
     d40:	0500000a 	streq	r0, [r0, #-10]
     d44:	086502a8 	stmdaeq	r5!, {r3, r5, r7, r9}^
     d48:	02dc0000 	sbcseq	r0, ip, #0
     d4c:	0006b81a 	andeq	fp, r6, sl, lsl r8
     d50:	02ad0500 	adceq	r0, sp, #0, 10
     d54:	0000060b 	andeq	r0, r0, fp, lsl #12
     d58:	9d1a02e0 	lfmls	f0, 4, [sl, #-896]	; 0xfffffc80
     d5c:	05000006 	streq	r0, [r0, #-6]
     d60:	087102af 	ldmdaeq	r1!, {r0, r1, r2, r3, r5, r7, r9}^
     d64:	02ec0000 	rsceq	r0, ip, #0
     d68:	16040600 	strne	r0, [r4], -r0, lsl #12
     d6c:	16000004 	strne	r0, [r0], -r4
     d70:	0000002c 	andeq	r0, r0, ip, lsr #32
     d74:	00000595 	muleq	r0, r5, r5
     d78:	00043417 	andeq	r3, r4, r7, lsl r4
     d7c:	01151700 	tsteq	r5, r0, lsl #14
     d80:	95170000 	ldrls	r0, [r7, #-0]
     d84:	17000005 	strne	r0, [r0, -r5]
     d88:	0000002c 	andeq	r0, r0, ip, lsr #32
     d8c:	24040600 	strcs	r0, [r4], #-1536	; 0xfffffa00
     d90:	06000001 	streq	r0, [r0], -r1
     d94:	00057704 	andeq	r7, r5, r4, lsl #14
     d98:	00981600 	addseq	r1, r8, r0, lsl #12
     d9c:	05bf0000 	ldreq	r0, [pc, #0]!	; da4 <_start-0x725c>
     da0:	34170000 	ldrcc	r0, [r7], #-0
     da4:	17000004 	strne	r0, [r0, -r4]
     da8:	00000115 	andeq	r0, r0, r5, lsl r1
     dac:	00009817 	andeq	r9, r0, r7, lsl r8
     db0:	002c1700 	eoreq	r1, ip, r0, lsl #14
     db4:	06000000 	streq	r0, [r0], -r0
     db8:	0005a104 	andeq	sl, r5, r4, lsl #2
     dbc:	002c1600 	eoreq	r1, ip, r0, lsl #12
     dc0:	05d90000 	ldrbeq	r0, [r9]
     dc4:	34170000 	ldrcc	r0, [r7], #-0
     dc8:	17000004 	strne	r0, [r0, -r4]
     dcc:	00000115 	andeq	r0, r0, r5, lsl r1
     dd0:	c5040600 	strgt	r0, [r4, #-1536]	; 0xfffffa00
     dd4:	0b000005 	bleq	df0 <_start-0x7210>
     dd8:	00000048 	andeq	r0, r0, r8, asr #32
     ddc:	000005ef 	andeq	r0, r0, pc, ror #11
     de0:	0000250c 	andeq	r2, r0, ip, lsl #10
     de4:	0b000200 	bleq	15ec <_start-0x6a14>
     de8:	00000048 	andeq	r0, r0, r8, asr #32
     dec:	000005ff 	strdeq	r0, [r0], -pc	; <UNPREDICTABLE>
     df0:	0000250c 	andeq	r2, r0, ip, lsl #10
     df4:	08000000 	stmdaeq	r0, {}	; <UNPREDICTABLE>
     df8:	000008cf 	andeq	r0, r0, pc, asr #17
     dfc:	ec011f05 	stc	15, cr1, [r1], {5}
     e00:	1b000002 	blne	e10 <_start-0x71f0>
     e04:	00000a15 	andeq	r0, r0, r5, lsl sl
     e08:	0123050c 			; <UNDEFINED> instruction: 0x0123050c
     e0c:	00000640 	andeq	r0, r0, r0, asr #12
     e10:	0008f719 	andeq	pc, r8, r9, lsl r7	; <UNPREDICTABLE>
     e14:	01250500 			; <UNDEFINED> instruction: 0x01250500
     e18:	00000640 	andeq	r0, r0, r0, asr #12
     e1c:	07a51900 	streq	r1, [r5, r0, lsl #18]!
     e20:	26050000 	strcs	r0, [r5], -r0
     e24:	00002c01 	andeq	r2, r0, r1, lsl #24
     e28:	c9190400 	ldmdbgt	r9, {sl}
     e2c:	05000008 	streq	r0, [r0, #-8]
     e30:	06460127 	strbeq	r0, [r6], -r7, lsr #2
     e34:	00080000 	andeq	r0, r8, r0
     e38:	060b0406 	streq	r0, [fp], -r6, lsl #8
     e3c:	04060000 	streq	r0, [r6], #-0
     e40:	000005ff 	strdeq	r0, [r0], -pc	; <UNPREDICTABLE>
     e44:	0005fd1b 	andeq	pc, r5, fp, lsl sp	; <UNPREDICTABLE>
     e48:	3f050e00 	svccc	0x00050e00
     e4c:	00068101 	andeq	r8, r6, r1, lsl #2
     e50:	094e1900 	stmdbeq	lr, {r8, fp, ip}^
     e54:	40050000 	andmi	r0, r5, r0
     e58:	00068101 	andeq	r8, r6, r1, lsl #2
     e5c:	95190000 	ldrls	r0, [r9, #-0]
     e60:	05000009 	streq	r0, [r0, #-9]
     e64:	06810141 	streq	r0, [r1], r1, asr #2
     e68:	19060000 	stmdbne	r6, {}	; <UNPREDICTABLE>
     e6c:	000009b1 			; <UNDEFINED> instruction: 0x000009b1
     e70:	56014205 	strpl	r4, [r1], -r5, lsl #4
     e74:	0c000000 	stceq	0, cr0, [r0], {-0}
     e78:	00560b00 	subseq	r0, r6, r0, lsl #22
     e7c:	06910000 	ldreq	r0, [r1], r0
     e80:	250c0000 	strcs	r0, [ip, #-0]
     e84:	02000000 	andeq	r0, r0, #0
     e88:	05d01c00 	ldrbeq	r1, [r0, #3072]	; 0xc00
     e8c:	07920280 	ldreq	r0, [r2, r0, lsl #5]
     e90:	e9190000 	ldmdb	r9, {}	; <UNPREDICTABLE>
     e94:	05000009 	streq	r0, [r0, #-9]
     e98:	00250282 	eoreq	r0, r5, r2, lsl #5
     e9c:	19000000 	stmdbne	r0, {}	; <UNPREDICTABLE>
     ea0:	0000099b 	muleq	r0, fp, r9
     ea4:	17028305 	strne	r8, [r2, -r5, lsl #6]
     ea8:	04000001 	streq	r0, [r0], #-1
     eac:	0007e819 	andeq	lr, r7, r9, lsl r8
     eb0:	02840500 	addeq	r0, r4, #0, 10
     eb4:	00000792 	muleq	r0, r2, r7
     eb8:	0a631908 	beq	18c72e0 <__bss_end+0x18b17a8>
     ebc:	85050000 	strhi	r0, [r5, #-0]
     ec0:	00019d02 	andeq	r9, r1, r2, lsl #26
     ec4:	64192400 	ldrvs	r2, [r9], #-1024	; 0xfffffc00
     ec8:	05000007 	streq	r0, [r0, #-7]
     ecc:	002c0286 	eoreq	r0, ip, r6, lsl #5
     ed0:	19480000 	stmdbne	r8, {}^	; <UNPREDICTABLE>
     ed4:	000008f2 	strdeq	r0, [r0], -r2
     ed8:	70028705 	andvc	r8, r2, r5, lsl #14
     edc:	50000000 	andpl	r0, r0, r0
     ee0:	000a7919 	andeq	r7, sl, r9, lsl r9
     ee4:	02880500 	addeq	r0, r8, #0, 10
     ee8:	0000064c 	andeq	r0, r0, ip, asr #12
     eec:	08fd1958 	ldmeq	sp!, {r3, r4, r6, r8, fp, ip}^
     ef0:	89050000 	stmdbhi	r5, {}	; <UNPREDICTABLE>
     ef4:	0000ff02 	andeq	pc, r0, r2, lsl #30
     ef8:	7e196800 	cdpvc	8, 1, cr6, cr9, cr0, {0}
     efc:	0500000a 	streq	r0, [r0, #-10]
     f00:	00ff028a 	rscseq	r0, pc, sl, lsl #5
     f04:	19700000 	ldmdbne	r0!, {}^	; <UNPREDICTABLE>
     f08:	00000884 	andeq	r0, r0, r4, lsl #17
     f0c:	ff028b05 			; <UNDEFINED> instruction: 0xff028b05
     f10:	78000000 	stmdavc	r0, {}	; <UNPREDICTABLE>
     f14:	000a2419 	andeq	r2, sl, r9, lsl r4
     f18:	028c0500 	addeq	r0, ip, #0, 10
     f1c:	000007a2 	andeq	r0, r0, r2, lsr #15
     f20:	07dc1980 	ldrbeq	r1, [ip, r0, lsl #19]
     f24:	8d050000 	stchi	0, cr0, [r5, #-0]
     f28:	0007b202 	andeq	fp, r7, r2, lsl #4
     f2c:	c9198800 	ldmdbgt	r9, {fp, pc}
     f30:	05000009 	streq	r0, [r0, #-9]
     f34:	002c028e 	eoreq	r0, ip, lr, lsl #5
     f38:	19a00000 	stmibne	r0!, {}	; <UNPREDICTABLE>
     f3c:	00000716 	andeq	r0, r0, r6, lsl r7
     f40:	ff028f05 			; <UNDEFINED> instruction: 0xff028f05
     f44:	a4000000 	strge	r0, [r0], #-0
     f48:	00066f19 	andeq	r6, r6, r9, lsl pc
     f4c:	02900500 	addseq	r0, r0, #0, 10
     f50:	000000ff 	strdeq	r0, [r0], -pc	; <UNPREDICTABLE>
     f54:	070519ac 	streq	r1, [r5, -ip, lsr #19]
     f58:	91050000 	mrsls	r0, (UNDEF: 5)
     f5c:	0000ff02 	andeq	pc, r0, r2, lsl #30
     f60:	1619b400 	ldrne	fp, [r9], -r0, lsl #8
     f64:	05000006 	streq	r0, [r0, #-6]
     f68:	00ff0292 	smlalseq	r0, pc, r2, r2	; <UNPREDICTABLE>
     f6c:	19bc0000 	ldmibne	ip!, {}	; <UNPREDICTABLE>
     f70:	00000625 	andeq	r0, r0, r5, lsr #12
     f74:	ff029305 			; <UNDEFINED> instruction: 0xff029305
     f78:	c4000000 	strgt	r0, [r0], #-0
     f7c:	0008a519 	andeq	sl, r8, r9, lsl r5
     f80:	02940500 	addseq	r0, r4, #0, 10
     f84:	0000002c 	andeq	r0, r0, ip, lsr #32
     f88:	1d0b00cc 	stcne	0, cr0, [fp, #-816]	; 0xfffffcd0
     f8c:	a2000001 	andge	r0, r0, #1
     f90:	0c000007 	stceq	0, cr0, [r0], {7}
     f94:	00000025 	andeq	r0, r0, r5, lsr #32
     f98:	1d0b0019 	stcne	0, cr0, [fp, #-100]	; 0xffffff9c
     f9c:	b2000001 	andlt	r0, r0, #1
     fa0:	0c000007 	stceq	0, cr0, [r0], {7}
     fa4:	00000025 	andeq	r0, r0, r5, lsr #32
     fa8:	1d0b0007 	stcne	0, cr0, [fp, #-28]	; 0xffffffe4
     fac:	c2000001 	andgt	r0, r0, #1
     fb0:	0c000007 	stceq	0, cr0, [r0], {7}
     fb4:	00000025 	andeq	r0, r0, r5, lsr #32
     fb8:	f01c0017 			; <UNDEFINED> instruction: 0xf01c0017
     fbc:	e6029905 	str	r9, [r2], -r5, lsl #18
     fc0:	19000007 	stmdbne	r0, {r0, r1, r2}
     fc4:	00000846 	andeq	r0, r0, r6, asr #16
     fc8:	e6029c05 	str	r9, [r2], -r5, lsl #24
     fcc:	00000007 	andeq	r0, r0, r7
     fd0:	000a1b19 	andeq	r1, sl, r9, lsl fp
     fd4:	029d0500 	addseq	r0, sp, #0, 10
     fd8:	000007f6 	strdeq	r0, [r0], -r6
     fdc:	e60b0078 			; <UNDEFINED> instruction: 0xe60b0078
     fe0:	f6000002 			; <UNDEFINED> instruction: 0xf6000002
     fe4:	0c000007 	stceq	0, cr0, [r0], {7}
     fe8:	00000025 	andeq	r0, r0, r5, lsr #32
     fec:	250b001d 	strcs	r0, [fp, #-29]	; 0xffffffe3
     ff0:	06000000 	streq	r0, [r0], -r0
     ff4:	0c000008 	stceq	0, cr0, [r0], {8}
     ff8:	00000025 	andeq	r0, r0, r5, lsr #32
     ffc:	f01d001d 			; <UNDEFINED> instruction: 0xf01d001d
    1000:	28027e05 	stmdacs	r2, {r0, r2, r9, sl, fp, ip, sp, lr}
    1004:	1e000008 	cdpne	0, 0, cr0, cr0, cr8, {0}
    1008:	00000947 	andeq	r0, r0, r7, asr #18
    100c:	91029505 	tstls	r2, r5, lsl #10
    1010:	1e000006 	cdpne	0, 0, cr0, cr0, cr6, {0}
    1014:	00000a50 	andeq	r0, r0, r0, asr sl
    1018:	c2029e05 	andgt	r9, r2, #5, 28	; 0x50
    101c:	00000007 	andeq	r0, r0, r7
    1020:	00011d0b 	andeq	r1, r1, fp, lsl #26
    1024:	00083800 	andeq	r3, r8, r0, lsl #16
    1028:	00250c00 	eoreq	r0, r5, r0, lsl #24
    102c:	00180000 	andseq	r0, r8, r0
    1030:	00065607 	andeq	r5, r6, r7, lsl #12
    1034:	38040600 	stmdacc	r4, {r9, sl}
    1038:	1f000008 	svcne	0x00000008
    103c:	0000084e 	andeq	r0, r0, lr, asr #16
    1040:	00043417 	andeq	r3, r4, r7, lsl r4
    1044:	04060000 	streq	r0, [r6], #-0
    1048:	00000843 	andeq	r0, r0, r3, asr #16
    104c:	01870406 	orreq	r0, r7, r6, lsl #8
    1050:	651f0000 	ldrvs	r0, [pc, #-0]	; 1058 <_start-0x6fa8>
    1054:	17000008 	strne	r0, [r0, -r8]
    1058:	0000002c 	andeq	r0, r0, ip, lsr #32
    105c:	6b040600 	blvs	102864 <__bss_end+0xecd2c>
    1060:	06000008 	streq	r0, [r0], -r8
    1064:	00085a04 	andeq	r5, r8, r4, lsl #20
    1068:	05ff0b00 	ldrbeq	r0, [pc, #2816]!	; 1b70 <_start-0x6490>
    106c:	08810000 	stmeq	r1, {}	; <UNPREDICTABLE>
    1070:	250c0000 	strcs	r0, [ip, #-0]
    1074:	02000000 	andeq	r0, r0, #0
    1078:	09dd2000 	ldmibeq	sp, {sp}^
    107c:	2e050000 	cdpcs	0, 0, cr0, cr5, cr0, {0}
    1080:	00043403 	andeq	r3, r4, r3, lsl #8
    1084:	09d62000 	ldmibeq	r6, {sp}^
    1088:	2f050000 	svccs	0x00050000
    108c:	00043a03 	andeq	r3, r4, r3, lsl #20
    1090:	085e2100 	ldmdaeq	lr, {r8, sp}^
    1094:	63060000 	movwvs	r0, #24576	; 0x6000
    1098:	00000117 	andeq	r0, r0, r7, lsl r1
    109c:	00001c05 	andeq	r1, r0, r5, lsl #24
    10a0:	64610700 	strbtvs	r0, [r1], #-1792	; 0xfffff900
    10a4:	11000000 	mrsne	r0, (UNDEF: 0)
    10a8:	00000344 	andeq	r0, r0, r4, asr #6
    10ac:	f8690814 			; <UNDEFINED> instruction: 0xf8690814
    10b0:	0e000008 	cdpeq	0, 0, cr0, cr0, cr8, {0}
    10b4:	000002f7 	strdeq	r0, [r0], -r7
    10b8:	08a46b08 	stmiaeq	r4!, {r3, r8, r9, fp, sp, lr}
    10bc:	0e000000 	cdpeq	0, 0, cr0, cr0, cr0, {0}
    10c0:	000004a9 	andeq	r0, r0, r9, lsr #9
    10c4:	08fd6c08 	ldmeq	sp!, {r3, sl, fp, sp, lr}^
    10c8:	0e040000 	cdpeq	0, 0, cr0, cr4, cr0, {0}
    10cc:	000003c0 	andeq	r0, r0, r0, asr #7
    10d0:	08fd6d08 	ldmeq	sp!, {r3, r8, sl, fp, sp, lr}^
    10d4:	0e080000 	cdpeq	0, 0, cr0, cr8, cr0, {0}
    10d8:	00000319 	andeq	r0, r0, r9, lsl r3
    10dc:	01156e08 	tsteq	r5, r8, lsl #28
    10e0:	0e0c0000 	cdpeq	0, 0, cr0, cr12, cr0, {0}
    10e4:	000002cf 	andeq	r0, r0, pc, asr #5
    10e8:	01156f08 	tsteq	r5, r8, lsl #30
    10ec:	00100000 	andseq	r0, r0, r0
    10f0:	0008af04 	andeq	sl, r8, r4, lsl #30
    10f4:	f8040600 			; <UNDEFINED> instruction: 0xf8040600
    10f8:	05000008 	streq	r0, [r0, #-8]
    10fc:	000004db 	ldrdeq	r0, [r0], -fp
    1100:	08af7108 	stmiaeq	pc!, {r3, r8, ip, sp, lr}	; <UNPREDICTABLE>
    1104:	03040000 	movweq	r0, #16384	; 0x4000
    1108:	11000009 	tstne	r0, r9
    110c:	00000544 	andeq	r0, r0, r4, asr #10
    1110:	4473080c 	ldrbtmi	r0, [r3], #-2060	; 0xfffff7f4
    1114:	0e000009 	cdpeq	0, 0, cr0, cr0, cr9, {0}
    1118:	000002f7 	strdeq	r0, [r0], -r7
    111c:	08a47508 	stmiaeq	r4!, {r3, r8, sl, ip, sp, lr}
    1120:	0e000000 	cdpeq	0, 0, cr0, cr0, cr0, {0}
    1124:	000004a9 	andeq	r0, r0, r9, lsr #9
    1128:	08fd7608 	ldmeq	sp!, {r3, r9, sl, ip, sp, lr}^
    112c:	0e040000 	cdpeq	0, 0, cr0, cr4, cr0, {0}
    1130:	000003c0 	andeq	r0, r0, r0, asr #7
    1134:	08fd7708 	ldmeq	sp!, {r3, r8, r9, sl, ip, sp, lr}^
    1138:	00080000 	andeq	r0, r8, r0
    113c:	00043005 	andeq	r3, r4, r5
    1140:	13790800 	cmnne	r9, #0, 16
    1144:	04000009 	streq	r0, [r0], #-9
    1148:	00000944 	andeq	r0, r0, r4, asr #18
    114c:	00055411 	andeq	r5, r5, r1, lsl r4
    1150:	7e081400 	cfcpysvc	mvf1, mvf8
    1154:	00000985 	andeq	r0, r0, r5, lsl #19
    1158:	00044f0e 	andeq	r4, r4, lr, lsl #30
    115c:	6b800800 	blvs	fe003164 <_estack+0xf5ff3164>
    1160:	00000000 	andeq	r0, r0, r0
    1164:	0002ef0e 	andeq	lr, r2, lr, lsl #30
    1168:	85810800 	strhi	r0, [r1, #2048]	; 0x800
    116c:	04000009 	streq	r0, [r0], #-9
    1170:	0003100e 	andeq	r1, r3, lr
    1174:	4f820800 	svcmi	0x00820800
    1178:	08000009 	stmdaeq	r0, {r0, r3}
    117c:	0e040600 	cfmadd32eq	mvax0, mvfx0, mvfx4, mvfx0
    1180:	05000009 	streq	r0, [r0, #-9]
    1184:	00000986 	andeq	r0, r0, r6, lsl #19
    1188:	09548308 	ldmdbeq	r4, {r3, r8, r9, pc}^
    118c:	12220000 	eorne	r0, r2, #0
    1190:	01000008 	tsteq	r0, r8
    1194:	010f58b7 			; <UNDEFINED> instruction: 0x010f58b7
    1198:	00009800 	andeq	r9, r0, r0, lsl #16
    119c:	c89c0100 	ldmgt	ip, {r8}
    11a0:	23000009 	movwcs	r0, #9
    11a4:	00000837 	andeq	r0, r0, r7, lsr r8
    11a8:	09c8b701 	stmibeq	r8, {r0, r8, r9, sl, ip, sp, pc}^
    11ac:	91020000 	mrsls	r0, (UNDEF: 2)
    11b0:	0985246c 	stmibeq	r5, {r2, r3, r5, r6, sl, sp}
    11b4:	b9010000 	stmdblt	r1, {}	; <UNPREDICTABLE>
    11b8:	000009ce 	andeq	r0, r0, lr, asr #19
    11bc:	00749102 	rsbseq	r9, r4, r2, lsl #2
    11c0:	09030406 	stmdbeq	r3, {r1, r2, sl}
    11c4:	04060000 	streq	r0, [r6], #-0
    11c8:	0000098b 	andeq	r0, r0, fp, lsl #19
    11cc:	00097122 	andeq	r7, r9, r2, lsr #2
    11d0:	807e0100 	rsbshi	r0, lr, r0, lsl #2
    11d4:	d800010e 	stmdale	r0, {r1, r2, r3, r8}
    11d8:	01000000 	mrseq	r0, (UNDEF: 0)
    11dc:	000a229c 	muleq	sl, ip, r2
    11e0:	09852300 	stmibeq	r5, {r8, r9, sp}
    11e4:	7e010000 	cdpvc	0, 0, cr0, cr1, cr0, {0}
    11e8:	000009ce 	andeq	r0, r0, lr, asr #19
    11ec:	236c9102 	cmncs	ip, #-2147483648	; 0x80000000
    11f0:	00000661 	andeq	r0, r0, r1, ror #12
    11f4:	09c87e01 	stmibeq	r8, {r0, r9, sl, fp, ip, sp, lr}^
    11f8:	91020000 	mrsls	r0, (UNDEF: 2)
    11fc:	09b62468 	ldmibeq	r6!, {r3, r5, r6, sl, sp}
    1200:	80010000 	andhi	r0, r1, r0
    1204:	00000985 	andeq	r0, r0, r5, lsl #19
    1208:	24749102 	ldrbtcs	r9, [r4], #-258	; 0xfffffefe
    120c:	00000a38 	andeq	r0, r0, r8, lsr sl
    1210:	08a48101 	stmiaeq	r4!, {r0, r8, pc}
    1214:	91020000 	mrsls	r0, (UNDEF: 2)
    1218:	f6220070 			; <UNDEFINED> instruction: 0xf6220070
    121c:	01000006 	tsteq	r0, r6
    1220:	010de867 	tsteq	sp, r7, ror #16
    1224:	00009800 	andeq	r9, r0, r0, lsl #16
    1228:	629c0100 	addsvs	r0, ip, #0, 2
    122c:	2300000a 	movwcs	r0, #10
    1230:	00000985 	andeq	r0, r0, r5, lsl #19
    1234:	09ce6701 	stmibeq	lr, {r0, r8, r9, sl, sp, lr}^
    1238:	91020000 	mrsls	r0, (UNDEF: 2)
    123c:	0661236c 	strbteq	r2, [r1], -ip, ror #6
    1240:	67010000 	strvs	r0, [r1, -r0]
    1244:	000009c8 	andeq	r0, r0, r8, asr #19
    1248:	24689102 	strbtcs	r9, [r8], #-258	; 0xfffffefe
    124c:	000002ef 	andeq	r0, r0, pc, ror #5
    1250:	09856901 	stmibeq	r5, {r0, r8, fp, sp, lr}
    1254:	91020000 	mrsls	r0, (UNDEF: 2)
    1258:	31220074 			; <UNDEFINED> instruction: 0x31220074
    125c:	01000007 	tsteq	r0, r7
    1260:	010dbc60 	tsteq	sp, r0, ror #24
    1264:	00002c00 	andeq	r2, r0, r0, lsl #24
    1268:	869c0100 	ldrhi	r0, [ip], r0, lsl #2
    126c:	2300000a 	movwcs	r0, #10
    1270:	000006ef 	andeq	r0, r0, pc, ror #13
    1274:	09c86001 	stmibeq	r8, {r0, sp, lr}^
    1278:	91020000 	mrsls	r0, (UNDEF: 2)
    127c:	f6250074 			; <UNDEFINED> instruction: 0xf6250074
    1280:	01000009 	tsteq	r0, r9
    1284:	010d544c 	tsteq	sp, ip, asr #8
    1288:	00006800 	andeq	r6, r0, r0, lsl #16
    128c:	239c0100 	orrscs	r0, ip, #0, 2
    1290:	00000985 	andeq	r0, r0, r5, lsl #19
    1294:	09ce4c01 	stmibeq	lr, {r0, sl, fp, lr}^
    1298:	91020000 	mrsls	r0, (UNDEF: 2)
    129c:	40000074 	andmi	r0, r0, r4, ror r0
    12a0:	0400000f 	streq	r0, [r0], #-15
    12a4:	00056300 	andeq	r6, r5, r0, lsl #6
    12a8:	9a010400 	bls	422b0 <__bss_end+0x2c778>
    12ac:	0c000000 	stceq	0, cr0, [r0], {-0}
    12b0:	00000c8b 	andeq	r0, r0, fp, lsl #25
    12b4:	0000000c 	andeq	r0, r0, ip
    12b8:	00010ff0 	strdeq	r0, [r1], -r0	; <UNPREDICTABLE>
    12bc:	00000bb0 			; <UNDEFINED> instruction: 0x00000bb0
    12c0:	00000574 	andeq	r0, r0, r4, ror r5
    12c4:	000af802 	andeq	pc, sl, r2, lsl #16
    12c8:	30d80200 	sbcscc	r0, r8, r0, lsl #4
    12cc:	03000000 	movweq	r0, #0
    12d0:	06400704 	strbeq	r0, [r0], -r4, lsl #14
    12d4:	04040000 	streq	r0, [r4], #-0
    12d8:	746e6905 	strbtvc	r6, [lr], #-2309	; 0xfffff6fb
    12dc:	05080300 	streq	r0, [r8, #-768]	; 0xfffffd00
    12e0:	0000011f 	andeq	r0, r0, pc, lsl r1
    12e4:	4d040803 	stcmi	8, cr0, [r4, #-12]
    12e8:	03000001 	movweq	r0, #1
    12ec:	08940601 	ldmeq	r4, {r0, r9, sl}
    12f0:	01030000 	mrseq	r0, (UNDEF: 3)
    12f4:	00089208 	andeq	r9, r8, r8, lsl #4
    12f8:	05020300 	streq	r0, [r2, #-768]	; 0xfffffd00
    12fc:	000008ae 	andeq	r0, r0, lr, lsr #17
    1300:	69070203 	stmdbvs	r7, {r0, r1, r9}
    1304:	03000000 	movweq	r0, #0
    1308:	01240504 			; <UNDEFINED> instruction: 0x01240504
    130c:	68050000 	stmdavs	r5, {}	; <UNPREDICTABLE>
    1310:	03000000 	movweq	r0, #0
    1314:	063b0704 	ldrteq	r0, [fp], -r4, lsl #14
    1318:	74050000 	strvc	r0, [r5], #-0
    131c:	03000000 	movweq	r0, #0
    1320:	06360708 	ldrteq	r0, [r6], -r8, lsl #14
    1324:	03020000 	movweq	r0, #8192	; 0x2000
    1328:	03000008 	movweq	r0, #8
    132c:	00009222 	andeq	r9, r0, r2, lsr #4
    1330:	98040600 	stmdals	r4, {r9, sl}
    1334:	07000000 	streq	r0, [r0, -r0]
    1338:	0000095c 	andeq	r0, r0, ip, asr r9
    133c:	00087302 	andeq	r7, r8, r2, lsl #6
    1340:	682c0400 	stmdavs	ip!, {sl}
    1344:	02000000 	andeq	r0, r0, #0
    1348:	0000097d 	andeq	r0, r0, sp, ror r9
    134c:	00687204 	rsbeq	r7, r8, r4, lsl #4
    1350:	0b080000 	bleq	201358 <__bss_end+0x1eb820>
    1354:	02000008 	andeq	r0, r0, #8
    1358:	00300165 	eorseq	r0, r0, r5, ror #2
    135c:	04090000 	streq	r0, [r9], #-0
    1360:	00dea604 	sbcseq	sl, lr, r4, lsl #12
    1364:	fd0a0000 	stc2	0, cr0, [sl, #-0]
    1368:	04000007 	streq	r0, [r0], #-7
    136c:	0000b3a8 	andeq	fp, r0, r8, lsr #7
    1370:	07880a00 	streq	r0, [r8, r0, lsl #20]
    1374:	a9040000 	stmdbge	r4, {}	; <UNPREDICTABLE>
    1378:	000000de 	ldrdeq	r0, [r0], -lr
    137c:	00530b00 	subseq	r0, r3, r0, lsl #22
    1380:	00ee0000 	rsceq	r0, lr, r0
    1384:	300c0000 	andcc	r0, ip, r0
    1388:	03000000 	movweq	r0, #0
    138c:	04080d00 	streq	r0, [r8], #-3328	; 0xfffff300
    1390:	00010fa3 	andeq	r0, r1, r3, lsr #31
    1394:	09540e00 	ldmdbeq	r4, {r9, sl, fp}^
    1398:	a5040000 	strge	r0, [r4, #-0]
    139c:	00000037 	andeq	r0, r0, r7, lsr r0
    13a0:	09630e00 	stmdbeq	r3!, {r9, sl, fp}^
    13a4:	aa040000 	bge	1013ac <__bss_end+0xeb874>
    13a8:	000000bf 	strheq	r0, [r0], -pc	; <UNPREDICTABLE>
    13ac:	d6020004 	strle	r0, [r2], -r4
    13b0:	04000008 	streq	r0, [r0], #-8
    13b4:	0000eeab 	andeq	lr, r0, fp, lsr #29
    13b8:	074b0200 	strbeq	r0, [fp, -r0, lsl #4]
    13bc:	af040000 	svcge	0x00040000
    13c0:	00000087 	andeq	r0, r0, r7, lsl #1
    13c4:	2510040f 	ldrcs	r0, [r0, #-1039]	; 0xfffffbf1
    13c8:	06000001 	streq	r0, [r0], -r1
    13cc:	00013204 	andeq	r3, r1, r4, lsl #4
    13d0:	08010300 	stmdaeq	r1, {r8, r9}
    13d4:	0000089b 	muleq	r0, fp, r8
    13d8:	00013210 	andeq	r3, r1, r0, lsl r2
    13dc:	09c10200 	stmibeq	r1, {r9}^
    13e0:	16050000 	strne	r0, [r5], -r0
    13e4:	00000074 	andeq	r0, r0, r4, ror r0
    13e8:	00075c11 	andeq	r5, r7, r1, lsl ip
    13ec:	2f051800 	svccs	0x00051800
    13f0:	0000019c 	muleq	r0, ip, r1
    13f4:	0008f70e 	andeq	pc, r8, lr, lsl #14
    13f8:	9c310500 	cfldr32ls	mvfx0, [r1], #-0
    13fc:	00000001 	andeq	r0, r0, r1
    1400:	006b5f12 	rsbeq	r5, fp, r2, lsl pc
    1404:	00373205 	eorseq	r3, r7, r5, lsl #4
    1408:	0e040000 	cdpeq	0, 0, cr0, cr4, cr0, {0}
    140c:	0000093f 	andeq	r0, r0, pc, lsr r9
    1410:	00373205 	eorseq	r3, r7, r5, lsl #4
    1414:	0e080000 	cdpeq	0, 0, cr0, cr8, cr0, {0}
    1418:	00000745 	andeq	r0, r0, r5, asr #14
    141c:	00373205 	eorseq	r3, r7, r5, lsl #4
    1420:	0e0c0000 	cdpeq	0, 0, cr0, cr12, cr0, {0}
    1424:	00000a06 	andeq	r0, r0, r6, lsl #20
    1428:	00373205 	eorseq	r3, r7, r5, lsl #4
    142c:	12100000 	andsne	r0, r0, #0
    1430:	0500785f 	streq	r7, [r0, #-2143]	; 0xfffff7a1
    1434:	0001a233 	andeq	sl, r1, r3, lsr r2
    1438:	06001400 	streq	r1, [r0], -r0, lsl #8
    143c:	00014904 	andeq	r4, r1, r4, lsl #18
    1440:	013e0b00 	teqeq	lr, r0, lsl #22
    1444:	01b20000 			; <UNDEFINED> instruction: 0x01b20000
    1448:	300c0000 	andcc	r0, ip, r0
    144c:	00000000 	andeq	r0, r0, r0
    1450:	07831100 	streq	r1, [r3, r0, lsl #2]
    1454:	05240000 	streq	r0, [r4, #-0]!
    1458:	00022b37 	andeq	r2, r2, r7, lsr fp
    145c:	067e0e00 	ldrbteq	r0, [lr], -r0, lsl #28
    1460:	39050000 	stmdbcc	r5, {}	; <UNPREDICTABLE>
    1464:	00000037 	andeq	r0, r0, r7, lsr r0
    1468:	098c0e00 	stmibeq	ip, {r9, sl, fp}
    146c:	3a050000 	bcc	141474 <__bss_end+0x12b93c>
    1470:	00000037 	andeq	r0, r0, r7, lsr r0
    1474:	06930e04 	ldreq	r0, [r3], r4, lsl #28
    1478:	3b050000 	blcc	141480 <__bss_end+0x12b948>
    147c:	00000037 	andeq	r0, r0, r7, lsr r0
    1480:	0a910e08 	beq	fe444ca8 <_estack+0xf6434ca8>
    1484:	3c050000 	stccc	0, cr0, [r5], {-0}
    1488:	00000037 	andeq	r0, r0, r7, lsr r0
    148c:	084d0e0c 	stmdaeq	sp, {r2, r3, r9, sl, fp}^
    1490:	3d050000 	stccc	0, cr0, [r5, #-0]
    1494:	00000037 	andeq	r0, r0, r7, lsr r0
    1498:	082d0e10 	stmdaeq	sp!, {r4, r9, sl, fp}
    149c:	3e050000 	cdpcc	0, 0, cr0, cr5, cr0, {0}
    14a0:	00000037 	andeq	r0, r0, r7, lsr r0
    14a4:	0a0b0e14 	beq	2c4cfc <__bss_end+0x2af1c4>
    14a8:	3f050000 	svccc	0x00050000
    14ac:	00000037 	andeq	r0, r0, r7, lsr r0
    14b0:	08b80e18 	ldmeq	r8!, {r3, r4, r9, sl, fp}
    14b4:	40050000 	andmi	r0, r5, r0
    14b8:	00000037 	andeq	r0, r0, r7, lsr r0
    14bc:	0a580e1c 	beq	1604d34 <__bss_end+0x15ef1fc>
    14c0:	41050000 	mrsmi	r0, (UNDEF: 5)
    14c4:	00000037 	andeq	r0, r0, r7, lsr r0
    14c8:	a2130020 	andsge	r0, r3, #32
    14cc:	08000006 	stmdaeq	r0, {r1, r2}
    14d0:	6b4a0501 	blvs	12828dc <__bss_end+0x126cda4>
    14d4:	0e000002 	cdpeq	0, 0, cr0, cr0, cr2, {0}
    14d8:	00000724 	andeq	r0, r0, r4, lsr #14
    14dc:	026b4b05 	rsbeq	r4, fp, #5120	; 0x1400
    14e0:	0e000000 	cdpeq	0, 0, cr0, cr0, cr0, {0}
    14e4:	000005eb 	andeq	r0, r0, fp, ror #11
    14e8:	026b4c05 	rsbeq	r4, fp, #1280	; 0x500
    14ec:	14800000 	strne	r0, [r0], #0
    14f0:	000009a8 	andeq	r0, r0, r8, lsr #19
    14f4:	013e4e05 	teqeq	lr, r5, lsl #28
    14f8:	01000000 	mrseq	r0, (UNDEF: 0)
    14fc:	0006c714 	andeq	ip, r6, r4, lsl r7
    1500:	3e510500 	cdpcc	5, 5, cr0, cr1, cr0, {0}
    1504:	04000001 	streq	r0, [r0], #-1
    1508:	250b0001 	strcs	r0, [fp, #-1]
    150c:	7b000001 	blvc	1518 <_start-0x6ae8>
    1510:	0c000002 	stceq	0, cr0, [r0], {2}
    1514:	00000030 	andeq	r0, r0, r0, lsr r0
    1518:	5613001f 			; <UNDEFINED> instruction: 0x5613001f
    151c:	90000008 	andls	r0, r0, r8
    1520:	b95d0501 	ldmdblt	sp, {r0, r8, sl}^
    1524:	0e000002 	cdpeq	0, 0, cr0, cr0, cr2, {0}
    1528:	000008f7 	strdeq	r0, [r0], -r7
    152c:	02b95e05 	adcseq	r5, r9, #5, 28	; 0x50
    1530:	0e000000 	cdpeq	0, 0, cr0, cr0, cr0, {0}
    1534:	0000090f 	andeq	r0, r0, pc, lsl #18
    1538:	00375f05 	eorseq	r5, r7, r5, lsl #30
    153c:	0e040000 	cdpeq	0, 0, cr0, cr4, cr0, {0}
    1540:	0000072c 	andeq	r0, r0, ip, lsr #14
    1544:	02bf6105 	adcseq	r6, pc, #1073741825	; 0x40000001
    1548:	0e080000 	cdpeq	0, 0, cr0, cr8, cr0, {0}
    154c:	000006a2 	andeq	r0, r0, r2, lsr #13
    1550:	022b6205 	eoreq	r6, fp, #1342177280	; 0x50000000
    1554:	00880000 	addeq	r0, r8, r0
    1558:	027b0406 	rsbseq	r0, fp, #100663296	; 0x6000000
    155c:	cf0b0000 	svcgt	0x000b0000
    1560:	cf000002 	svcgt	0x00000002
    1564:	0c000002 	stceq	0, cr0, [r0], {2}
    1568:	00000030 	andeq	r0, r0, r0, lsr r0
    156c:	0406001f 	streq	r0, [r6], #-31	; 0xffffffe1
    1570:	000002d5 	ldrdeq	r0, [r0], -r5
    1574:	08c21115 	stmiaeq	r2, {r0, r2, r4, r8, ip}^
    1578:	05080000 	streq	r0, [r8, #-0]
    157c:	0002fb75 	andeq	pc, r2, r5, ror fp	; <UNPREDICTABLE>
    1580:	068d0e00 	streq	r0, [sp], r0, lsl #28
    1584:	76050000 	strvc	r0, [r5], -r0
    1588:	000002fb 	strdeq	r0, [r0], -fp
    158c:	05f70e00 	ldrbeq	r0, [r7, #3584]!	; 0xe00
    1590:	77050000 	strvc	r0, [r5, -r0]
    1594:	00000037 	andeq	r0, r0, r7, lsr r0
    1598:	04060004 	streq	r0, [r6], #-4
    159c:	00000053 	andeq	r0, r0, r3, asr r0
    15a0:	0008e111 	andeq	lr, r8, r1, lsl r1
    15a4:	b5056800 	strlt	r6, [r5, #-2048]	; 0xfffff800
    15a8:	0000042b 	andeq	r0, r0, fp, lsr #8
    15ac:	00705f12 	rsbseq	r5, r0, r2, lsl pc
    15b0:	02fbb605 	rscseq	fp, fp, #5242880	; 0x500000
    15b4:	12000000 	andne	r0, r0, #0
    15b8:	0500725f 	streq	r7, [r0, #-607]	; 0xfffffda1
    15bc:	000037b7 			; <UNDEFINED> instruction: 0x000037b7
    15c0:	5f120400 	svcpl	0x00120400
    15c4:	b8050077 	stmdalt	r5, {r0, r1, r2, r4, r5, r6}
    15c8:	00000037 	andeq	r0, r0, r7, lsr r0
    15cc:	06c00e08 	strbeq	r0, [r0], r8, lsl #28
    15d0:	b9050000 	stmdblt	r5, {}	; <UNPREDICTABLE>
    15d4:	0000005a 	andeq	r0, r0, sl, asr r0
    15d8:	079f0e0c 	ldreq	r0, [pc, ip, lsl #28]
    15dc:	ba050000 	blt	1415e4 <__bss_end+0x12baac>
    15e0:	0000005a 	andeq	r0, r0, sl, asr r0
    15e4:	625f120e 	subsvs	r1, pc, #-536870912	; 0xe0000000
    15e8:	bb050066 	bllt	141788 <__bss_end+0x12bc50>
    15ec:	000002d6 	ldrdeq	r0, [r0], -r6
    15f0:	064d0e10 			; <UNDEFINED> instruction: 0x064d0e10
    15f4:	bc050000 	stclt	0, cr0, [r5], {-0}
    15f8:	00000037 	andeq	r0, r0, r7, lsr r0
    15fc:	06b00e18 	ssateq	r0, #17, r8, lsl #28
    1600:	c3050000 	movwgt	r0, #20480	; 0x5000
    1604:	00000125 	andeq	r0, r0, r5, lsr #2
    1608:	07730e1c 			; <UNDEFINED> instruction: 0x07730e1c
    160c:	c5050000 	strgt	r0, [r5, #-0]
    1610:	00000586 	andeq	r0, r0, r6, lsl #11
    1614:	08260e20 	stmdaeq	r6!, {r5, r9, sl, fp}
    1618:	c7050000 	strgt	r0, [r5, -r0]
    161c:	000005b0 			; <UNDEFINED> instruction: 0x000005b0
    1620:	096b0e24 	stmdbeq	fp!, {r2, r5, r9, sl, fp}^
    1624:	ca050000 	bgt	14162c <__bss_end+0x12baf4>
    1628:	000005d4 	ldrdeq	r0, [r0], -r4
    162c:	0a720e28 	beq	1c84ed4 <__bss_end+0x1c6f39c>
    1630:	cb050000 	blgt	141638 <__bss_end+0x12bb00>
    1634:	000005ee 	andeq	r0, r0, lr, ror #11
    1638:	755f122c 	ldrbvc	r1, [pc, #-556]	; 1414 <_start-0x6bec>
    163c:	ce050062 	cdpgt	0, 0, cr0, cr5, cr2, {3}
    1640:	000002d6 	ldrdeq	r0, [r0], -r6
    1644:	755f1230 	ldrbvc	r1, [pc, #-560]	; 141c <_start-0x6be4>
    1648:	cf050070 	svcgt	0x00050070
    164c:	000002fb 	strdeq	r0, [r0], -fp
    1650:	755f1238 	ldrbvc	r1, [pc, #-568]	; 1420 <_start-0x6be0>
    1654:	d0050072 	andle	r0, r5, r2, ror r0
    1658:	00000037 	andeq	r0, r0, r7, lsr r0
    165c:	06870e3c 			; <UNDEFINED> instruction: 0x06870e3c
    1660:	d3050000 	movwle	r0, #20480	; 0x5000
    1664:	000005f4 	strdeq	r0, [r0], -r4
    1668:	0a4a0e40 	beq	1284f70 <__bss_end+0x126f438>
    166c:	d4050000 	strle	r0, [r5], #-0
    1670:	00000604 	andeq	r0, r0, r4, lsl #12
    1674:	6c5f1243 	lfmvs	f1, 2, [pc], {67}	; 0x43
    1678:	d7050062 	strle	r0, [r5, -r2, rrx]
    167c:	000002d6 	ldrdeq	r0, [r0], -r6
    1680:	06d60e44 	ldrbeq	r0, [r6], r4, asr #28
    1684:	da050000 	ble	14168c <__bss_end+0x12bb54>
    1688:	00000037 	andeq	r0, r0, r7, lsr r0
    168c:	06e70e4c 	strbteq	r0, [r7], ip, asr #28
    1690:	db050000 	blle	141698 <__bss_end+0x12bb60>
    1694:	0000009d 	muleq	r0, sp, r0
    1698:	06100e50 			; <UNDEFINED> instruction: 0x06100e50
    169c:	de050000 	cdple	0, 0, cr0, cr5, cr0, {0}
    16a0:	00000449 	andeq	r0, r0, r9, asr #8
    16a4:	095d0e54 	ldmdbeq	sp, {r2, r4, r6, r9, sl, fp}^
    16a8:	e2050000 	and	r0, r5, #0
    16ac:	0000011a 	andeq	r0, r0, sl, lsl r1
    16b0:	08e90e58 	stmiaeq	r9!, {r3, r4, r6, r9, sl, fp}^
    16b4:	e4050000 	str	r0, [r5], #-0
    16b8:	0000010f 	andeq	r0, r0, pc, lsl #2
    16bc:	081e0e5c 	ldmdaeq	lr, {r2, r3, r4, r6, r9, sl, fp}
    16c0:	e5050000 	str	r0, [r5, #-0]
    16c4:	00000037 	andeq	r0, r0, r7, lsr r0
    16c8:	37160064 	ldrcc	r0, [r6, -r4, rrx]
    16cc:	49000000 	stmdbmi	r0, {}	; <UNPREDICTABLE>
    16d0:	17000004 	strne	r0, [r0, -r4]
    16d4:	00000449 	andeq	r0, r0, r9, asr #8
    16d8:	00012517 	andeq	r2, r1, r7, lsl r5
    16dc:	012c1700 			; <UNDEFINED> instruction: 0x012c1700
    16e0:	37170000 	ldrcc	r0, [r7, -r0]
    16e4:	00000000 	andeq	r0, r0, r0
    16e8:	04540406 	ldrbeq	r0, [r4], #-1030	; 0xfffffbfa
    16ec:	49100000 	ldmdbmi	r0, {}	; <UNPREDICTABLE>
    16f0:	18000004 	stmdane	r0, {r2}
    16f4:	00000947 	andeq	r0, r0, r7, asr #18
    16f8:	60050428 	andvs	r0, r5, r8, lsr #8
    16fc:	00058602 	andeq	r8, r5, r2, lsl #12
    1700:	08a71900 	stmiaeq	r7!, {r8, fp, ip}
    1704:	62050000 	andvs	r0, r5, #0
    1708:	00003702 	andeq	r3, r0, r2, lsl #14
    170c:	cf190000 	svcgt	0x00190000
    1710:	05000006 	streq	r0, [r0, #-6]
    1714:	065b0267 	ldrbeq	r0, [fp], -r7, ror #4
    1718:	19040000 	stmdbne	r4, {}	; <UNPREDICTABLE>
    171c:	0000078f 	andeq	r0, r0, pc, lsl #15
    1720:	5b026705 	blpl	9b33c <__bss_end+0x85804>
    1724:	08000006 	stmdaeq	r0, {r1, r2}
    1728:	00075419 	andeq	r5, r7, r9, lsl r4
    172c:	02670500 	rsbeq	r0, r7, #0, 10
    1730:	0000065b 	andeq	r0, r0, fp, asr r6
    1734:	090a190c 	stmdbeq	sl, {r2, r3, r8, fp, ip}
    1738:	69050000 	stmdbvs	r5, {}	; <UNPREDICTABLE>
    173c:	00003702 	andeq	r3, r0, r2, lsl #14
    1740:	05191000 	ldreq	r1, [r9, #-0]
    1744:	05000006 	streq	r0, [r0, #-6]
    1748:	083d026a 	ldmdaeq	sp!, {r1, r3, r5, r6, r9}
    174c:	19140000 	ldmdbne	r4, {}	; <UNPREDICTABLE>
    1750:	00000926 	andeq	r0, r0, r6, lsr #18
    1754:	37026d05 	strcc	r6, [r2, -r5, lsl #26]
    1758:	30000000 	andcc	r0, r0, r0
    175c:	00091419 	andeq	r1, r9, r9, lsl r4
    1760:	026e0500 	rsbeq	r0, lr, #0, 10
    1764:	00000852 	andeq	r0, r0, r2, asr r8
    1768:	08681934 	stmdaeq	r8!, {r2, r4, r5, r8, fp, ip}^
    176c:	70050000 	andvc	r0, r5, r0
    1770:	00003702 	andeq	r3, r0, r2, lsl #14
    1774:	1c193800 	ldcne	8, cr3, [r9], {-0}
    1778:	05000009 	streq	r0, [r0, #-9]
    177c:	08630272 	stmdaeq	r3!, {r1, r4, r5, r6, r9}^
    1780:	193c0000 	ldmdbne	ip!, {}	; <UNPREDICTABLE>
    1784:	000007f5 	strdeq	r0, [r0], -r5
    1788:	9c027505 	cfstr32ls	mvfx7, [r2], {5}
    178c:	40000001 	andmi	r0, r0, r1
    1790:	00077919 	andeq	r7, r7, r9, lsl r9
    1794:	02760500 	rsbseq	r0, r6, #0, 10
    1798:	00000037 	andeq	r0, r0, r7, lsr r0
    179c:	0a8c1944 	beq	fe307cb4 <_estack+0xf62f7cb4>
    17a0:	77050000 	strvc	r0, [r5, -r0]
    17a4:	00019c02 	andeq	r9, r1, r2, lsl #24
    17a8:	7a194800 	bvc	6537b0 <__bss_end+0x63dc78>
    17ac:	05000008 	streq	r0, [r0, #-8]
    17b0:	08690278 	stmdaeq	r9!, {r3, r4, r5, r6, r9}^
    17b4:	194c0000 	stmdbne	ip, {}^	; <UNPREDICTABLE>
    17b8:	00000797 	muleq	r0, r7, r7
    17bc:	37027b05 	strcc	r7, [r2, -r5, lsl #22]
    17c0:	50000000 	andpl	r0, r0, r0
    17c4:	0006df19 	andeq	sp, r6, r9, lsl pc
    17c8:	027c0500 	rsbseq	r0, ip, #0, 10
    17cc:	0000012c 	andeq	r0, r0, ip, lsr #2
    17d0:	08a01954 	stmiaeq	r0!, {r2, r4, r6, r8, fp, ip}
    17d4:	9f050000 	svcls	0x00050000
    17d8:	00081b02 	andeq	r1, r8, r2, lsl #22
    17dc:	561a5800 	ldrpl	r5, [sl], -r0, lsl #16
    17e0:	05000008 	streq	r0, [r0, #-8]
    17e4:	02b902a3 	adcseq	r0, r9, #805306378	; 0x3000000a
    17e8:	01480000 	mrseq	r0, (UNDEF: 72)
    17ec:	0007ac1a 	andeq	sl, r7, sl, lsl ip
    17f0:	02a40500 	adceq	r0, r4, #0, 10
    17f4:	0000027b 	andeq	r0, r0, fp, ror r2
    17f8:	2e1a014c 	mufcsem	f0, f2, #4.0
    17fc:	0500000a 	streq	r0, [r0, #-10]
    1800:	087a02a8 	ldmdaeq	sl!, {r3, r5, r7, r9}^
    1804:	02dc0000 	sbcseq	r0, ip, #0
    1808:	0006b81a 	andeq	fp, r6, sl, lsl r8
    180c:	02ad0500 	adceq	r0, sp, #0, 10
    1810:	00000620 	andeq	r0, r0, r0, lsr #12
    1814:	9d1a02e0 	lfmls	f0, 4, [sl, #-896]	; 0xfffffc80
    1818:	05000006 	streq	r0, [r0, #-6]
    181c:	088602af 	stmeq	r6, {r0, r1, r2, r3, r5, r7, r9}
    1820:	02ec0000 	rsceq	r0, ip, #0
    1824:	2b040600 	blcs	10302c <__bss_end+0xed4f4>
    1828:	16000004 	strne	r0, [r0], -r4
    182c:	00000037 	andeq	r0, r0, r7, lsr r0
    1830:	000005aa 	andeq	r0, r0, sl, lsr #11
    1834:	00044917 	andeq	r4, r4, r7, lsl r9
    1838:	01251700 			; <UNDEFINED> instruction: 0x01251700
    183c:	aa170000 	bge	5c1844 <__bss_end+0x5abd0c>
    1840:	17000005 	strne	r0, [r0, -r5]
    1844:	00000037 	andeq	r0, r0, r7, lsr r0
    1848:	39040600 	stmdbcc	r4, {r9, sl}
    184c:	06000001 	streq	r0, [r0], -r1
    1850:	00058c04 	andeq	r8, r5, r4, lsl #24
    1854:	00a81600 	adceq	r1, r8, r0, lsl #12
    1858:	05d40000 	ldrbeq	r0, [r4]
    185c:	49170000 	ldmdbmi	r7, {}	; <UNPREDICTABLE>
    1860:	17000004 	strne	r0, [r0, -r4]
    1864:	00000125 	andeq	r0, r0, r5, lsr #2
    1868:	0000a817 	andeq	sl, r0, r7, lsl r8
    186c:	00371700 	eorseq	r1, r7, r0, lsl #14
    1870:	06000000 	streq	r0, [r0], -r0
    1874:	0005b604 	andeq	fp, r5, r4, lsl #12
    1878:	00371600 	eorseq	r1, r7, r0, lsl #12
    187c:	05ee0000 	strbeq	r0, [lr, #0]!
    1880:	49170000 	ldmdbmi	r7, {}	; <UNPREDICTABLE>
    1884:	17000004 	strne	r0, [r0, -r4]
    1888:	00000125 	andeq	r0, r0, r5, lsr #2
    188c:	da040600 	ble	103094 <__bss_end+0xed55c>
    1890:	0b000005 	bleq	18ac <_start-0x6754>
    1894:	00000053 	andeq	r0, r0, r3, asr r0
    1898:	00000604 	andeq	r0, r0, r4, lsl #12
    189c:	0000300c 	andeq	r3, r0, ip
    18a0:	0b000200 	bleq	20a8 <_start-0x5f58>
    18a4:	00000053 	andeq	r0, r0, r3, asr r0
    18a8:	00000614 	andeq	r0, r0, r4, lsl r6
    18ac:	0000300c 	andeq	r3, r0, ip
    18b0:	08000000 	stmdaeq	r0, {}	; <UNPREDICTABLE>
    18b4:	000008cf 	andeq	r0, r0, pc, asr #17
    18b8:	01011f05 	tsteq	r1, r5, lsl #30
    18bc:	1b000003 	blne	18d0 <_start-0x6730>
    18c0:	00000a15 	andeq	r0, r0, r5, lsl sl
    18c4:	0123050c 			; <UNDEFINED> instruction: 0x0123050c
    18c8:	00000655 	andeq	r0, r0, r5, asr r6
    18cc:	0008f719 	andeq	pc, r8, r9, lsl r7	; <UNPREDICTABLE>
    18d0:	01250500 			; <UNDEFINED> instruction: 0x01250500
    18d4:	00000655 	andeq	r0, r0, r5, asr r6
    18d8:	07a51900 	streq	r1, [r5, r0, lsl #18]!
    18dc:	26050000 	strcs	r0, [r5], -r0
    18e0:	00003701 	andeq	r3, r0, r1, lsl #14
    18e4:	c9190400 	ldmdbgt	r9, {sl}
    18e8:	05000008 	streq	r0, [r0, #-8]
    18ec:	065b0127 	ldrbeq	r0, [fp], -r7, lsr #2
    18f0:	00080000 	andeq	r0, r8, r0
    18f4:	06200406 	strteq	r0, [r0], -r6, lsl #8
    18f8:	04060000 	streq	r0, [r6], #-0
    18fc:	00000614 	andeq	r0, r0, r4, lsl r6
    1900:	0005fd1b 	andeq	pc, r5, fp, lsl sp	; <UNPREDICTABLE>
    1904:	3f050e00 	svccc	0x00050e00
    1908:	00069601 	andeq	r9, r6, r1, lsl #12
    190c:	094e1900 	stmdbeq	lr, {r8, fp, ip}^
    1910:	40050000 	andmi	r0, r5, r0
    1914:	00069601 	andeq	r9, r6, r1, lsl #12
    1918:	95190000 	ldrls	r0, [r9, #-0]
    191c:	05000009 	streq	r0, [r0, #-9]
    1920:	06960141 	ldreq	r0, [r6], r1, asr #2
    1924:	19060000 	stmdbne	r6, {}	; <UNPREDICTABLE>
    1928:	000009b1 			; <UNDEFINED> instruction: 0x000009b1
    192c:	61014205 	tstvs	r1, r5, lsl #4
    1930:	0c000000 	stceq	0, cr0, [r0], {-0}
    1934:	00610b00 	rsbeq	r0, r1, r0, lsl #22
    1938:	06a60000 	strteq	r0, [r6], r0
    193c:	300c0000 	andcc	r0, ip, r0
    1940:	02000000 	andeq	r0, r0, #0
    1944:	05d01c00 	ldrbeq	r1, [r0, #3072]	; 0xc00
    1948:	07a70280 	streq	r0, [r7, r0, lsl #5]!
    194c:	e9190000 	ldmdb	r9, {}	; <UNPREDICTABLE>
    1950:	05000009 	streq	r0, [r0, #-9]
    1954:	00300282 	eorseq	r0, r0, r2, lsl #5
    1958:	19000000 	stmdbne	r0, {}	; <UNPREDICTABLE>
    195c:	0000099b 	muleq	r0, fp, r9
    1960:	2c028305 	stccs	3, cr8, [r2], {5}
    1964:	04000001 	streq	r0, [r0], #-1
    1968:	0007e819 	andeq	lr, r7, r9, lsl r8
    196c:	02840500 	addeq	r0, r4, #0, 10
    1970:	000007a7 	andeq	r0, r0, r7, lsr #15
    1974:	0a631908 	beq	18c7d9c <__bss_end+0x18b2264>
    1978:	85050000 	strhi	r0, [r5, #-0]
    197c:	0001b202 	andeq	fp, r1, r2, lsl #4
    1980:	64192400 	ldrvs	r2, [r9], #-1024	; 0xfffffc00
    1984:	05000007 	streq	r0, [r0, #-7]
    1988:	00370286 	eorseq	r0, r7, r6, lsl #5
    198c:	19480000 	stmdbne	r8, {}^	; <UNPREDICTABLE>
    1990:	000008f2 	strdeq	r0, [r0], -r2
    1994:	80028705 	andhi	r8, r2, r5, lsl #14
    1998:	50000000 	andpl	r0, r0, r0
    199c:	000a7919 	andeq	r7, sl, r9, lsl r9
    19a0:	02880500 	addeq	r0, r8, #0, 10
    19a4:	00000661 	andeq	r0, r0, r1, ror #12
    19a8:	08fd1958 	ldmeq	sp!, {r3, r4, r6, r8, fp, ip}^
    19ac:	89050000 	stmdbhi	r5, {}	; <UNPREDICTABLE>
    19b0:	00010f02 	andeq	r0, r1, r2, lsl #30
    19b4:	7e196800 	cdpvc	8, 1, cr6, cr9, cr0, {0}
    19b8:	0500000a 	streq	r0, [r0, #-10]
    19bc:	010f028a 	smlabbeq	pc, sl, r2, r0	; <UNPREDICTABLE>
    19c0:	19700000 	ldmdbne	r0!, {}^	; <UNPREDICTABLE>
    19c4:	00000884 	andeq	r0, r0, r4, lsl #17
    19c8:	0f028b05 	svceq	0x00028b05
    19cc:	78000001 	stmdavc	r0, {r0}
    19d0:	000a2419 	andeq	r2, sl, r9, lsl r4
    19d4:	028c0500 	addeq	r0, ip, #0, 10
    19d8:	000007b7 			; <UNDEFINED> instruction: 0x000007b7
    19dc:	07dc1980 	ldrbeq	r1, [ip, r0, lsl #19]
    19e0:	8d050000 	stchi	0, cr0, [r5, #-0]
    19e4:	0007c702 	andeq	ip, r7, r2, lsl #14
    19e8:	c9198800 	ldmdbgt	r9, {fp, pc}
    19ec:	05000009 	streq	r0, [r0, #-9]
    19f0:	0037028e 	eorseq	r0, r7, lr, lsl #5
    19f4:	19a00000 	stmibne	r0!, {}	; <UNPREDICTABLE>
    19f8:	00000716 	andeq	r0, r0, r6, lsl r7
    19fc:	0f028f05 	svceq	0x00028f05
    1a00:	a4000001 	strge	r0, [r0], #-1
    1a04:	00066f19 	andeq	r6, r6, r9, lsl pc
    1a08:	02900500 	addseq	r0, r0, #0, 10
    1a0c:	0000010f 	andeq	r0, r0, pc, lsl #2
    1a10:	070519ac 	streq	r1, [r5, -ip, lsr #19]
    1a14:	91050000 	mrsls	r0, (UNDEF: 5)
    1a18:	00010f02 	andeq	r0, r1, r2, lsl #30
    1a1c:	1619b400 	ldrne	fp, [r9], -r0, lsl #8
    1a20:	05000006 	streq	r0, [r0, #-6]
    1a24:	010f0292 			; <UNDEFINED> instruction: 0x010f0292
    1a28:	19bc0000 	ldmibne	ip!, {}	; <UNPREDICTABLE>
    1a2c:	00000625 	andeq	r0, r0, r5, lsr #12
    1a30:	0f029305 	svceq	0x00029305
    1a34:	c4000001 	strgt	r0, [r0], #-1
    1a38:	0008a519 	andeq	sl, r8, r9, lsl r5
    1a3c:	02940500 	addseq	r0, r4, #0, 10
    1a40:	00000037 	andeq	r0, r0, r7, lsr r0
    1a44:	320b00cc 	andcc	r0, fp, #204	; 0xcc
    1a48:	b7000001 	strlt	r0, [r0, -r1]
    1a4c:	0c000007 	stceq	0, cr0, [r0], {7}
    1a50:	00000030 	andeq	r0, r0, r0, lsr r0
    1a54:	320b0019 	andcc	r0, fp, #25
    1a58:	c7000001 	strgt	r0, [r0, -r1]
    1a5c:	0c000007 	stceq	0, cr0, [r0], {7}
    1a60:	00000030 	andeq	r0, r0, r0, lsr r0
    1a64:	320b0007 	andcc	r0, fp, #7
    1a68:	d7000001 	strle	r0, [r0, -r1]
    1a6c:	0c000007 	stceq	0, cr0, [r0], {7}
    1a70:	00000030 	andeq	r0, r0, r0, lsr r0
    1a74:	f01c0017 			; <UNDEFINED> instruction: 0xf01c0017
    1a78:	fb029905 	blx	a7e96 <__bss_end+0x9235e>
    1a7c:	19000007 	stmdbne	r0, {r0, r1, r2}
    1a80:	00000846 	andeq	r0, r0, r6, asr #16
    1a84:	fb029c05 	blx	a8aa2 <__bss_end+0x92f6a>
    1a88:	00000007 	andeq	r0, r0, r7
    1a8c:	000a1b19 	andeq	r1, sl, r9, lsl fp
    1a90:	029d0500 	addseq	r0, sp, #0, 10
    1a94:	0000080b 	andeq	r0, r0, fp, lsl #16
    1a98:	fb0b0078 	blx	2c1c82 <__bss_end+0x2ac14a>
    1a9c:	0b000002 	bleq	1aac <_start-0x6554>
    1aa0:	0c000008 	stceq	0, cr0, [r0], {8}
    1aa4:	00000030 	andeq	r0, r0, r0, lsr r0
    1aa8:	300b001d 	andcc	r0, fp, sp, lsl r0
    1aac:	1b000000 	blne	1ab4 <_start-0x654c>
    1ab0:	0c000008 	stceq	0, cr0, [r0], {8}
    1ab4:	00000030 	andeq	r0, r0, r0, lsr r0
    1ab8:	f01d001d 			; <UNDEFINED> instruction: 0xf01d001d
    1abc:	3d027e05 	stccc	14, cr7, [r2, #-20]	; 0xffffffec
    1ac0:	1e000008 	cdpne	0, 0, cr0, cr0, cr8, {0}
    1ac4:	00000947 	andeq	r0, r0, r7, asr #18
    1ac8:	a6029505 	strge	r9, [r2], -r5, lsl #10
    1acc:	1e000006 	cdpne	0, 0, cr0, cr0, cr6, {0}
    1ad0:	00000a50 	andeq	r0, r0, r0, asr sl
    1ad4:	d7029e05 	strle	r9, [r2, -r5, lsl #28]
    1ad8:	00000007 	andeq	r0, r0, r7
    1adc:	0001320b 	andeq	r3, r1, fp, lsl #4
    1ae0:	00084d00 	andeq	r4, r8, r0, lsl #26
    1ae4:	00300c00 	eorseq	r0, r0, r0, lsl #24
    1ae8:	00180000 	andseq	r0, r8, r0
    1aec:	00065607 	andeq	r5, r6, r7, lsl #12
    1af0:	4d040600 	stcmi	6, cr0, [r4, #-0]
    1af4:	1f000008 	svcne	0x00000008
    1af8:	00000863 	andeq	r0, r0, r3, ror #16
    1afc:	00044917 	andeq	r4, r4, r7, lsl r9
    1b00:	04060000 	streq	r0, [r6], #-0
    1b04:	00000858 	andeq	r0, r0, r8, asr r8
    1b08:	019c0406 	orrseq	r0, ip, r6, lsl #8
    1b0c:	7a1f0000 	bvc	7c1b14 <__bss_end+0x7abfdc>
    1b10:	17000008 	strne	r0, [r0, -r8]
    1b14:	00000037 	andeq	r0, r0, r7, lsr r0
    1b18:	80040600 	andhi	r0, r4, r0, lsl #12
    1b1c:	06000008 	streq	r0, [r0], -r8
    1b20:	00086f04 	andeq	r6, r8, r4, lsl #30
    1b24:	06140b00 	ldreq	r0, [r4], -r0, lsl #22
    1b28:	08960000 	ldmeq	r6, {}	; <UNPREDICTABLE>
    1b2c:	300c0000 	andcc	r0, ip, r0
    1b30:	02000000 	andeq	r0, r0, #0
    1b34:	09dd2000 	ldmibeq	sp, {sp}^
    1b38:	2e050000 	cdpcs	0, 0, cr0, cr5, cr0, {0}
    1b3c:	00044903 	andeq	r4, r4, r3, lsl #18
    1b40:	09d62000 	ldmibeq	r6, {sp}^
    1b44:	2f050000 	svccs	0x00050000
    1b48:	00044f03 	andeq	r4, r4, r3, lsl #30
    1b4c:	b9040600 	stmdblt	r4, {r9, sl}
    1b50:	10000008 	andne	r0, r0, r8
    1b54:	000008ae 	andeq	r0, r0, lr, lsr #17
    1b58:	085e2221 	ldmdaeq	lr, {r0, r5, r9, sp}^
    1b5c:	63060000 	movwvs	r0, #24576	; 0x6000
    1b60:	0000012c 	andeq	r0, r0, ip, lsr #2
    1b64:	00001c02 	andeq	r1, r0, r2, lsl #24
    1b68:	74610700 	strbtvc	r0, [r1], #-1792	; 0xfffff900
    1b6c:	11000000 	mrsne	r0, (UNDEF: 0)
    1b70:	00000344 	andeq	r0, r0, r4, asr #6
    1b74:	19690814 	stmdbne	r9!, {r2, r4, fp}^
    1b78:	0e000009 	cdpeq	0, 0, cr0, cr0, cr9, {0}
    1b7c:	000002f7 	strdeq	r0, [r0], -r7
    1b80:	08c56b08 	stmiaeq	r5, {r3, r8, r9, fp, sp, lr}^
    1b84:	0e000000 	cdpeq	0, 0, cr0, cr0, cr0, {0}
    1b88:	000004a9 	andeq	r0, r0, r9, lsr #9
    1b8c:	091e6c08 	ldmdbeq	lr, {r3, sl, fp, sp, lr}
    1b90:	0e040000 	cdpeq	0, 0, cr0, cr4, cr0, {0}
    1b94:	000003c0 	andeq	r0, r0, r0, asr #7
    1b98:	091e6d08 	ldmdbeq	lr, {r3, r8, sl, fp, sp, lr}
    1b9c:	0e080000 	cdpeq	0, 0, cr0, cr8, cr0, {0}
    1ba0:	00000319 	andeq	r0, r0, r9, lsl r3
    1ba4:	01256e08 			; <UNDEFINED> instruction: 0x01256e08
    1ba8:	0e0c0000 	cdpeq	0, 0, cr0, cr12, cr0, {0}
    1bac:	000002cf 	andeq	r0, r0, pc, asr #5
    1bb0:	01256f08 			; <UNDEFINED> instruction: 0x01256f08
    1bb4:	00100000 	andseq	r0, r0, r0
    1bb8:	0008d005 	andeq	sp, r8, r5
    1bbc:	19040600 	stmdbne	r4, {r9, sl}
    1bc0:	02000009 	andeq	r0, r0, #9
    1bc4:	000004db 	ldrdeq	r0, [r0], -fp
    1bc8:	08d07108 	ldmeq	r0, {r3, r8, ip, sp, lr}^
    1bcc:	24050000 	strcs	r0, [r5], #-0
    1bd0:	11000009 	tstne	r0, r9
    1bd4:	00000544 	andeq	r0, r0, r4, asr #10
    1bd8:	6573080c 	ldrbvs	r0, [r3, #-2060]!	; 0xfffff7f4
    1bdc:	0e000009 	cdpeq	0, 0, cr0, cr0, cr9, {0}
    1be0:	000002f7 	strdeq	r0, [r0], -r7
    1be4:	08c57508 	stmiaeq	r5, {r3, r8, sl, ip, sp, lr}^
    1be8:	0e000000 	cdpeq	0, 0, cr0, cr0, cr0, {0}
    1bec:	000004a9 	andeq	r0, r0, r9, lsr #9
    1bf0:	091e7608 	ldmdbeq	lr, {r3, r9, sl, ip, sp, lr}
    1bf4:	0e040000 	cdpeq	0, 0, cr0, cr4, cr0, {0}
    1bf8:	000003c0 	andeq	r0, r0, r0, asr #7
    1bfc:	091e7708 	ldmdbeq	lr, {r3, r8, r9, sl, ip, sp, lr}
    1c00:	00080000 	andeq	r0, r8, r0
    1c04:	00043002 	andeq	r3, r4, r2
    1c08:	34790800 	ldrbtcc	r0, [r9], #-2048	; 0xfffff800
    1c0c:	05000009 	streq	r0, [r0, #-9]
    1c10:	00000965 	andeq	r0, r0, r5, ror #18
    1c14:	00055411 	andeq	r5, r5, r1, lsl r4
    1c18:	7e081400 	cfcpysvc	mvf1, mvf8
    1c1c:	000009a6 	andeq	r0, r0, r6, lsr #19
    1c20:	00044f0e 	andeq	r4, r4, lr, lsl #30
    1c24:	7b800800 	blvc	fe003c2c <_estack+0xf5ff3c2c>
    1c28:	00000000 	andeq	r0, r0, r0
    1c2c:	0002ef0e 	andeq	lr, r2, lr, lsl #30
    1c30:	a6810800 	strge	r0, [r1], r0, lsl #16
    1c34:	04000009 	streq	r0, [r0], #-9
    1c38:	0003100e 	andeq	r1, r3, lr
    1c3c:	70820800 	addvc	r0, r2, r0, lsl #16
    1c40:	08000009 	stmdaeq	r0, {r0, r3}
    1c44:	2f040600 	svccs	0x00040600
    1c48:	02000009 	andeq	r0, r0, #9
    1c4c:	00000986 	andeq	r0, r0, r6, lsl #19
    1c50:	09758308 	ldmdbeq	r5!, {r3, r8, r9, pc}^
    1c54:	58110000 	ldmdapl	r1, {}	; <UNPREDICTABLE>
    1c58:	0800000b 	stmdaeq	r0, {r0, r1, r3}
    1c5c:	09dc6809 	ldmibeq	ip, {r0, r3, fp, sp, lr}^
    1c60:	820e0000 	andhi	r0, lr, #0
    1c64:	0900000b 	stmdbeq	r0, {r0, r1, r3}
    1c68:	0000686a 	andeq	r6, r0, sl, ror #16
    1c6c:	b00e0000 	andlt	r0, lr, r0
    1c70:	0900000d 	stmdbeq	r0, {r0, r2, r3}
    1c74:	0008c56b 	andeq	ip, r8, fp, ror #10
    1c78:	02000400 	andeq	r0, r0, #0, 8
    1c7c:	00000be7 	andeq	r0, r0, r7, ror #23
    1c80:	09b76c09 	ldmibeq	r7!, {r0, r3, sl, fp, sp, lr}
    1c84:	d6110000 	ldrle	r0, [r1], -r0
    1c88:	4c00000c 	stcmi	0, cr0, [r0], {12}
    1c8c:	0a787901 	beq	1e20098 <__bss_end+0x1e0a560>
    1c90:	a80e0000 	stmdage	lr, {}	; <UNPREDICTABLE>
    1c94:	0100000b 	tsteq	r0, fp
    1c98:	000a787b 	andeq	r7, sl, fp, ror r8
    1c9c:	640e0000 	strvs	r0, [lr], #-0
    1ca0:	0100000d 	tsteq	r0, sp
    1ca4:	000a787c 	andeq	r7, sl, ip, ror r8
    1ca8:	9b0e0400 	blls	382cb0 <__bss_end+0x36d178>
    1cac:	0100000d 	tsteq	r0, sp
    1cb0:	000a787e 	andeq	r7, sl, lr, ror r8
    1cb4:	770e0800 	strvc	r0, [lr, -r0, lsl #16]
    1cb8:	0100000b 	tsteq	r0, fp
    1cbc:	000a787f 	andeq	r7, sl, pc, ror r8
    1cc0:	750e0c00 	strvc	r0, [lr, #-3072]	; 0xfffff400
    1cc4:	0100000d 	tsteq	r0, sp
    1cc8:	0009ac81 	andeq	sl, r9, r1, lsl #25
    1ccc:	2e0e1000 	cdpcs	0, 0, cr1, cr14, cr0, {0}
    1cd0:	0100000b 	tsteq	r0, fp
    1cd4:	0009ac82 	andeq	sl, r9, r2, lsl #25
    1cd8:	1a0e2400 	bne	38ace0 <__bss_end+0x3751a8>
    1cdc:	0100000d 	tsteq	r0, sp
    1ce0:	00007b84 	andeq	r7, r0, r4, lsl #23
    1ce4:	250e3800 	strcs	r3, [lr, #-2048]	; 0xfffff800
    1ce8:	0100000c 	tsteq	r0, ip
    1cec:	00007485 	andeq	r7, r0, r5, lsl #9
    1cf0:	a50e3c00 	strge	r3, [lr, #-3072]	; 0xfffff400
    1cf4:	0100000d 	tsteq	r0, sp
    1cf8:	00007486 	andeq	r7, r0, r6, lsl #9
    1cfc:	5c0e4000 	stcpl	0, cr4, [lr], {-0}
    1d00:	0100000d 	tsteq	r0, sp
    1d04:	00006f88 	andeq	r6, r0, r8, lsl #31
    1d08:	190e4400 	stmdbne	lr, {sl, lr}
    1d0c:	0100000b 	tsteq	r0, fp
    1d10:	00006f89 	andeq	r6, r0, r9, lsl #31
    1d14:	06004800 	streq	r4, [r0], -r0, lsl #16
    1d18:	00004c04 	andeq	r4, r0, r4, lsl #24
    1d1c:	0cc10200 	sfmeq	f0, 2, [r1], {0}
    1d20:	90010000 	andls	r0, r1, r0
    1d24:	000009e7 	andeq	r0, r0, r7, ror #19
    1d28:	000bf402 	andeq	pc, fp, r2, lsl #8
    1d2c:	99980100 	ldmibls	r8, {r8}
    1d30:	1000000a 	andne	r0, r0, sl
    1d34:	00000a89 	andeq	r0, r0, r9, lsl #21
    1d38:	0a7e0406 	beq	1f82d58 <__bss_end+0x1f6d220>
    1d3c:	99100000 	ldmdbls	r0, {}	; <UNPREDICTABLE>
    1d40:	2300000a 	movwcs	r0, #10
    1d44:	00000ac0 	andeq	r0, r0, r0, asr #21
    1d48:	68056901 	stmdavs	r5, {r0, r8, fp, sp, lr}
    1d4c:	58000000 	stmdapl	r0, {}	; <UNPREDICTABLE>
    1d50:	4800011b 	stmdami	r0, {r0, r1, r3, r4, r8}
    1d54:	01000000 	mrseq	r0, (UNDEF: 0)
    1d58:	000add9c 	muleq	sl, ip, sp
    1d5c:	0af02400 	beq	ffc0ad64 <_estack+0xf7bfad64>
    1d60:	69010000 	stmdbvs	r1, {}	; <UNPREDICTABLE>
    1d64:	000a9405 	andeq	r9, sl, r5, lsl #8
    1d68:	6c910200 	lfmvs	f0, 4, [r1], {0}
    1d6c:	000bcd25 	andeq	ip, fp, r5, lsr #26
    1d70:	056b0100 	strbeq	r0, [fp, #-256]!	; 0xffffff00
    1d74:	00000068 	andeq	r0, r0, r8, rrx
    1d78:	00749102 	rsbseq	r9, r4, r2, lsl #2
    1d7c:	000c1626 	andeq	r1, ip, r6, lsr #12
    1d80:	055d0100 	ldrbeq	r0, [sp, #-256]	; 0xffffff00
    1d84:	00000068 	andeq	r0, r0, r8, rrx
    1d88:	00011b0c 	andeq	r1, r1, ip, lsl #22
    1d8c:	0000004c 	andeq	r0, r0, ip, asr #32
    1d90:	0b169c01 	bleq	5a8d9c <__bss_end+0x593264>
    1d94:	f0240000 			; <UNDEFINED> instruction: 0xf0240000
    1d98:	0100000a 	tsteq	r0, sl
    1d9c:	0a94055d 	beq	fe503318 <_estack+0xf64f3318>
    1da0:	91020000 	mrsls	r0, (UNDEF: 2)
    1da4:	0bcd256c 	bleq	ff34b35c <_estack+0xf733b35c>
    1da8:	5f010000 	svcpl	0x00010000
    1dac:	00006805 	andeq	r6, r0, r5, lsl #16
    1db0:	74910200 	ldrvc	r0, [r1], #512	; 0x200
    1db4:	0aff2300 	beq	fffca9bc <_estack+0xf7fba9bc>
    1db8:	52010000 	andpl	r0, r1, #0
    1dbc:	00006805 	andeq	r6, r0, r5, lsl #16
    1dc0:	011acc00 	tsteq	sl, r0, lsl #24
    1dc4:	00004000 	andeq	r4, r0, r0
    1dc8:	4f9c0100 	svcmi	0x009c0100
    1dcc:	2400000b 	strcs	r0, [r0], #-11
    1dd0:	00000af0 	strdeq	r0, [r0], -r0	; <UNPREDICTABLE>
    1dd4:	94055201 	strls	r5, [r5], #-513	; 0xfffffdff
    1dd8:	0200000a 	andeq	r0, r0, #10
    1ddc:	cd256c91 	stcgt	12, cr6, [r5, #-580]!	; 0xfffffdbc
    1de0:	0100000b 	tsteq	r0, fp
    1de4:	00680554 	rsbeq	r0, r8, r4, asr r5
    1de8:	91020000 	mrsls	r0, (UNDEF: 2)
    1dec:	bc260074 	stclt	0, cr0, [r6], #-464	; 0xfffffe30
    1df0:	0100000b 	tsteq	r0, fp
    1df4:	00680546 	rsbeq	r0, r8, r6, asr #10
    1df8:	1a880000 	bne	fe201e00 <_estack+0xf61f1e00>
    1dfc:	00440001 	subeq	r0, r4, r1
    1e00:	9c010000 	stcls	0, cr0, [r1], {-0}
    1e04:	00000b88 	andeq	r0, r0, r8, lsl #23
    1e08:	000af024 	andeq	pc, sl, r4, lsr #32
    1e0c:	05460100 	strbeq	r0, [r6, #-256]	; 0xffffff00
    1e10:	00000a94 	muleq	r0, r4, sl
    1e14:	256c9102 	strbcs	r9, [ip, #-258]!	; 0xfffffefe
    1e18:	00000bcd 	andeq	r0, r0, sp, asr #23
    1e1c:	68054801 	stmdavs	r5, {r0, fp, lr}
    1e20:	02000000 	andeq	r0, r0, #0
    1e24:	27007491 			; <UNDEFINED> instruction: 0x27007491
    1e28:	00000d4d 	andeq	r0, r0, sp, asr #26
    1e2c:	84050601 	strhi	r0, [r5], #-1537	; 0xfffff9ff
    1e30:	04000119 	streq	r0, [r0], #-281	; 0xfffffee7
    1e34:	01000001 	tsteq	r0, r1
    1e38:	000bae9c 	muleq	fp, ip, lr
    1e3c:	0af02400 	beq	ffc0ae44 <_estack+0xf7bfae44>
    1e40:	06010000 	streq	r0, [r1], -r0
    1e44:	000a8905 	andeq	r8, sl, r5, lsl #18
    1e48:	74910200 	ldrvc	r0, [r1], #512	; 0x200
    1e4c:	0d052700 	stceq	7, cr2, [r5, #-0]
    1e50:	f8010000 			; <UNDEFINED> instruction: 0xf8010000
    1e54:	0118f404 	tsteq	r8, r4, lsl #8	; <UNPREDICTABLE>
    1e58:	00009000 	andeq	r9, r0, r0
    1e5c:	e39c0100 	orrs	r0, ip, #0, 2
    1e60:	2400000b 	strcs	r0, [r0], #-11
    1e64:	00000af0 	strdeq	r0, [r0], -r0	; <UNPREDICTABLE>
    1e68:	9f04f801 	svcls	0x0004f801
    1e6c:	0200000a 	andeq	r0, r0, #10
    1e70:	c0247491 	mlagt	r4, r1, r4, r7
    1e74:	0100000d 	tsteq	r0, sp
    1e78:	08ae04f8 	stmiaeq	lr!, {r3, r4, r5, r6, r7, sl}
    1e7c:	91020000 	mrsls	r0, (UNDEF: 2)
    1e80:	45270070 	strmi	r0, [r7, #-112]!	; 0xffffff90
    1e84:	0100000b 	tsteq	r0, fp
    1e88:	17c804d2 			; <UNDEFINED> instruction: 0x17c804d2
    1e8c:	012c0001 			; <UNDEFINED> instruction: 0x012c0001
    1e90:	9c010000 	stcls	0, cr0, [r1], {-0}
    1e94:	00000c27 	andeq	r0, r0, r7, lsr #24
    1e98:	000af024 	andeq	pc, sl, r4, lsr #32
    1e9c:	04d20100 	ldrbeq	r0, [r2], #256	; 0x100
    1ea0:	00000a99 	muleq	r0, r9, sl
    1ea4:	24749102 	ldrbtcs	r9, [r4], #-258	; 0xfffffefe
    1ea8:	00000cb3 			; <UNDEFINED> instruction: 0x00000cb3
    1eac:	ae04d201 	cdpge	2, 0, cr13, cr4, cr1, {0}
    1eb0:	02000008 	andeq	r0, r0, #8
    1eb4:	6b247091 	blvs	91e100 <__bss_end+0x9085c8>
    1eb8:	0100000d 	tsteq	r0, sp
    1ebc:	006804d2 	ldrdeq	r0, [r8], #-66	; 0xffffffbe	; <UNPREDICTABLE>
    1ec0:	91020000 	mrsls	r0, (UNDEF: 2)
    1ec4:	2128006c 			; <UNDEFINED> instruction: 0x2128006c
    1ec8:	0100000b 	tsteq	r0, fp
    1ecc:	179404a9 	ldrne	r0, [r4, r9, lsr #9]
    1ed0:	00340001 	eorseq	r0, r4, r1
    1ed4:	9c010000 	stcls	0, cr0, [r1], {-0}
    1ed8:	00000c4d 	andeq	r0, r0, sp, asr #24
    1edc:	000af024 	andeq	pc, sl, r4, lsr #32
    1ee0:	04a90100 	strteq	r0, [r9], #256	; 0x100
    1ee4:	00000a89 	andeq	r0, r0, r9, lsl #21
    1ee8:	00749102 	rsbseq	r9, r4, r2, lsl #2
    1eec:	000c6d23 	andeq	r6, ip, r3, lsr #26
    1ef0:	049d0100 	ldreq	r0, [sp], #256	; 0x100
    1ef4:	00000074 	andeq	r0, r0, r4, ror r0
    1ef8:	00011764 	andeq	r1, r1, r4, ror #14
    1efc:	00000030 	andeq	r0, r0, r0, lsr r0
    1f00:	0c869c01 	stceq	12, cr9, [r6], {1}
    1f04:	f0240000 			; <UNDEFINED> instruction: 0xf0240000
    1f08:	0100000a 	tsteq	r0, sl
    1f0c:	0a94049d 	beq	fe503188 <_estack+0xf64f3188>
    1f10:	91020000 	mrsls	r0, (UNDEF: 2)
    1f14:	0bcc256c 	bleq	ff30b4cc <_estack+0xf72fb4cc>
    1f18:	9f010000 	svcls	0x00010000
    1f1c:	00007404 	andeq	r7, r0, r4, lsl #8
    1f20:	74910200 	ldrvc	r0, [r1], #512	; 0x200
    1f24:	0ad92900 	beq	ff64c32c <_estack+0xf763c32c>
    1f28:	8f010000 	svchi	0x00010000
    1f2c:	00007404 	andeq	r7, r0, r4, lsl #8
    1f30:	01173000 	tsteq	r7, r0
    1f34:	00003400 	andeq	r3, r0, r0, lsl #8
    1f38:	bf9c0100 	svclt	0x009c0100
    1f3c:	2400000c 	strcs	r0, [r0], #-12
    1f40:	00000af0 	strdeq	r0, [r0], -r0	; <UNPREDICTABLE>
    1f44:	94048f01 	strls	r8, [r4], #-3841	; 0xfffff0ff
    1f48:	0200000a 	andeq	r0, r0, #10
    1f4c:	cc256c91 	stcgt	12, cr6, [r5], #-580	; 0xfffffdbc
    1f50:	0100000b 	tsteq	r0, fp
    1f54:	00740491 			; <UNDEFINED> instruction: 0x00740491
    1f58:	91020000 	mrsls	r0, (UNDEF: 2)
    1f5c:	01290074 			; <UNDEFINED> instruction: 0x01290074
    1f60:	0100000c 	tsteq	r0, ip
    1f64:	00680456 	rsbeq	r0, r8, r6, asr r4
    1f68:	16500000 	ldrbne	r0, [r0], -r0
    1f6c:	00e00001 	rsceq	r0, r0, r1
    1f70:	9c010000 	stcls	0, cr0, [r1], {-0}
    1f74:	00000d25 	andeq	r0, r0, r5, lsr #26
    1f78:	000af024 	andeq	pc, sl, r4, lsr #32
    1f7c:	04560100 	ldrbeq	r0, [r6], #-256	; 0xffffff00
    1f80:	00000a89 	andeq	r0, r0, r9, lsl #21
    1f84:	246c9102 	strbtcs	r9, [ip], #-258	; 0xfffffefe
    1f88:	00000dc0 	andeq	r0, r0, r0, asr #27
    1f8c:	27045601 	strcs	r5, [r4, -r1, lsl #12]
    1f90:	02000001 	andeq	r0, r0, #1
    1f94:	45246891 	strmi	r6, [r4, #-2193]!	; 0xfffff76f
    1f98:	0100000c 	tsteq	r0, ip
    1f9c:	0d250456 	cfstrseq	mvf0, [r5, #-344]!	; 0xfffffea8
    1fa0:	91020000 	mrsls	r0, (UNDEF: 2)
    1fa4:	0bcd2564 	bleq	ff34b53c <_estack+0xf733b53c>
    1fa8:	58010000 	stmdapl	r1, {}	; <UNPREDICTABLE>
    1fac:	00006804 	andeq	r6, r0, r4, lsl #16
    1fb0:	74910200 	ldrvc	r0, [r1], #512	; 0x200
    1fb4:	000b9125 	andeq	r9, fp, r5, lsr #2
    1fb8:	04590100 	ldrbeq	r0, [r9], #-256	; 0xffffff00
    1fbc:	00000074 	andeq	r0, r0, r4, ror r0
    1fc0:	00709102 	rsbseq	r9, r0, r2, lsl #2
    1fc4:	00680406 	rsbeq	r0, r8, r6, lsl #8
    1fc8:	62290000 	eorvs	r0, r9, #0
    1fcc:	0100000b 	tsteq	r0, fp
    1fd0:	006803c1 	rsbeq	r0, r8, r1, asr #7
    1fd4:	144c0000 	strbne	r0, [ip], #-0
    1fd8:	02040001 	andeq	r0, r4, #1
    1fdc:	9c010000 	stcls	0, cr0, [r1], {-0}
    1fe0:	00000daf 	andeq	r0, r0, pc, lsr #27
    1fe4:	000af024 	andeq	pc, sl, r4, lsr #32
    1fe8:	03c10100 	biceq	r0, r1, #0, 2
    1fec:	00000a89 	andeq	r0, r0, r9, lsl #21
    1ff0:	24649102 	strbtcs	r9, [r4], #-258	; 0xfffffefe
    1ff4:	00000dc0 	andeq	r0, r0, r0, asr #27
    1ff8:	2703c101 	strcs	ip, [r3, -r1, lsl #2]
    1ffc:	02000001 	andeq	r0, r0, #1
    2000:	03246091 			; <UNDEFINED> instruction: 0x03246091
    2004:	01000010 	tsteq	r0, r0, lsl r0
    2008:	08c503c1 	stmiaeq	r5, {r0, r6, r7, r8, r9}^
    200c:	91020000 	mrsls	r0, (UNDEF: 2)
    2010:	0baf245c 	bleq	febcb188 <_estack+0xf6bbb188>
    2014:	c1010000 	mrsgt	r0, (UNDEF: 1)
    2018:	00006803 	andeq	r6, r0, r3, lsl #16
    201c:	58910200 	ldmpl	r1, {r9}
    2020:	000cc825 	andeq	ip, ip, r5, lsr #16
    2024:	03c30100 	biceq	r0, r3, #0, 2
    2028:	00000068 	andeq	r0, r0, r8, rrx
    202c:	25749102 	ldrbcs	r9, [r4, #-258]!	; 0xfffffefe
    2030:	00001130 	andeq	r1, r0, r0, lsr r1
    2034:	dc03c401 	cfstrsle	mvf12, [r3], {1}
    2038:	02000009 	andeq	r0, r0, #9
    203c:	2e256891 	mcrcs	8, 1, r6, cr5, cr1, {4}
    2040:	0100000c 	tsteq	r0, ip
    2044:	0a7803c5 	beq	1e02f60 <__bss_end+0x1ded428>
    2048:	91020000 	mrsls	r0, (UNDEF: 2)
    204c:	9b290070 	blls	a42214 <__bss_end+0xa2c6dc>
    2050:	0100000a 	tsteq	r0, sl
    2054:	00680386 	rsbeq	r0, r8, r6, lsl #7
    2058:	13700000 	cmnne	r0, #0
    205c:	00dc0001 	sbcseq	r0, ip, r1
    2060:	9c010000 	stcls	0, cr0, [r1], {-0}
    2064:	00000e24 	andeq	r0, r0, r4, lsr #28
    2068:	000af024 	andeq	pc, sl, r4, lsr #32
    206c:	03860100 	orreq	r0, r6, #0, 2
    2070:	00000a89 	andeq	r0, r0, r9, lsl #21
    2074:	246c9102 	strbtcs	r9, [ip], #-258	; 0xfffffefe
    2078:	00000cb3 			; <UNDEFINED> instruction: 0x00000cb3
    207c:	b4038601 	strlt	r8, [r3], #-1537	; 0xfffff9ff
    2080:	02000008 	andeq	r0, r0, #8
    2084:	45246891 	strmi	r6, [r4, #-2193]!	; 0xfffff76f
    2088:	0100000c 	tsteq	r0, ip
    208c:	0d250386 	stceq	3, cr0, [r5, #-536]!	; 0xfffffde8
    2090:	91020000 	mrsls	r0, (UNDEF: 2)
    2094:	0d3f2464 	cfldrseq	mvf2, [pc, #-400]!	; 1f0c <_start-0x60f4>
    2098:	86010000 	strhi	r0, [r1], -r0
    209c:	00006803 	andeq	r6, r0, r3, lsl #16
    20a0:	60910200 	addsvs	r0, r1, r0, lsl #4
    20a4:	000bcd25 	andeq	ip, fp, r5, lsr #26
    20a8:	03880100 	orreq	r0, r8, #0, 2
    20ac:	00000068 	andeq	r0, r0, r8, rrx
    20b0:	25749102 	ldrbcs	r9, [r4, #-258]!	; 0xfffffefe
    20b4:	00000b91 	muleq	r0, r1, fp
    20b8:	74038901 	strvc	r8, [r3], #-2305	; 0xfffff6ff
    20bc:	02000000 	andeq	r0, r0, #0
    20c0:	29007091 	stmdbcs	r0, {r0, r4, r7, ip, sp, lr}
    20c4:	00000bd5 	ldrdeq	r0, [r0], -r5
    20c8:	68024101 	stmdavs	r2, {r0, r8, lr}
    20cc:	cc000000 	stcgt	0, cr0, [r0], {-0}
    20d0:	a4000111 	strge	r0, [r0], #-273	; 0xfffffeef
    20d4:	01000001 	tsteq	r0, r1
    20d8:	000e999c 	muleq	lr, ip, r9
    20dc:	0af02400 	beq	ffc0b0e4 <_estack+0xf7bfb0e4>
    20e0:	41010000 	mrsmi	r0, (UNDEF: 1)
    20e4:	000a8902 	andeq	r8, sl, r2, lsl #18
    20e8:	64910200 	ldrvs	r0, [r1], #512	; 0x200
    20ec:	000cb324 	andeq	fp, ip, r4, lsr #6
    20f0:	02410100 	subeq	r0, r1, #0, 2
    20f4:	000008b4 			; <UNDEFINED> instruction: 0x000008b4
    20f8:	24609102 	strbtcs	r9, [r0], #-258	; 0xfffffefe
    20fc:	00001003 	andeq	r1, r0, r3
    2100:	c5024101 	strgt	r4, [r2, #-257]	; 0xfffffeff
    2104:	02000008 	andeq	r0, r0, #8
    2108:	3f245c91 	svccc	0x00245c91
    210c:	0100000d 	tsteq	r0, sp
    2110:	00680241 	rsbeq	r0, r8, r1, asr #4
    2114:	91020000 	mrsls	r0, (UNDEF: 2)
    2118:	0cc82558 	cfstr64eq	mvdx2, [r8], {88}	; 0x58
    211c:	43010000 	movwmi	r0, #4096	; 0x1000
    2120:	00006802 	andeq	r6, r0, r2, lsl #16
    2124:	74910200 	ldrvc	r0, [r1], #512	; 0x200
    2128:	00113025 	andseq	r3, r1, r5, lsr #32
    212c:	02440100 	subeq	r0, r4, #0, 2
    2130:	000009dc 	ldrdeq	r0, [r0], -ip
    2134:	006c9102 	rsbeq	r9, ip, r2, lsl #2
    2138:	000cf129 	andeq	pc, ip, r9, lsr #2
    213c:	01420100 	mrseq	r0, (UNDEF: 82)
    2140:	00000a89 	andeq	r0, r0, r9, lsl #21
    2144:	00011104 	andeq	r1, r1, r4, lsl #2
    2148:	000000c8 	andeq	r0, r0, r8, asr #1
    214c:	0f0e9c01 	svceq	0x000e9c01
    2150:	5f240000 	svcpl	0x00240000
    2154:	0100000c 	tsteq	r0, ip
    2158:	00740142 	rsbseq	r0, r4, r2, asr #2
    215c:	91020000 	mrsls	r0, (UNDEF: 2)
    2160:	0da52464 	cfstrseq	mvf2, [r5, #400]!	; 0x190
    2164:	42010000 	andmi	r0, r1, #0
    2168:	00007401 	andeq	r7, r0, r1, lsl #8
    216c:	60910200 	addsvs	r0, r1, r0, lsl #4
    2170:	000ab424 	andeq	fp, sl, r4, lsr #8
    2174:	01420100 	mrseq	r0, (UNDEF: 82)
    2178:	00000053 	andeq	r0, r0, r3, asr r0
    217c:	255f9102 	ldrbcs	r9, [pc, #-258]	; 2082 <_start-0x5f7e>
    2180:	00000ce6 	andeq	r0, r0, r6, ror #25
    2184:	99014401 	stmdbls	r1, {r0, sl, lr}
    2188:	0200000a 	andeq	r0, r0, #10
    218c:	89257091 	stmdbhi	r5!, {r0, r4, r7, ip, sp, lr}
    2190:	0100000d 	tsteq	r0, sp
    2194:	00250145 	eoreq	r0, r5, r5, asr #2
    2198:	91020000 	mrsls	r0, (UNDEF: 2)
    219c:	0bcd256c 	bleq	ff34b754 <_estack+0xf733b754>
    21a0:	46010000 	strmi	r0, [r1], -r0
    21a4:	000a8901 	andeq	r8, sl, r1, lsl #18
    21a8:	74910200 	ldrvc	r0, [r1], #512	; 0x200
    21ac:	0d2c2a00 	vstmdbeq	ip!, {s4-s3}
    21b0:	17010000 	strne	r0, [r1, -r0]
    21b4:	00006801 	andeq	r6, r0, r1, lsl #16
    21b8:	010ff000 	mrseq	pc, CPSR	; <UNPREDICTABLE>
    21bc:	00011400 	andeq	r1, r1, r0, lsl #8
    21c0:	249c0100 	ldrcs	r0, [ip], #256	; 0x100
    21c4:	00000af0 	strdeq	r0, [r0], -r0	; <UNPREDICTABLE>
    21c8:	89011701 	stmdbhi	r1, {r0, r8, r9, sl, ip}
    21cc:	0200000a 	andeq	r0, r0, #10
    21d0:	e7247491 			; <UNDEFINED> instruction: 0xe7247491
    21d4:	0100000c 	tsteq	r0, ip
    21d8:	00680117 	rsbeq	r0, r8, r7, lsl r1
    21dc:	91020000 	mrsls	r0, (UNDEF: 2)
    21e0:	41000070 	tstmi	r0, r0, ror r0
    21e4:	04000015 	streq	r0, [r0], #-21	; 0xffffffeb
    21e8:	0007ba00 	andeq	fp, r7, r0, lsl #20
    21ec:	9a010400 	bls	431f4 <__bss_end+0x2d6bc>
    21f0:	0c000000 	stceq	0, cr0, [r0], {-0}
    21f4:	00001139 	andeq	r1, r0, r9, lsr r1
    21f8:	0000000c 	andeq	r0, r0, ip
    21fc:	00011ba0 	andeq	r1, r1, r0, lsr #23
    2200:	00001924 	andeq	r1, r0, r4, lsr #18
    2204:	000008a2 	andeq	r0, r0, r2, lsr #17
    2208:	94060102 	strls	r0, [r6], #-258	; 0xfffffefe
    220c:	03000008 	movweq	r0, #8
    2210:	00000025 	andeq	r0, r0, r5, lsr #32
    2214:	92080102 	andls	r0, r8, #-2147483648	; 0x80000000
    2218:	02000008 	andeq	r0, r0, #8
    221c:	08ae0502 	stmiaeq	lr!, {r1, r8, sl}
    2220:	02020000 	andeq	r0, r2, #0
    2224:	00006907 	andeq	r6, r0, r7, lsl #18
    2228:	05040200 	streq	r0, [r4, #-512]	; 0xfffffe00
    222c:	00000124 	andeq	r0, r0, r4, lsr #2
    2230:	00004604 	andeq	r4, r0, r4, lsl #12
    2234:	07040200 	streq	r0, [r4, -r0, lsl #4]
    2238:	0000063b 	andeq	r0, r0, fp, lsr r6
    223c:	00005204 	andeq	r5, r0, r4, lsl #4
    2240:	05080200 	streq	r0, [r8, #-512]	; 0xfffffe00
    2244:	0000011f 	andeq	r0, r0, pc, lsl r1
    2248:	36070802 	strcc	r0, [r7], -r2, lsl #16
    224c:	05000006 	streq	r0, [r0, #-6]
    2250:	6e690504 	cdpvs	5, 6, cr0, cr9, cr4, {0}
    2254:	04020074 	streq	r0, [r2], #-116	; 0xffffff8c
    2258:	00064007 	andeq	r4, r6, r7
    225c:	0af80600 	beq	ffe03a64 <_estack+0xf7df3a64>
    2260:	d8020000 	stmdale	r2, {}	; <UNPREDICTABLE>
    2264:	00000073 	andeq	r0, r0, r3, ror r0
    2268:	4d040802 	stcmi	8, cr0, [r4, #-8]
    226c:	07000001 	streq	r0, [r0, -r1]
    2270:	08030604 	stmdaeq	r3, {r2, r9, sl}
    2274:	22030000 	andcs	r0, r3, #0
    2278:	00000099 	muleq	r0, r9, r0
    227c:	009f0408 	addseq	r0, pc, r8, lsl #8
    2280:	5c090000 	stcpl	0, cr0, [r9], {-0}
    2284:	06000009 	streq	r0, [r0], -r9
    2288:	00000873 	andeq	r0, r0, r3, ror r8
    228c:	00462c04 	subeq	r2, r6, r4, lsl #24
    2290:	7d060000 	stcvc	0, cr0, [r6, #-0]
    2294:	04000009 	streq	r0, [r0], #-9
    2298:	00004672 	andeq	r4, r0, r2, ror r6
    229c:	080b0a00 	stmdaeq	fp, {r9, fp}
    22a0:	65020000 	strvs	r0, [r2, #-0]
    22a4:	00007301 	andeq	r7, r0, r1, lsl #6
    22a8:	04040b00 	streq	r0, [r4], #-2816	; 0xfffff500
    22ac:	0000e5a6 	andeq	lr, r0, r6, lsr #11
    22b0:	07fd0c00 	ldrbeq	r0, [sp, r0, lsl #24]!
    22b4:	a8040000 	stmdage	r4, {}	; <UNPREDICTABLE>
    22b8:	000000ba 	strheq	r0, [r0], -sl
    22bc:	0007880c 	andeq	r8, r7, ip, lsl #16
    22c0:	e5a90400 	str	r0, [r9, #1024]!	; 0x400
    22c4:	00000000 	andeq	r0, r0, r0
    22c8:	0000310d 	andeq	r3, r0, sp, lsl #2
    22cc:	0000f500 	andeq	pc, r0, r0, lsl #10
    22d0:	00730e00 	rsbseq	r0, r3, r0, lsl #28
    22d4:	00030000 	andeq	r0, r3, r0
    22d8:	a304080f 	movwge	r0, #18447	; 0x480f
    22dc:	00000116 	andeq	r0, r0, r6, lsl r1
    22e0:	00095410 	andeq	r5, r9, r0, lsl r4
    22e4:	6ca50400 	cfstrsvs	mvf0, [r5]
    22e8:	00000000 	andeq	r0, r0, r0
    22ec:	00096310 	andeq	r6, r9, r0, lsl r3
    22f0:	c6aa0400 	strtgt	r0, [sl], r0, lsl #8
    22f4:	04000000 	streq	r0, [r0], #-0
    22f8:	08d60600 	ldmeq	r6, {r9, sl}^
    22fc:	ab040000 	blge	102304 <__bss_end+0xec7cc>
    2300:	000000f5 	strdeq	r0, [r0], -r5
    2304:	00074b06 	andeq	r4, r7, r6, lsl #22
    2308:	8eaf0400 	cdphi	4, 10, cr0, cr15, cr0, {0}
    230c:	06000000 	streq	r0, [r0], -r0
    2310:	000009c1 	andeq	r0, r0, r1, asr #19
    2314:	00521605 	subseq	r1, r2, r5, lsl #12
    2318:	5c110000 	ldcpl	0, cr0, [r1], {-0}
    231c:	18000007 	stmdane	r0, {r0, r1, r2}
    2320:	018a2f05 	orreq	r2, sl, r5, lsl #30
    2324:	f7100000 			; <UNDEFINED> instruction: 0xf7100000
    2328:	05000008 	streq	r0, [r0, #-8]
    232c:	00018a31 	andeq	r8, r1, r1, lsr sl
    2330:	5f120000 	svcpl	0x00120000
    2334:	3205006b 	andcc	r0, r5, #107	; 0x6b
    2338:	0000006c 	andeq	r0, r0, ip, rrx
    233c:	093f1004 	ldmdbeq	pc!, {r2, ip}	; <UNPREDICTABLE>
    2340:	32050000 	andcc	r0, r5, #0
    2344:	0000006c 	andeq	r0, r0, ip, rrx
    2348:	07451008 	strbeq	r1, [r5, -r8]
    234c:	32050000 	andcc	r0, r5, #0
    2350:	0000006c 	andeq	r0, r0, ip, rrx
    2354:	0a06100c 	beq	18638c <__bss_end+0x170854>
    2358:	32050000 	andcc	r0, r5, #0
    235c:	0000006c 	andeq	r0, r0, ip, rrx
    2360:	785f1210 	ldmdavc	pc, {r4, r9, ip}^	; <UNPREDICTABLE>
    2364:	90330500 	eorsls	r0, r3, r0, lsl #10
    2368:	14000001 	strne	r0, [r0], #-1
    236c:	37040800 	strcc	r0, [r4, -r0, lsl #16]
    2370:	0d000001 	stceq	0, cr0, [r0, #-4]
    2374:	0000012c 	andeq	r0, r0, ip, lsr #2
    2378:	000001a0 	andeq	r0, r0, r0, lsr #3
    237c:	0000730e 	andeq	r7, r0, lr, lsl #6
    2380:	11000000 	mrsne	r0, (UNDEF: 0)
    2384:	00000783 	andeq	r0, r0, r3, lsl #15
    2388:	19370524 	ldmdbne	r7!, {r2, r5, r8, sl}
    238c:	10000002 	andne	r0, r0, r2
    2390:	0000067e 	andeq	r0, r0, lr, ror r6
    2394:	006c3905 	rsbeq	r3, ip, r5, lsl #18
    2398:	10000000 	andne	r0, r0, r0
    239c:	0000098c 	andeq	r0, r0, ip, lsl #19
    23a0:	006c3a05 	rsbeq	r3, ip, r5, lsl #20
    23a4:	10040000 	andne	r0, r4, r0
    23a8:	00000693 	muleq	r0, r3, r6
    23ac:	006c3b05 	rsbeq	r3, ip, r5, lsl #22
    23b0:	10080000 	andne	r0, r8, r0
    23b4:	00000a91 	muleq	r0, r1, sl
    23b8:	006c3c05 	rsbeq	r3, ip, r5, lsl #24
    23bc:	100c0000 	andne	r0, ip, r0
    23c0:	0000084d 	andeq	r0, r0, sp, asr #16
    23c4:	006c3d05 	rsbeq	r3, ip, r5, lsl #26
    23c8:	10100000 	andsne	r0, r0, r0
    23cc:	0000082d 	andeq	r0, r0, sp, lsr #16
    23d0:	006c3e05 	rsbeq	r3, ip, r5, lsl #28
    23d4:	10140000 	andsne	r0, r4, r0
    23d8:	00000a0b 	andeq	r0, r0, fp, lsl #20
    23dc:	006c3f05 	rsbeq	r3, ip, r5, lsl #30
    23e0:	10180000 	andsne	r0, r8, r0
    23e4:	000008b8 			; <UNDEFINED> instruction: 0x000008b8
    23e8:	006c4005 	rsbeq	r4, ip, r5
    23ec:	101c0000 	andsne	r0, ip, r0
    23f0:	00000a58 	andeq	r0, r0, r8, asr sl
    23f4:	006c4105 	rsbeq	r4, ip, r5, lsl #2
    23f8:	00200000 	eoreq	r0, r0, r0
    23fc:	0006a213 	andeq	sl, r6, r3, lsl r2
    2400:	05010800 	streq	r0, [r1, #-2048]	; 0xfffff800
    2404:	0002594a 	andeq	r5, r2, sl, asr #18
    2408:	07241000 	streq	r1, [r4, -r0]!
    240c:	4b050000 	blmi	142414 <__bss_end+0x12c8dc>
    2410:	00000259 	andeq	r0, r0, r9, asr r2
    2414:	05eb1000 	strbeq	r1, [fp, #0]!
    2418:	4c050000 	stcmi	0, cr0, [r5], {-0}
    241c:	00000259 	andeq	r0, r0, r9, asr r2
    2420:	09a81480 	stmibeq	r8!, {r7, sl, ip}
    2424:	4e050000 	cdpmi	0, 0, cr0, cr5, cr0, {0}
    2428:	0000012c 	andeq	r0, r0, ip, lsr #2
    242c:	c7140100 	ldrgt	r0, [r4, -r0, lsl #2]
    2430:	05000006 	streq	r0, [r0, #-6]
    2434:	00012c51 	andeq	r2, r1, r1, asr ip
    2438:	00010400 	andeq	r0, r1, r0, lsl #8
    243c:	00008c0d 	andeq	r8, r0, sp, lsl #24
    2440:	00026900 	andeq	r6, r2, r0, lsl #18
    2444:	00730e00 	rsbseq	r0, r3, r0, lsl #28
    2448:	001f0000 	andseq	r0, pc, r0
    244c:	00085613 	andeq	r5, r8, r3, lsl r6
    2450:	05019000 	streq	r9, [r1, #-0]
    2454:	0002a75d 	andeq	sl, r2, sp, asr r7
    2458:	08f71000 	ldmeq	r7!, {ip}^
    245c:	5e050000 	cdppl	0, 0, cr0, cr5, cr0, {0}
    2460:	000002a7 	andeq	r0, r0, r7, lsr #5
    2464:	090f1000 	stmdbeq	pc, {ip}	; <UNPREDICTABLE>
    2468:	5f050000 	svcpl	0x00050000
    246c:	0000006c 	andeq	r0, r0, ip, rrx
    2470:	072c1004 	streq	r1, [ip, -r4]!
    2474:	61050000 	mrsvs	r0, (UNDEF: 5)
    2478:	000002ad 	andeq	r0, r0, sp, lsr #5
    247c:	06a21008 	strteq	r1, [r2], r8
    2480:	62050000 	andvs	r0, r5, #0
    2484:	00000219 	andeq	r0, r0, r9, lsl r2
    2488:	04080088 	streq	r0, [r8], #-136	; 0xffffff78
    248c:	00000269 	andeq	r0, r0, r9, ror #4
    2490:	0002bd0d 	andeq	fp, r2, sp, lsl #26
    2494:	0002bd00 	andeq	fp, r2, r0, lsl #26
    2498:	00730e00 	rsbseq	r0, r3, r0, lsl #28
    249c:	001f0000 	andseq	r0, pc, r0
    24a0:	02c30408 	sbceq	r0, r3, #8, 8	; 0x8000000
    24a4:	11150000 	tstne	r5, r0
    24a8:	000008c2 	andeq	r0, r0, r2, asr #17
    24ac:	e9750508 	ldmdb	r5!, {r3, r8, sl}^
    24b0:	10000002 	andne	r0, r0, r2
    24b4:	0000068d 	andeq	r0, r0, sp, lsl #13
    24b8:	02e97605 	rsceq	r7, r9, #5242880	; 0x500000
    24bc:	10000000 	andne	r0, r0, r0
    24c0:	000005f7 	strdeq	r0, [r0], -r7
    24c4:	006c7705 	rsbeq	r7, ip, r5, lsl #14
    24c8:	00040000 	andeq	r0, r4, r0
    24cc:	00310408 	eorseq	r0, r1, r8, lsl #8
    24d0:	e1110000 	tst	r1, r0
    24d4:	68000008 	stmdavs	r0, {r3}
    24d8:	0419b505 	ldreq	fp, [r9], #-1285	; 0xfffffafb
    24dc:	5f120000 	svcpl	0x00120000
    24e0:	b6050070 			; <UNDEFINED> instruction: 0xb6050070
    24e4:	000002e9 	andeq	r0, r0, r9, ror #5
    24e8:	725f1200 	subsvc	r1, pc, #0, 4
    24ec:	6cb70500 	cfldr32vs	mvfx0, [r7]
    24f0:	04000000 	streq	r0, [r0], #-0
    24f4:	00775f12 	rsbseq	r5, r7, r2, lsl pc
    24f8:	006cb805 	rsbeq	fp, ip, r5, lsl #16
    24fc:	10080000 	andne	r0, r8, r0
    2500:	000006c0 	andeq	r0, r0, r0, asr #13
    2504:	0038b905 	eorseq	fp, r8, r5, lsl #18
    2508:	100c0000 	andne	r0, ip, r0
    250c:	0000079f 	muleq	r0, pc, r7	; <UNPREDICTABLE>
    2510:	0038ba05 	eorseq	fp, r8, r5, lsl #20
    2514:	120e0000 	andne	r0, lr, #0
    2518:	0066625f 	rsbeq	r6, r6, pc, asr r2
    251c:	02c4bb05 	sbceq	fp, r4, #5120	; 0x1400
    2520:	10100000 	andsne	r0, r0, r0
    2524:	0000064d 	andeq	r0, r0, sp, asr #12
    2528:	006cbc05 	rsbeq	fp, ip, r5, lsl #24
    252c:	10180000 	andsne	r0, r8, r0
    2530:	000006b0 			; <UNDEFINED> instruction: 0x000006b0
    2534:	008cc305 	addeq	ip, ip, r5, lsl #6
    2538:	101c0000 	andsne	r0, ip, r0
    253c:	00000773 	andeq	r0, r0, r3, ror r7
    2540:	0586c505 	streq	ip, [r6, #1285]	; 0x505
    2544:	10200000 	eorne	r0, r0, r0
    2548:	00000826 	andeq	r0, r0, r6, lsr #16
    254c:	05b0c705 	ldreq	ip, [r0, #1797]!	; 0x705
    2550:	10240000 	eorne	r0, r4, r0
    2554:	0000096b 	andeq	r0, r0, fp, ror #18
    2558:	05d4ca05 	ldrbeq	ip, [r4, #2565]	; 0xa05
    255c:	10280000 	eorne	r0, r8, r0
    2560:	00000a72 	andeq	r0, r0, r2, ror sl
    2564:	05eecb05 	strbeq	ip, [lr, #2821]!	; 0xb05
    2568:	122c0000 	eorne	r0, ip, #0
    256c:	0062755f 	rsbeq	r7, r2, pc, asr r5
    2570:	02c4ce05 	sbceq	ip, r4, #5, 28	; 0x50
    2574:	12300000 	eorsne	r0, r0, #0
    2578:	0070755f 	rsbseq	r7, r0, pc, asr r5
    257c:	02e9cf05 	rsceq	ip, r9, #5, 30
    2580:	12380000 	eorsne	r0, r8, #0
    2584:	0072755f 	rsbseq	r7, r2, pc, asr r5
    2588:	006cd005 	rsbeq	sp, ip, r5
    258c:	103c0000 	eorsne	r0, ip, r0
    2590:	00000687 	andeq	r0, r0, r7, lsl #13
    2594:	05f4d305 	ldrbeq	sp, [r4, #773]!	; 0x305
    2598:	10400000 	subne	r0, r0, r0
    259c:	00000a4a 	andeq	r0, r0, sl, asr #20
    25a0:	0604d405 	streq	sp, [r4], -r5, lsl #8
    25a4:	12430000 	subne	r0, r3, #0
    25a8:	00626c5f 	rsbeq	r6, r2, pc, asr ip
    25ac:	02c4d705 	sbceq	sp, r4, #1310720	; 0x140000
    25b0:	10440000 	subne	r0, r4, r0
    25b4:	000006d6 	ldrdeq	r0, [r0], -r6
    25b8:	006cda05 	rsbeq	sp, ip, r5, lsl #20
    25bc:	104c0000 	subne	r0, ip, r0
    25c0:	000006e7 	andeq	r0, r0, r7, ror #13
    25c4:	00a4db05 	adceq	sp, r4, r5, lsl #22
    25c8:	10500000 	subsne	r0, r0, r0
    25cc:	00000610 	andeq	r0, r0, r0, lsl r6
    25d0:	0437de05 	ldrteq	sp, [r7], #-3589	; 0xfffff1fb
    25d4:	10540000 	subsne	r0, r4, r0
    25d8:	0000095d 	andeq	r0, r0, sp, asr r9
    25dc:	0121e205 			; <UNDEFINED> instruction: 0x0121e205
    25e0:	10580000 	subsne	r0, r8, r0
    25e4:	000008e9 	andeq	r0, r0, r9, ror #17
    25e8:	0116e405 	tsteq	r6, r5, lsl #8
    25ec:	105c0000 	subsne	r0, ip, r0
    25f0:	0000081e 	andeq	r0, r0, lr, lsl r8
    25f4:	006ce505 	rsbeq	lr, ip, r5, lsl #10
    25f8:	00640000 	rsbeq	r0, r4, r0
    25fc:	00006c16 	andeq	r6, r0, r6, lsl ip
    2600:	00043700 	andeq	r3, r4, r0, lsl #14
    2604:	04371700 	ldrteq	r1, [r7], #-1792	; 0xfffff900
    2608:	8c170000 	ldchi	0, cr0, [r7], {-0}
    260c:	17000000 	strne	r0, [r0, -r0]
    2610:	00000574 	andeq	r0, r0, r4, ror r5
    2614:	00006c17 	andeq	r6, r0, r7, lsl ip
    2618:	04080000 	streq	r0, [r8], #-0
    261c:	00000442 	andeq	r0, r0, r2, asr #8
    2620:	00043703 	andeq	r3, r4, r3, lsl #14
    2624:	09471800 	stmdbeq	r7, {fp, ip}^
    2628:	04280000 	strteq	r0, [r8], #-0
    262c:	74026005 	strvc	r6, [r2], #-5
    2630:	19000005 	stmdbne	r0, {r0, r2}
    2634:	000008a7 	andeq	r0, r0, r7, lsr #17
    2638:	6c026205 	sfmvs	f6, 4, [r2], {5}
    263c:	00000000 	andeq	r0, r0, r0
    2640:	0006cf19 	andeq	ip, r6, r9, lsl pc
    2644:	02670500 	rsbeq	r0, r7, #0, 10
    2648:	0000065b 	andeq	r0, r0, fp, asr r6
    264c:	078f1904 	streq	r1, [pc, r4, lsl #18]
    2650:	67050000 	strvs	r0, [r5, -r0]
    2654:	00065b02 	andeq	r5, r6, r2, lsl #22
    2658:	54190800 	ldrpl	r0, [r9], #-2048	; 0xfffff800
    265c:	05000007 	streq	r0, [r0, #-7]
    2660:	065b0267 	ldrbeq	r0, [fp], -r7, ror #4
    2664:	190c0000 	stmdbne	ip, {}	; <UNPREDICTABLE>
    2668:	0000090a 	andeq	r0, r0, sl, lsl #18
    266c:	6c026905 			; <UNDEFINED> instruction: 0x6c026905
    2670:	10000000 	andne	r0, r0, r0
    2674:	00060519 	andeq	r0, r6, r9, lsl r5
    2678:	026a0500 	rsbeq	r0, sl, #0, 10
    267c:	0000083d 	andeq	r0, r0, sp, lsr r8
    2680:	09261914 	stmdbeq	r6!, {r2, r4, r8, fp, ip}
    2684:	6d050000 	stcvs	0, cr0, [r5, #-0]
    2688:	00006c02 	andeq	r6, r0, r2, lsl #24
    268c:	14193000 	ldrne	r3, [r9], #-0
    2690:	05000009 	streq	r0, [r0, #-9]
    2694:	0852026e 	ldmdaeq	r2, {r1, r2, r3, r5, r6, r9}^
    2698:	19340000 	ldmdbne	r4!, {}	; <UNPREDICTABLE>
    269c:	00000868 	andeq	r0, r0, r8, ror #16
    26a0:	6c027005 	stcvs	0, cr7, [r2], {5}
    26a4:	38000000 	stmdacc	r0, {}	; <UNPREDICTABLE>
    26a8:	00091c19 	andeq	r1, r9, r9, lsl ip
    26ac:	02720500 	rsbseq	r0, r2, #0, 10
    26b0:	00000863 	andeq	r0, r0, r3, ror #16
    26b4:	07f5193c 			; <UNDEFINED> instruction: 0x07f5193c
    26b8:	75050000 	strvc	r0, [r5, #-0]
    26bc:	00018a02 	andeq	r8, r1, r2, lsl #20
    26c0:	79194000 	ldmdbvc	r9, {lr}
    26c4:	05000007 	streq	r0, [r0, #-7]
    26c8:	006c0276 	rsbeq	r0, ip, r6, ror r2
    26cc:	19440000 	stmdbne	r4, {}^	; <UNPREDICTABLE>
    26d0:	00000a8c 	andeq	r0, r0, ip, lsl #21
    26d4:	8a027705 	bhi	a02f0 <__bss_end+0x8a7b8>
    26d8:	48000001 	stmdami	r0, {r0}
    26dc:	00087a19 	andeq	r7, r8, r9, lsl sl
    26e0:	02780500 	rsbseq	r0, r8, #0, 10
    26e4:	00000869 	andeq	r0, r0, r9, ror #16
    26e8:	0797194c 	ldreq	r1, [r7, ip, asr #18]
    26ec:	7b050000 	blvc	1426f4 <__bss_end+0x12cbbc>
    26f0:	00006c02 	andeq	r6, r0, r2, lsl #24
    26f4:	df195000 	svcle	0x00195000
    26f8:	05000006 	streq	r0, [r0, #-6]
    26fc:	0574027c 	ldrbeq	r0, [r4, #-636]!	; 0xfffffd84
    2700:	19540000 	ldmdbne	r4, {}^	; <UNPREDICTABLE>
    2704:	000008a0 	andeq	r0, r0, r0, lsr #17
    2708:	1b029f05 	blne	aa324 <__bss_end+0x947ec>
    270c:	58000008 	stmdapl	r0, {r3}
    2710:	0008561a 	andeq	r5, r8, sl, lsl r6
    2714:	02a30500 	adceq	r0, r3, #0, 10
    2718:	000002a7 	andeq	r0, r0, r7, lsr #5
    271c:	ac1a0148 	ldfges	f0, [sl], {72}	; 0x48
    2720:	05000007 	streq	r0, [r0, #-7]
    2724:	026902a4 	rsbeq	r0, r9, #164, 4	; 0x4000000a
    2728:	014c0000 	mrseq	r0, (UNDEF: 76)
    272c:	000a2e1a 	andeq	r2, sl, sl, lsl lr
    2730:	02a80500 	adceq	r0, r8, #0, 10
    2734:	0000087a 	andeq	r0, r0, sl, ror r8
    2738:	b81a02dc 	ldmdalt	sl, {r2, r3, r4, r6, r7, r9}
    273c:	05000006 	streq	r0, [r0, #-6]
    2740:	062002ad 	strteq	r0, [r0], -sp, lsr #5
    2744:	02e00000 	rsceq	r0, r0, #0
    2748:	00069d1a 	andeq	r9, r6, sl, lsl sp
    274c:	02af0500 	adceq	r0, pc, #0, 10
    2750:	00000886 	andeq	r0, r0, r6, lsl #17
    2754:	080002ec 	stmdaeq	r0, {r2, r3, r5, r6, r7, r9}
    2758:	00057a04 	andeq	r7, r5, r4, lsl #20
    275c:	08010200 	stmdaeq	r1, {r9}
    2760:	0000089b 	muleq	r0, fp, r8
    2764:	00057a03 	andeq	r7, r5, r3, lsl #20
    2768:	19040800 	stmdbne	r4, {fp}
    276c:	16000004 	strne	r0, [r0], -r4
    2770:	0000006c 	andeq	r0, r0, ip, rrx
    2774:	000005aa 	andeq	r0, r0, sl, lsr #11
    2778:	00043717 	andeq	r3, r4, r7, lsl r7
    277c:	008c1700 	addeq	r1, ip, r0, lsl #14
    2780:	aa170000 	bge	5c2788 <__bss_end+0x5acc50>
    2784:	17000005 	strne	r0, [r0, -r5]
    2788:	0000006c 	andeq	r0, r0, ip, rrx
    278c:	81040800 	tsthi	r4, r0, lsl #16
    2790:	08000005 	stmdaeq	r0, {r0, r2}
    2794:	00058c04 	andeq	r8, r5, r4, lsl #24
    2798:	00af1600 	adceq	r1, pc, r0, lsl #12
    279c:	05d40000 	ldrbeq	r0, [r4]
    27a0:	37170000 	ldrcc	r0, [r7, -r0]
    27a4:	17000004 	strne	r0, [r0, -r4]
    27a8:	0000008c 	andeq	r0, r0, ip, lsl #1
    27ac:	0000af17 	andeq	sl, r0, r7, lsl pc
    27b0:	006c1700 	rsbeq	r1, ip, r0, lsl #14
    27b4:	08000000 	stmdaeq	r0, {}	; <UNPREDICTABLE>
    27b8:	0005b604 	andeq	fp, r5, r4, lsl #12
    27bc:	006c1600 	rsbeq	r1, ip, r0, lsl #12
    27c0:	05ee0000 	strbeq	r0, [lr, #0]!
    27c4:	37170000 	ldrcc	r0, [r7, -r0]
    27c8:	17000004 	strne	r0, [r0, -r4]
    27cc:	0000008c 	andeq	r0, r0, ip, lsl #1
    27d0:	da040800 	ble	1047d8 <__bss_end+0xeeca0>
    27d4:	0d000005 	stceq	0, cr0, [r0, #-20]	; 0xffffffec
    27d8:	00000031 	andeq	r0, r0, r1, lsr r0
    27dc:	00000604 	andeq	r0, r0, r4, lsl #12
    27e0:	0000730e 	andeq	r7, r0, lr, lsl #6
    27e4:	0d000200 	sfmeq	f0, 4, [r0, #-0]
    27e8:	00000031 	andeq	r0, r0, r1, lsr r0
    27ec:	00000614 	andeq	r0, r0, r4, lsl r6
    27f0:	0000730e 	andeq	r7, r0, lr, lsl #6
    27f4:	0a000000 	beq	27fc <_start-0x5804>
    27f8:	000008cf 	andeq	r0, r0, pc, asr #17
    27fc:	ef011f05 	svc	0x00011f05
    2800:	1b000002 	blne	2810 <_start-0x57f0>
    2804:	00000a15 	andeq	r0, r0, r5, lsl sl
    2808:	0123050c 			; <UNDEFINED> instruction: 0x0123050c
    280c:	00000655 	andeq	r0, r0, r5, asr r6
    2810:	0008f719 	andeq	pc, r8, r9, lsl r7	; <UNPREDICTABLE>
    2814:	01250500 			; <UNDEFINED> instruction: 0x01250500
    2818:	00000655 	andeq	r0, r0, r5, asr r6
    281c:	07a51900 	streq	r1, [r5, r0, lsl #18]!
    2820:	26050000 	strcs	r0, [r5], -r0
    2824:	00006c01 	andeq	r6, r0, r1, lsl #24
    2828:	c9190400 	ldmdbgt	r9, {sl}
    282c:	05000008 	streq	r0, [r0, #-8]
    2830:	065b0127 	ldrbeq	r0, [fp], -r7, lsr #2
    2834:	00080000 	andeq	r0, r8, r0
    2838:	06200408 	strteq	r0, [r0], -r8, lsl #8
    283c:	04080000 	streq	r0, [r8], #-0
    2840:	00000614 	andeq	r0, r0, r4, lsl r6
    2844:	0005fd1b 	andeq	pc, r5, fp, lsl sp	; <UNPREDICTABLE>
    2848:	3f050e00 	svccc	0x00050e00
    284c:	00069601 	andeq	r9, r6, r1, lsl #12
    2850:	094e1900 	stmdbeq	lr, {r8, fp, ip}^
    2854:	40050000 	andmi	r0, r5, r0
    2858:	00069601 	andeq	r9, r6, r1, lsl #12
    285c:	95190000 	ldrls	r0, [r9, #-0]
    2860:	05000009 	streq	r0, [r0, #-9]
    2864:	06960141 	ldreq	r0, [r6], r1, asr #2
    2868:	19060000 	stmdbne	r6, {}	; <UNPREDICTABLE>
    286c:	000009b1 			; <UNDEFINED> instruction: 0x000009b1
    2870:	3f014205 	svccc	0x00014205
    2874:	0c000000 	stceq	0, cr0, [r0], {-0}
    2878:	003f0d00 	eorseq	r0, pc, r0, lsl #26
    287c:	06a60000 	strteq	r0, [r6], r0
    2880:	730e0000 	movwvc	r0, #57344	; 0xe000
    2884:	02000000 	andeq	r0, r0, #0
    2888:	05d01c00 	ldrbeq	r1, [r0, #3072]	; 0xc00
    288c:	07a70280 	streq	r0, [r7, r0, lsl #5]!
    2890:	e9190000 	ldmdb	r9, {}	; <UNPREDICTABLE>
    2894:	05000009 	streq	r0, [r0, #-9]
    2898:	00730282 	rsbseq	r0, r3, r2, lsl #5
    289c:	19000000 	stmdbne	r0, {}	; <UNPREDICTABLE>
    28a0:	0000099b 	muleq	r0, fp, r9
    28a4:	74028305 	strvc	r8, [r2], #-773	; 0xfffffcfb
    28a8:	04000005 	streq	r0, [r0], #-5
    28ac:	0007e819 	andeq	lr, r7, r9, lsl r8
    28b0:	02840500 	addeq	r0, r4, #0, 10
    28b4:	000007a7 	andeq	r0, r0, r7, lsr #15
    28b8:	0a631908 	beq	18c8ce0 <__bss_end+0x18b31a8>
    28bc:	85050000 	strhi	r0, [r5, #-0]
    28c0:	0001a002 	andeq	sl, r1, r2
    28c4:	64192400 	ldrvs	r2, [r9], #-1024	; 0xfffffc00
    28c8:	05000007 	streq	r0, [r0, #-7]
    28cc:	006c0286 	rsbeq	r0, ip, r6, lsl #5
    28d0:	19480000 	stmdbne	r8, {}^	; <UNPREDICTABLE>
    28d4:	000008f2 	strdeq	r0, [r0], -r2
    28d8:	65028705 	strvs	r8, [r2, #-1797]	; 0xfffff8fb
    28dc:	50000000 	andpl	r0, r0, r0
    28e0:	000a7919 	andeq	r7, sl, r9, lsl r9
    28e4:	02880500 	addeq	r0, r8, #0, 10
    28e8:	00000661 	andeq	r0, r0, r1, ror #12
    28ec:	08fd1958 	ldmeq	sp!, {r3, r4, r6, r8, fp, ip}^
    28f0:	89050000 	stmdbhi	r5, {}	; <UNPREDICTABLE>
    28f4:	00011602 	andeq	r1, r1, r2, lsl #12
    28f8:	7e196800 	cdpvc	8, 1, cr6, cr9, cr0, {0}
    28fc:	0500000a 	streq	r0, [r0, #-10]
    2900:	0116028a 	tsteq	r6, sl, lsl #5
    2904:	19700000 	ldmdbne	r0!, {}^	; <UNPREDICTABLE>
    2908:	00000884 	andeq	r0, r0, r4, lsl #17
    290c:	16028b05 	strne	r8, [r2], -r5, lsl #22
    2910:	78000001 	stmdavc	r0, {r0}
    2914:	000a2419 	andeq	r2, sl, r9, lsl r4
    2918:	028c0500 	addeq	r0, ip, #0, 10
    291c:	000007b7 			; <UNDEFINED> instruction: 0x000007b7
    2920:	07dc1980 	ldrbeq	r1, [ip, r0, lsl #19]
    2924:	8d050000 	stchi	0, cr0, [r5, #-0]
    2928:	0007c702 	andeq	ip, r7, r2, lsl #14
    292c:	c9198800 	ldmdbgt	r9, {fp, pc}
    2930:	05000009 	streq	r0, [r0, #-9]
    2934:	006c028e 	rsbeq	r0, ip, lr, lsl #5
    2938:	19a00000 	stmibne	r0!, {}	; <UNPREDICTABLE>
    293c:	00000716 	andeq	r0, r0, r6, lsl r7
    2940:	16028f05 	strne	r8, [r2], -r5, lsl #30
    2944:	a4000001 	strge	r0, [r0], #-1
    2948:	00066f19 	andeq	r6, r6, r9, lsl pc
    294c:	02900500 	addseq	r0, r0, #0, 10
    2950:	00000116 	andeq	r0, r0, r6, lsl r1
    2954:	070519ac 	streq	r1, [r5, -ip, lsr #19]
    2958:	91050000 	mrsls	r0, (UNDEF: 5)
    295c:	00011602 	andeq	r1, r1, r2, lsl #12
    2960:	1619b400 	ldrne	fp, [r9], -r0, lsl #8
    2964:	05000006 	streq	r0, [r0, #-6]
    2968:	01160292 			; <UNDEFINED> instruction: 0x01160292
    296c:	19bc0000 	ldmibne	ip!, {}	; <UNPREDICTABLE>
    2970:	00000625 	andeq	r0, r0, r5, lsr #12
    2974:	16029305 	strne	r9, [r2], -r5, lsl #6
    2978:	c4000001 	strgt	r0, [r0], #-1
    297c:	0008a519 	andeq	sl, r8, r9, lsl r5
    2980:	02940500 	addseq	r0, r4, #0, 10
    2984:	0000006c 	andeq	r0, r0, ip, rrx
    2988:	7a0d00cc 	bvc	342cc0 <__bss_end+0x32d188>
    298c:	b7000005 	strlt	r0, [r0, -r5]
    2990:	0e000007 	cdpeq	0, 0, cr0, cr0, cr7, {0}
    2994:	00000073 	andeq	r0, r0, r3, ror r0
    2998:	7a0d0019 	bvc	342a04 <__bss_end+0x32cecc>
    299c:	c7000005 	strgt	r0, [r0, -r5]
    29a0:	0e000007 	cdpeq	0, 0, cr0, cr0, cr7, {0}
    29a4:	00000073 	andeq	r0, r0, r3, ror r0
    29a8:	7a0d0007 	bvc	3429cc <__bss_end+0x32ce94>
    29ac:	d7000005 	strle	r0, [r0, -r5]
    29b0:	0e000007 	cdpeq	0, 0, cr0, cr0, cr7, {0}
    29b4:	00000073 	andeq	r0, r0, r3, ror r0
    29b8:	f01c0017 			; <UNDEFINED> instruction: 0xf01c0017
    29bc:	fb029905 	blx	a8dda <__bss_end+0x932a2>
    29c0:	19000007 	stmdbne	r0, {r0, r1, r2}
    29c4:	00000846 	andeq	r0, r0, r6, asr #16
    29c8:	fb029c05 	blx	a99e6 <__bss_end+0x93eae>
    29cc:	00000007 	andeq	r0, r0, r7
    29d0:	000a1b19 	andeq	r1, sl, r9, lsl fp
    29d4:	029d0500 	addseq	r0, sp, #0, 10
    29d8:	0000080b 	andeq	r0, r0, fp, lsl #16
    29dc:	e90d0078 	stmdb	sp, {r3, r4, r5, r6}
    29e0:	0b000002 	bleq	29f0 <_start-0x5610>
    29e4:	0e000008 	cdpeq	0, 0, cr0, cr0, cr8, {0}
    29e8:	00000073 	andeq	r0, r0, r3, ror r0
    29ec:	730d001d 	movwvc	r0, #53277	; 0xd01d
    29f0:	1b000000 	blne	29f8 <_start-0x5608>
    29f4:	0e000008 	cdpeq	0, 0, cr0, cr0, cr8, {0}
    29f8:	00000073 	andeq	r0, r0, r3, ror r0
    29fc:	f01d001d 			; <UNDEFINED> instruction: 0xf01d001d
    2a00:	3d027e05 	stccc	14, cr7, [r2, #-20]	; 0xffffffec
    2a04:	1e000008 	cdpne	0, 0, cr0, cr0, cr8, {0}
    2a08:	00000947 	andeq	r0, r0, r7, asr #18
    2a0c:	a6029505 	strge	r9, [r2], -r5, lsl #10
    2a10:	1e000006 	cdpne	0, 0, cr0, cr0, cr6, {0}
    2a14:	00000a50 	andeq	r0, r0, r0, asr sl
    2a18:	d7029e05 	strle	r9, [r2, -r5, lsl #28]
    2a1c:	00000007 	andeq	r0, r0, r7
    2a20:	00057a0d 	andeq	r7, r5, sp, lsl #20
    2a24:	00084d00 	andeq	r4, r8, r0, lsl #26
    2a28:	00730e00 	rsbseq	r0, r3, r0, lsl #28
    2a2c:	00180000 	andseq	r0, r8, r0
    2a30:	00065609 	andeq	r5, r6, r9, lsl #12
    2a34:	4d040800 	stcmi	8, cr0, [r4, #-0]
    2a38:	1f000008 	svcne	0x00000008
    2a3c:	00000863 	andeq	r0, r0, r3, ror #16
    2a40:	00043717 	andeq	r3, r4, r7, lsl r7
    2a44:	04080000 	streq	r0, [r8], #-0
    2a48:	00000858 	andeq	r0, r0, r8, asr r8
    2a4c:	018a0408 	orreq	r0, sl, r8, lsl #8
    2a50:	7a1f0000 	bvc	7c2a58 <__bss_end+0x7acf20>
    2a54:	17000008 	strne	r0, [r0, -r8]
    2a58:	0000006c 	andeq	r0, r0, ip, rrx
    2a5c:	80040800 	andhi	r0, r4, r0, lsl #16
    2a60:	08000008 	stmdaeq	r0, {r3}
    2a64:	00086f04 	andeq	r6, r8, r4, lsl #30
    2a68:	06140d00 	ldreq	r0, [r4], -r0, lsl #26
    2a6c:	08960000 	ldmeq	r6, {}	; <UNPREDICTABLE>
    2a70:	730e0000 	movwvc	r0, #57344	; 0xe000
    2a74:	02000000 	andeq	r0, r0, #0
    2a78:	09dd2000 	ldmibeq	sp, {sp}^
    2a7c:	2e050000 	cdpcs	0, 0, cr0, cr5, cr0, {0}
    2a80:	00043703 	andeq	r3, r4, r3, lsl #14
    2a84:	09d62000 	ldmibeq	r6, {sp}^
    2a88:	2f050000 	svccs	0x00050000
    2a8c:	00043d03 	andeq	r3, r4, r3, lsl #26
    2a90:	085e2100 	ldmdaeq	lr, {r8, sp}^
    2a94:	63060000 	movwvs	r0, #24576	; 0x6000
    2a98:	00000574 	andeq	r0, r0, r4, ror r5
    2a9c:	00007c06 	andeq	r7, r0, r6, lsl #24
    2aa0:	c4470700 	strbgt	r0, [r7], #-1792	; 0xfffff900
    2aa4:	08000008 	stmdaeq	r0, {r3}
    2aa8:	0008ca04 	andeq	ip, r8, r4, lsl #20
    2aac:	08d51f00 	ldmeq	r5, {r8, r9, sl, fp, ip}^
    2ab0:	8c170000 	ldchi	0, cr0, [r7], {-0}
    2ab4:	00000000 	andeq	r0, r0, r0
    2ab8:	00001c06 	andeq	r1, r0, r6, lsl #24
    2abc:	52610800 	rsbpl	r0, r1, #0, 16
    2ac0:	04000000 	streq	r0, [r0], #-0
    2ac4:	000008d5 	ldrdeq	r0, [r0], -r5
    2ac8:	00109e06 	andseq	r9, r0, r6, lsl #28
    2acc:	f0570900 			; <UNDEFINED> instruction: 0xf0570900
    2ad0:	08000008 	stmdaeq	r0, {r3}
    2ad4:	0008f604 	andeq	pc, r8, r4, lsl #12
    2ad8:	00461600 	subeq	r1, r6, r0, lsl #12
    2adc:	09050000 	stmdbeq	r5, {}	; <UNPREDICTABLE>
    2ae0:	8c170000 	ldchi	0, cr0, [r7], {-0}
    2ae4:	00000000 	andeq	r0, r0, r0
    2ae8:	00034411 	andeq	r4, r3, r1, lsl r4
    2aec:	690a1400 	stmdbvs	sl, {sl, ip}
    2af0:	0000094e 	andeq	r0, r0, lr, asr #18
    2af4:	0002f710 	andeq	pc, r2, r0, lsl r7	; <UNPREDICTABLE>
    2af8:	d56b0a00 	strble	r0, [fp, #-2560]!	; 0xfffff600
    2afc:	00000008 	andeq	r0, r0, r8
    2b00:	0004a910 	andeq	sl, r4, r0, lsl r9
    2b04:	536c0a00 	cmnpl	ip, #0, 20
    2b08:	04000009 	streq	r0, [r0], #-9
    2b0c:	0003c010 	andeq	ip, r3, r0, lsl r0
    2b10:	536d0a00 	cmnpl	sp, #0, 20
    2b14:	08000009 	stmdaeq	r0, {r0, r3}
    2b18:	00031910 	andeq	r1, r3, r0, lsl r9
    2b1c:	8c6e0a00 			; <UNDEFINED> instruction: 0x8c6e0a00
    2b20:	0c000000 	stceq	0, cr0, [r0], {-0}
    2b24:	0002cf10 	andeq	ip, r2, r0, lsl pc
    2b28:	8c6f0a00 			; <UNDEFINED> instruction: 0x8c6f0a00
    2b2c:	10000000 	andne	r0, r0, r0
    2b30:	09050400 	stmdbeq	r5, {sl}
    2b34:	04080000 	streq	r0, [r8], #-0
    2b38:	0000094e 	andeq	r0, r0, lr, asr #18
    2b3c:	0004db06 	andeq	sp, r4, r6, lsl #22
    2b40:	05710a00 	ldrbeq	r0, [r1, #-2560]!	; 0xfffff600
    2b44:	04000009 	streq	r0, [r0], #-9
    2b48:	00000959 	andeq	r0, r0, r9, asr r9
    2b4c:	00054411 	andeq	r4, r5, r1, lsl r4
    2b50:	730a0c00 	movwvc	r0, #44032	; 0xac00
    2b54:	0000099a 	muleq	r0, sl, r9
    2b58:	0002f710 	andeq	pc, r2, r0, lsl r7	; <UNPREDICTABLE>
    2b5c:	d5750a00 	ldrble	r0, [r5, #-2560]!	; 0xfffff600
    2b60:	00000008 	andeq	r0, r0, r8
    2b64:	0004a910 	andeq	sl, r4, r0, lsl r9
    2b68:	53760a00 	cmnpl	r6, #0, 20
    2b6c:	04000009 	streq	r0, [r0], #-9
    2b70:	0003c010 	andeq	ip, r3, r0, lsl r0
    2b74:	53770a00 	cmnpl	r7, #0, 20
    2b78:	08000009 	stmdaeq	r0, {r0, r3}
    2b7c:	04300600 	ldrteq	r0, [r0], #-1536	; 0xfffffa00
    2b80:	790a0000 	stmdbvc	sl, {}	; <UNPREDICTABLE>
    2b84:	00000969 	andeq	r0, r0, r9, ror #18
    2b88:	00099a04 	andeq	r9, r9, r4, lsl #20
    2b8c:	05541100 	ldrbeq	r1, [r4, #-256]	; 0xffffff00
    2b90:	0a140000 	beq	502b98 <__bss_end+0x4ed060>
    2b94:	0009db7e 	andeq	sp, r9, lr, ror fp
    2b98:	044f1000 	strbeq	r1, [pc], #-0	; 2ba0 <_start-0x5460>
    2b9c:	800a0000 	andhi	r0, sl, r0
    2ba0:	00000059 	andeq	r0, r0, r9, asr r0
    2ba4:	02ef1000 	rsceq	r1, pc, #0
    2ba8:	810a0000 	mrshi	r0, (UNDEF: 10)
    2bac:	000009db 	ldrdeq	r0, [r0], -fp
    2bb0:	03101004 	tsteq	r0, #4
    2bb4:	820a0000 	andhi	r0, sl, #0
    2bb8:	000009a5 	andeq	r0, r0, r5, lsr #19
    2bbc:	04080008 	streq	r0, [r8], #-8
    2bc0:	00000964 	andeq	r0, r0, r4, ror #18
    2bc4:	00098606 	andeq	r8, r9, r6, lsl #12
    2bc8:	aa830a00 	bge	fe0c53d0 <_estack+0xf60b53d0>
    2bcc:	03000009 	movweq	r0, #9
    2bd0:	000009e1 	andeq	r0, r0, r1, ror #19
    2bd4:	000fef06 	andeq	lr, pc, r6, lsl #30
    2bd8:	8c630b00 			; <UNDEFINED> instruction: 0x8c630b00
    2bdc:	11000000 	mrsne	r0, (UNDEF: 0)
    2be0:	00000b58 	andeq	r0, r0, r8, asr fp
    2be4:	21680b08 	cmncs	r8, r8, lsl #22
    2be8:	1000000a 	andne	r0, r0, sl
    2bec:	00000b82 	andeq	r0, r0, r2, lsl #23
    2bf0:	00466a0b 	subeq	r6, r6, fp, lsl #20
    2bf4:	10000000 	andne	r0, r0, r0
    2bf8:	00000db0 			; <UNDEFINED> instruction: 0x00000db0
    2bfc:	08d56b0b 	ldmeq	r5, {r0, r1, r3, r8, r9, fp, sp, lr}^
    2c00:	00040000 	andeq	r0, r4, r0
    2c04:	000be706 	andeq	lr, fp, r6, lsl #14
    2c08:	fc6c0b00 	stc2l	11, cr0, [ip], #-0	; <UNPREDICTABLE>
    2c0c:	11000009 	tstne	r0, r9
    2c10:	0000118d 	andeq	r1, r0, sp, lsl #3
    2c14:	5d710b0c 	vldmdbpl	r1!, {d16-d21}
    2c18:	1000000a 	andne	r0, r0, sl
    2c1c:	0000132b 	andeq	r1, r0, fp, lsr #6
    2c20:	008c730b 	addeq	r7, ip, fp, lsl #6
    2c24:	10000000 	andne	r0, r0, r0
    2c28:	000012b4 			; <UNDEFINED> instruction: 0x000012b4
    2c2c:	0052740b 	subseq	r7, r2, fp, lsl #8
    2c30:	10040000 	andne	r0, r4, r0
    2c34:	00000e5a 	andeq	r0, r0, sl, asr lr
    2c38:	0052750b 	subseq	r7, r2, fp, lsl #10
    2c3c:	00080000 	andeq	r0, r8, r0
    2c40:	00117f06 	andseq	r7, r1, r6, lsl #30
    2c44:	2c760b00 			; <UNDEFINED> instruction: 0x2c760b00
    2c48:	0300000a 	movweq	r0, #10
    2c4c:	00000a5d 	andeq	r0, r0, sp, asr sl
    2c50:	002c0408 	eoreq	r0, ip, r8, lsl #8
    2c54:	6d030000 	stcvs	0, cr0, [r3, #-0]
    2c58:	0800000a 	stmdaeq	r0, {r1, r3}
    2c5c:	00005204 	andeq	r5, r0, r4, lsl #4
    2c60:	0de61100 	stfeqe	f1, [r6]
    2c64:	01480000 	mrseq	r0, (UNDEF: 72)
    2c68:	000adf66 	andeq	sp, sl, r6, ror #30
    2c6c:	01401000 	mrseq	r1, (UNDEF: 64)
    2c70:	68010000 	stmdavs	r1, {}	; <UNPREDICTABLE>
    2c74:	00000adf 	ldrdeq	r0, [r0], -pc	; <UNPREDICTABLE>
    2c78:	058a1000 	streq	r1, [sl]
    2c7c:	6e010000 	cdpvs	0, 0, cr0, cr1, cr0, {0}
    2c80:	00000959 	andeq	r0, r0, r9, asr r9
    2c84:	05b71004 	ldreq	r1, [r7, #4]!
    2c88:	6f010000 	svcvs	0x00010000
    2c8c:	00000959 	andeq	r0, r0, r9, asr r9
    2c90:	04721018 	ldrbteq	r1, [r2], #-24	; 0xffffffe8
    2c94:	70010000 	andvc	r0, r1, r0
    2c98:	00000052 	andeq	r0, r0, r2, asr r0
    2c9c:	1232102c 	eorsne	r1, r2, #44	; 0x2c
    2ca0:	71010000 	mrsvc	r0, (UNDEF: 1)
    2ca4:	00000a78 	andeq	r0, r0, r8, ror sl
    2ca8:	0dc91030 	stcleq	0, cr1, [r9, #192]	; 0xc0
    2cac:	72010000 	andvc	r0, r1, #0
    2cb0:	00000ae5 	andeq	r0, r0, r5, ror #21
    2cb4:	12281034 	eorne	r1, r8, #52	; 0x34
    2cb8:	86010000 	strhi	r0, [r1], -r0
    2cbc:	000008e5 	andeq	r0, r0, r5, ror #17
    2cc0:	04080044 	streq	r0, [r8], #-68	; 0xffffffbc
    2cc4:	00000059 	andeq	r0, r0, r9, asr r0
    2cc8:	0000250d 	andeq	r2, r0, sp, lsl #10
    2ccc:	000af500 	andeq	pc, sl, r0, lsl #10
    2cd0:	00730e00 	rsbseq	r0, r3, r0, lsl #28
    2cd4:	000f0000 	andeq	r0, pc, r0
    2cd8:	000ffb06 	andeq	pc, pc, r6, lsl #22
    2cdc:	7e930100 	fmlvcs	f0, f3, f0
    2ce0:	0300000a 	movweq	r0, #10
    2ce4:	00000af5 	strdeq	r0, [r0], -r5
    2ce8:	00029022 	andeq	r9, r2, r2, lsr #32
    2cec:	1c9f0100 	ldfnes	f0, [pc], {0}
    2cf0:	0500000b 	streq	r0, [r0, #-11]
    2cf4:	0147dc03 	cmpeq	r7, r3, lsl #24
    2cf8:	f5040800 			; <UNDEFINED> instruction: 0xf5040800
    2cfc:	0400000a 	streq	r0, [r0], #-10
    2d00:	00000b16 	andeq	r0, r0, r6, lsl fp
    2d04:	0009e10d 	andeq	lr, r9, sp, lsl #2
    2d08:	000b3100 	andeq	r3, fp, r0, lsl #2
    2d0c:	00730e00 	rsbseq	r0, r3, r0, lsl #28
    2d10:	00040000 	andeq	r0, r4, r0
    2d14:	000e4823 	andeq	r4, lr, r3, lsr #16
    2d18:	21a30100 			; <UNDEFINED> instruction: 0x21a30100
    2d1c:	0500000b 	streq	r0, [r0, #-11]
    2d20:	0147e003 	cmpeq	r7, r3
    2d24:	0e8e2300 	cdpeq	3, 8, cr2, cr14, cr0, {0}
    2d28:	a4010000 	strge	r0, [r1], #-0
    2d2c:	000009e1 	andeq	r0, r0, r1, ror #19
    2d30:	48440305 	stmdami	r4, {r0, r2, r8, r9}^
    2d34:	a0230001 	eorge	r0, r3, r1
    2d38:	0100000e 	tsteq	r0, lr
    2d3c:	0009e1a5 	andeq	lr, r9, r5, lsr #3
    2d40:	58030500 	stmdapl	r3, {r8, sl}
    2d44:	23000148 	movwcs	r0, #328	; 0x148
    2d48:	00001249 	andeq	r1, r0, r9, asr #4
    2d4c:	0b7ba601 	bleq	1eec558 <__bss_end+0x1ed6a20>
    2d50:	03050000 	movweq	r0, #20480	; 0x5000
    2d54:	0001486c 	andeq	r4, r1, ip, ror #16
    2d58:	09e10408 	stmibeq	r1!, {r3, sl}^
    2d5c:	75040000 	strvc	r0, [r4, #-0]
    2d60:	0300000b 	movweq	r0, #11
    2d64:	00000b75 	andeq	r0, r0, r5, ror fp
    2d68:	00102a23 	andseq	r2, r0, r3, lsr #20
    2d6c:	7ba70100 	blvc	fe9c3174 <_estack+0xf69b3174>
    2d70:	0500000b 	streq	r0, [r0, #-11]
    2d74:	01487003 	cmpeq	r8, r3
    2d78:	0f602300 	svceq	0x00602300
    2d7c:	a8010000 	stmdage	r1, {}	; <UNPREDICTABLE>
    2d80:	000009e1 	andeq	r0, r0, r1, ror #19
    2d84:	48740305 	ldmdami	r4!, {r0, r2, r8, r9}^
    2d88:	b9230001 	stmdblt	r3!, {r0}
    2d8c:	0100000f 	tsteq	r0, pc
    2d90:	0009e1ac 	andeq	lr, r9, ip, lsr #3
    2d94:	88030500 	stmdahi	r3, {r8, sl}
    2d98:	23000148 	movwcs	r0, #328	; 0x148
    2d9c:	00001010 	andeq	r1, r0, r0, lsl r0
    2da0:	0059ad01 	subseq	sl, r9, r1, lsl #26
    2da4:	03050000 	movweq	r0, #20480	; 0x5000
    2da8:	0001489c 	muleq	r1, ip, r8
    2dac:	000f3423 	andeq	r3, pc, r3, lsr #8
    2db0:	e1b30100 			; <UNDEFINED> instruction: 0xe1b30100
    2db4:	05000009 	streq	r0, [r0, #-9]
    2db8:	0148a003 	cmpeq	r8, r3
    2dbc:	13a72300 			; <UNDEFINED> instruction: 0x13a72300
    2dc0:	be010000 	cdplt	0, 0, cr0, cr1, cr0, {0}
    2dc4:	00000059 	andeq	r0, r0, r9, asr r0
    2dc8:	48b40305 	ldmmi	r4!, {r0, r2, r8, r9}
    2dcc:	1f230001 	svcne	0x00230001
    2dd0:	01000010 	tsteq	r0, r0, lsl r0
    2dd4:	0008e0bf 	strheq	lr, [r8], -pc	; <UNPREDICTABLE>
    2dd8:	b8030500 	stmdalt	r3, {r8, sl}
    2ddc:	23000148 	movwcs	r0, #328	; 0x148
    2de0:	0000125b 	andeq	r1, r0, fp, asr r2
    2de4:	0052c001 	subseq	ip, r2, r1
    2de8:	03050000 	movweq	r0, #20480	; 0x5000
    2dec:	000148bc 			; <UNDEFINED> instruction: 0x000148bc
    2df0:	000e1123 	andeq	r1, lr, r3, lsr #2
    2df4:	59c10100 	stmibpl	r1, {r8}^
    2df8:	05000000 	streq	r0, [r0, #-0]
    2dfc:	0148c003 	cmpeq	r8, r3
    2e00:	0e362300 	cdpeq	3, 3, cr2, cr6, cr0, {0}
    2e04:	c2010000 	andgt	r0, r1, #0
    2e08:	0000004d 	andeq	r0, r0, sp, asr #32
    2e0c:	48c40305 	stmiami	r4, {r0, r2, r8, r9}^
    2e10:	f9230001 			; <UNDEFINED> instruction: 0xf9230001
    2e14:	0100000e 	tsteq	r0, lr
    2e18:	000059c3 	andeq	r5, r0, r3, asr #19
    2e1c:	c8030500 	stmdagt	r3, {r8, sl}
    2e20:	23000148 	movwcs	r0, #328	; 0x148
    2e24:	00000ecd 	andeq	r0, r0, sp, asr #29
    2e28:	0059c401 	subseq	ip, r9, r1, lsl #8
    2e2c:	03050000 	movweq	r0, #20480	; 0x5000
    2e30:	000148cc 	andeq	r4, r1, ip, asr #17
    2e34:	000fd223 	andeq	sp, pc, r3, lsr #4
    2e38:	4dc50100 	stfmie	f0, [r5]
    2e3c:	05000000 	streq	r0, [r0, #-0]
    2e40:	0148d003 	cmpeq	r8, r3
    2e44:	12182300 	andsne	r2, r8, #0, 6
    2e48:	c6010000 	strgt	r0, [r1], -r0
    2e4c:	0000004d 	andeq	r0, r0, sp, asr #32
    2e50:	48d40305 	ldmmi	r4, {r0, r2, r8, r9}^
    2e54:	61230001 			; <UNDEFINED> instruction: 0x61230001
    2e58:	01000011 	tsteq	r0, r1, lsl r0
    2e5c:	000052c7 	andeq	r5, r0, r7, asr #5
    2e60:	d8030500 	stmdale	r3, {r8, sl}
    2e64:	23000148 	movwcs	r0, #328	; 0x148
    2e68:	000010f1 	strdeq	r1, [r0], -r1	; <UNPREDICTABLE>
    2e6c:	08d5c801 	ldmeq	r5, {r0, fp, lr, pc}^
    2e70:	03050000 	movweq	r0, #20480	; 0x5000
    2e74:	0001474c 	andeq	r4, r1, ip, asr #14
    2e78:	00134924 	andseq	r4, r3, r4, lsr #18
    2e7c:	09290100 	stmdbeq	r9!, {r8}
    2e80:	00013490 	muleq	r1, r0, r4
    2e84:	00000034 	andeq	r0, r0, r4, lsr r0
    2e88:	0cbb9c01 	ldceq	12, cr9, [fp], #4
    2e8c:	cd250000 	stcgt	0, cr0, [r5, #-0]
    2e90:	01000013 	tsteq	r0, r3, lsl r0
    2e94:	0b160929 	bleq	585340 <__bss_end+0x56f808>
    2e98:	91020000 	mrsls	r0, (UNDEF: 2)
    2e9c:	1d260074 	stcne	0, cr0, [r6, #-464]!	; 0xfffffe30
    2ea0:	0100000f 	tsteq	r0, pc
    2ea4:	0b16086a 	bleq	585054 <__bss_end+0x56f51c>
    2ea8:	33e00000 	mvncc	r0, #0
    2eac:	00b00001 	adcseq	r0, r0, r1
    2eb0:	9c010000 	stcls	0, cr0, [r1], {-0}
    2eb4:	00000d03 	andeq	r0, r0, r3, lsl #26
    2eb8:	00110625 	andseq	r0, r1, r5, lsr #12
    2ebc:	086a0100 	stmdaeq	sl!, {r8}^
    2ec0:	0000003f 	andeq	r0, r0, pc, lsr r0
    2ec4:	256e9102 	strbcs	r9, [lr, #-258]!	; 0xfffffefe
    2ec8:	000012e8 	andeq	r1, r0, r8, ror #5
    2ecc:	78086a01 	stmdavc	r8, {r0, r9, fp, sp, lr}
    2ed0:	0200000a 	andeq	r0, r0, #10
    2ed4:	cb276891 	blgt	9dd120 <__bss_end+0x9c75e8>
    2ed8:	01000010 	tsteq	r0, r0, lsl r0
    2edc:	0b16086c 	bleq	585094 <__bss_end+0x56f55c>
    2ee0:	91020000 	mrsls	r0, (UNDEF: 2)
    2ee4:	88240074 	stmdahi	r4!, {r2, r4, r5, r6}
    2ee8:	01000013 	tsteq	r0, r3, lsl r0
    2eec:	33280850 			; <UNDEFINED> instruction: 0x33280850
    2ef0:	00b80001 	adcseq	r0, r8, r1
    2ef4:	9c010000 	stcls	0, cr0, [r1], {-0}
    2ef8:	00000d29 	andeq	r0, r0, r9, lsr #26
    2efc:	0004f825 	andeq	pc, r4, r5, lsr #16
    2f00:	08500100 	ldmdaeq	r0, {r8}^
    2f04:	000008d5 	ldrdeq	r0, [r0], -r5
    2f08:	00749102 	rsbseq	r9, r4, r2, lsl #2
    2f0c:	00130b24 	andseq	r0, r3, r4, lsr #22
    2f10:	082d0100 	stmdaeq	sp!, {r8}
    2f14:	0001326c 	andeq	r3, r1, ip, ror #4
    2f18:	000000bc 	strheq	r0, [r0], -ip
    2f1c:	0d729c01 	ldcleq	12, cr9, [r2, #-4]!
    2f20:	78280000 	stmdavc	r8!, {}	; <UNPREDICTABLE>
    2f24:	98000132 	stmdals	r0, {r1, r4, r5, r8}
    2f28:	27000000 	strcs	r0, [r0, -r0]
    2f2c:	000010af 	andeq	r1, r0, pc, lsr #1
    2f30:	46083101 	strmi	r3, [r8], -r1, lsl #2
    2f34:	02000000 	andeq	r0, r0, #0
    2f38:	b8287491 	stmdalt	r8!, {r0, r4, r7, sl, ip, sp, lr}
    2f3c:	58000132 	stmdapl	r0, {r1, r4, r5, r8}
    2f40:	27000000 	strcs	r0, [r0, -r0]
    2f44:	000013cd 	andeq	r1, r0, sp, asr #7
    2f48:	16083d01 	strne	r3, [r8], -r1, lsl #26
    2f4c:	0200000b 	andeq	r0, r0, #11
    2f50:	00007091 	muleq	r0, r1, r0
    2f54:	0f872400 	svceq	0x00872400
    2f58:	0d010000 	stceq	0, cr0, [r1, #-0]
    2f5c:	0131ac08 	teqeq	r1, r8, lsl #24
    2f60:	0000c000 	andeq	ip, r0, r0
    2f64:	989c0100 	ldmls	ip, {r8}
    2f68:	2700000d 	strcs	r0, [r0, -sp]
    2f6c:	00000472 	andeq	r0, r0, r2, ror r4
    2f70:	52080f01 	andpl	r0, r8, #1, 30
    2f74:	02000000 	andeq	r0, r0, #0
    2f78:	24007491 	strcs	r7, [r0], #-1169	; 0xfffffb6f
    2f7c:	000011af 	andeq	r1, r0, pc, lsr #3
    2f80:	ec07b701 	stc	7, cr11, [r7], {1}
    2f84:	c0000130 	andgt	r0, r0, r0, lsr r1
    2f88:	01000000 	mrseq	r0, (UNDEF: 0)
    2f8c:	000dfa9c 	muleq	sp, ip, sl
    2f90:	13cd2500 	bicne	r2, sp, #0, 10
    2f94:	b7010000 	strlt	r0, [r1, -r0]
    2f98:	000b1607 	andeq	r1, fp, r7, lsl #12
    2f9c:	74910200 	ldrvc	r0, [r1], #512	; 0x200
    2fa0:	00112825 	andseq	r2, r1, r5, lsr #16
    2fa4:	07b70100 	ldreq	r0, [r7, r0, lsl #2]!
    2fa8:	00000a73 	andeq	r0, r0, r3, ror sl
    2fac:	25709102 	ldrbcs	r9, [r0, #-258]!	; 0xfffffefe
    2fb0:	00000472 	andeq	r0, r0, r2, ror r4
    2fb4:	5207b701 	andpl	fp, r7, #262144	; 0x40000
    2fb8:	02000000 	andeq	r0, r0, #0
    2fbc:	7f256c91 	svcvc	0x00256c91
    2fc0:	01000013 	tsteq	r0, r3, lsl r0
    2fc4:	0e0007b7 	mcreq	7, 0, r0, cr0, cr7, {5}
    2fc8:	91020000 	mrsls	r0, (UNDEF: 2)
    2fcc:	11062568 	tstne	r6, r8, ror #10
    2fd0:	b7010000 	strlt	r0, [r1, -r0]
    2fd4:	00003f07 	andeq	r3, r0, r7, lsl #30
    2fd8:	00910200 	addseq	r0, r1, r0, lsl #4
    2fdc:	68040800 	stmdavs	r4, {fp}
    2fe0:	0300000a 	movweq	r0, #10
    2fe4:	00000dfa 	strdeq	r0, [r0], -sl
    2fe8:	00109224 	andseq	r9, r0, r4, lsr #4
    2fec:	07760100 	ldrbeq	r0, [r6, -r0, lsl #2]!
    2ff0:	000130bc 	strheq	r3, [r1], -ip
    2ff4:	00000030 	andeq	r0, r0, r0, lsr r0
    2ff8:	0e2b9c01 	cdpeq	12, 2, cr9, cr11, cr1, {0}
    2ffc:	2d250000 	stccs	0, cr0, [r5, #-0]
    3000:	01000001 	tsteq	r0, r1
    3004:	008c0776 	addeq	r0, ip, r6, ror r7
    3008:	91020000 	mrsls	r0, (UNDEF: 2)
    300c:	d7290074 			; <UNDEFINED> instruction: 0xd7290074
    3010:	01000012 	tsteq	r0, r2, lsl r0
    3014:	30940742 	addscc	r0, r4, r2, asr #14
    3018:	00280001 	eoreq	r0, r8, r1
    301c:	9c010000 	stcls	0, cr0, [r1], {-0}
    3020:	00126d2a 	andseq	r6, r2, sl, lsr #26
    3024:	07140100 	ldreq	r0, [r4, -r0, lsl #2]
    3028:	00000046 	andeq	r0, r0, r6, asr #32
    302c:	00012fa0 	andeq	r2, r1, r0, lsr #31
    3030:	000000f4 	strdeq	r0, [r0], -r4
    3034:	0e859c01 	cdpeq	12, 8, cr9, cr5, cr1, {0}
    3038:	2f250000 	svccs	0x00250000
    303c:	01000011 	tsteq	r0, r1, lsl r0
    3040:	0e8b0714 	mcreq	7, 4, r0, cr11, cr4, {0}
    3044:	91020000 	mrsls	r0, (UNDEF: 2)
    3048:	1002256c 	andne	r2, r2, ip, ror #10
    304c:	14010000 	strne	r0, [r1], #-0
    3050:	000e9607 	andeq	r9, lr, r7, lsl #12
    3054:	68910200 	ldmvs	r1, {r9}
    3058:	000bcd27 	andeq	ip, fp, r7, lsr #26
    305c:	07160100 	ldreq	r0, [r6, -r0, lsl #2]
    3060:	00000046 	andeq	r0, r0, r6, asr #32
    3064:	00749102 	rsbseq	r9, r4, r2, lsl #2
    3068:	0a210408 	beq	844090 <__bss_end+0x82e558>
    306c:	85030000 	strhi	r0, [r3, #-0]
    3070:	0800000e 	stmdaeq	r0, {r1, r2, r3}
    3074:	0008d504 	andeq	sp, r8, r4, lsl #10
    3078:	0e900300 	cdpeq	3, 9, cr0, cr0, cr0, {0}
    307c:	672b0000 	strvs	r0, [fp, -r0]!
    3080:	0100000e 	tsteq	r0, lr
    3084:	2f58070c 	svccs	0x0058070c
    3088:	00480001 	subeq	r0, r8, r1
    308c:	9c010000 	stcls	0, cr0, [r1], {-0}
    3090:	00000ec1 	andeq	r0, r0, r1, asr #29
    3094:	00112f25 	andseq	r2, r1, r5, lsr #30
    3098:	070c0100 	streq	r0, [ip, -r0, lsl #2]
    309c:	00000e8b 	andeq	r0, r0, fp, lsl #29
    30a0:	00749102 	rsbseq	r9, r4, r2, lsl #2
    30a4:	00106c2a 	andseq	r6, r0, sl, lsr #24
    30a8:	06d90100 	ldrbeq	r0, [r9], r0, lsl #2
    30ac:	00000046 	andeq	r0, r0, r6, asr #32
    30b0:	00012e40 	andeq	r2, r1, r0, asr #28
    30b4:	00000118 	andeq	r0, r0, r8, lsl r1
    30b8:	0f099c01 	svceq	0x00099c01
    30bc:	5b250000 	blpl	9430c4 <__bss_end+0x92d58c>
    30c0:	01000003 	tsteq	r0, r3
    30c4:	0f0f06d9 	svceq	0x000f06d9
    30c8:	91020000 	mrsls	r0, (UNDEF: 2)
    30cc:	0f0e276c 	svceq	0x000e276c
    30d0:	db010000 	blle	430d8 <__bss_end+0x2d5a0>
    30d4:	000b1606 	andeq	r1, fp, r6, lsl #12
    30d8:	70910200 	addsvc	r0, r1, r0, lsl #4
    30dc:	000bcd27 	andeq	ip, fp, r7, lsr #26
    30e0:	06dc0100 	ldrbeq	r0, [ip], r0, lsl #2
    30e4:	00000046 	andeq	r0, r0, r6, asr #32
    30e8:	00749102 	rsbseq	r9, r4, r2, lsl #2
    30ec:	09ec0408 	stmibeq	ip!, {r3, sl}^
    30f0:	09030000 	stmdbeq	r3, {}	; <UNPREDICTABLE>
    30f4:	2c00000f 	stccs	0, cr0, [r0], {15}
    30f8:	00001044 	andeq	r1, r0, r4, asr #32
    30fc:	a4068701 	strge	r8, [r6], #-1793	; 0xfffff8ff
    3100:	9c00012d 	stflss	f0, [r0], {45}	; 0x2d
    3104:	01000000 	mrseq	r0, (UNDEF: 0)
    3108:	000f589c 	muleq	pc, ip, r8	; <UNPREDICTABLE>
    310c:	035b2500 	cmpeq	fp, #0, 10
    3110:	87010000 	strhi	r0, [r1, -r0]
    3114:	000f0f06 	andeq	r0, pc, r6, lsl #30
    3118:	6c910200 	lfmvs	f0, 4, [r1], {0}
    311c:	00100325 	andseq	r0, r0, r5, lsr #6
    3120:	06870100 	streq	r0, [r7], r0, lsl #2
    3124:	000008d5 	ldrdeq	r0, [r0], -r5
    3128:	27689102 	strbcs	r9, [r8, -r2, lsl #2]!
    312c:	000004f8 	strdeq	r0, [r0], -r8
    3130:	d5068901 	strle	r8, [r6, #-2305]	; 0xfffff6ff
    3134:	02000008 	andeq	r0, r0, #8
    3138:	2b007491 	blcs	20384 <__bss_end+0xa84c>
    313c:	00001205 	andeq	r1, r0, r5, lsl #4
    3140:	9c064b01 			; <UNDEFINED> instruction: 0x9c064b01
    3144:	0800012c 	stmdaeq	r0, {r2, r3, r5, r8}
    3148:	01000001 	tsteq	r0, r1
    314c:	000f889c 	muleq	pc, ip, r8	; <UNPREDICTABLE>
    3150:	2d082800 	stccs	8, cr2, [r8, #-0]
    3154:	00780001 	rsbseq	r0, r8, r1
    3158:	4f270000 	svcmi	0x00270000
    315c:	01000003 	tsteq	r0, r3
    3160:	0b80067c 	bleq	fe004b58 <_estack+0xf5ff4b58>
    3164:	91020000 	mrsls	r0, (UNDEF: 2)
    3168:	2a000074 	bcs	3340 <_start-0x4cc0>
    316c:	000011d5 	ldrdeq	r1, [r0], -r5
    3170:	46062d01 	strmi	r2, [r6], -r1, lsl #26
    3174:	20000000 	andcs	r0, r0, r0
    3178:	7c00012c 	stfvcs	f0, [r0], {44}	; 0x2c
    317c:	01000000 	mrseq	r0, (UNDEF: 0)
    3180:	000fdf9c 	muleq	pc, ip, pc	; <UNPREDICTABLE>
    3184:	10662500 	rsbne	r2, r6, r0, lsl #10
    3188:	2d010000 	stccs	0, cr0, [r1, #-0]
    318c:	0009f106 	andeq	pc, r9, r6, lsl #2
    3190:	6c910200 	lfmvs	f0, 4, [r1], {0}
    3194:	00137325 	andseq	r7, r3, r5, lsr #6
    3198:	062d0100 	strteq	r0, [sp], -r0, lsl #2
    319c:	0000008c 	andeq	r0, r0, ip, lsl #1
    31a0:	27689102 	strbcs	r9, [r8, -r2, lsl #2]!
    31a4:	000013ce 	andeq	r1, r0, lr, asr #7
    31a8:	16062f01 	strne	r2, [r6], -r1, lsl #30
    31ac:	0200000b 	andeq	r0, r0, #11
    31b0:	cd277491 	cfstrsgt	mvf7, [r7, #-580]!	; 0xfffffdbc
    31b4:	0100000b 	tsteq	r0, fp
    31b8:	00460630 	subeq	r0, r6, r0, lsr r6
    31bc:	91020000 	mrsls	r0, (UNDEF: 2)
    31c0:	9e2a0070 	mcrls	0, 1, r0, cr10, cr0, {3}
    31c4:	0100000f 	tsteq	r0, pc
    31c8:	08e50610 	stmiaeq	r5!, {r4, r9, sl}^
    31cc:	2bc40000 	blcs	ff1031d4 <_estack+0xf70f31d4>
    31d0:	005c0001 	subseq	r0, ip, r1
    31d4:	9c010000 	stcls	0, cr0, [r1], {-0}
    31d8:	00001027 	andeq	r1, r0, r7, lsr #32
    31dc:	00106625 	andseq	r6, r0, r5, lsr #12
    31e0:	06100100 	ldreq	r0, [r0], -r0, lsl #2
    31e4:	000009f1 	strdeq	r0, [r0], -r1
    31e8:	276c9102 	strbcs	r9, [ip, -r2, lsl #2]!
    31ec:	000013ce 	andeq	r1, r0, lr, asr #7
    31f0:	16061201 	strne	r1, [r6], -r1, lsl #4
    31f4:	0200000b 	andeq	r0, r0, #11
    31f8:	cd277491 	cfstrsgt	mvf7, [r7, #-580]!	; 0xfffffdbc
    31fc:	0100000b 	tsteq	r0, fp
    3200:	08e50613 	stmiaeq	r5!, {r0, r1, r4, r9, sl}^
    3204:	91020000 	mrsls	r0, (UNDEF: 2)
    3208:	b22c0070 	eorlt	r0, ip, #112	; 0x70
    320c:	0100000e 	tsteq	r0, lr
    3210:	2b6805f6 	blcs	1a049f0 <__bss_end+0x19eeeb8>
    3214:	005c0001 	subseq	r0, ip, r1
    3218:	9c010000 	stcls	0, cr0, [r1], {-0}
    321c:	0000106b 	andeq	r1, r0, fp, rrx
    3220:	00106625 	andseq	r6, r0, r5, lsr #12
    3224:	05f60100 	ldrbeq	r0, [r6, #256]!	; 0x100
    3228:	000009f1 	strdeq	r0, [r0], -r1
    322c:	256c9102 	strbcs	r9, [ip, #-258]!	; 0xfffffefe
    3230:	000010bc 	strheq	r1, [r0], -ip
    3234:	e505f601 	str	pc, [r5, #-1537]	; 0xfffff9ff
    3238:	02000008 	andeq	r0, r0, #8
    323c:	ce276891 	mcrgt	8, 1, r6, cr7, cr1, {4}
    3240:	01000013 	tsteq	r0, r3, lsl r0
    3244:	0b1605f8 	bleq	584a2c <__bss_end+0x56eef4>
    3248:	91020000 	mrsls	r0, (UNDEF: 2)
    324c:	9c2c0074 	stcls	0, cr0, [ip], #-464	; 0xfffffe30
    3250:	01000011 	tsteq	r0, r1, lsl r0
    3254:	294c05a9 	stmdbcs	ip, {r0, r3, r5, r7, r8, sl}^
    3258:	021c0001 	andseq	r0, ip, #1
    325c:	9c010000 	stcls	0, cr0, [r1], {-0}
    3260:	000010c7 	andeq	r1, r0, r7, asr #1
    3264:	0013cd27 	andseq	ip, r3, r7, lsr #26
    3268:	05ab0100 	streq	r0, [fp, #256]!	; 0x100
    326c:	00000b16 	andeq	r0, r0, r6, lsl fp
    3270:	2d709102 	ldfcsp	f1, [r0, #-8]!
    3274:	0001298c 	andeq	r2, r1, ip, lsl #19
    3278:	00000084 	andeq	r0, r0, r4, lsl #1
    327c:	000010ad 	andeq	r1, r0, sp, lsr #1
    3280:	0002ad27 	andeq	sl, r2, r7, lsr #26
    3284:	05b50100 	ldreq	r0, [r5, #256]!	; 0x100
    3288:	00000b75 	andeq	r0, r0, r5, ror fp
    328c:	00749102 	rsbseq	r9, r4, r2, lsl #2
    3290:	012a1028 			; <UNDEFINED> instruction: 0x012a1028
    3294:	00011000 	andeq	r1, r1, r0
    3298:	02f72700 	rscseq	r2, r7, #0, 14
    329c:	d6010000 	strle	r0, [r1], -r0
    32a0:	0008d505 	andeq	sp, r8, r5, lsl #10
    32a4:	6c910200 	lfmvs	f0, 4, [r1], {0}
    32a8:	fa2e0000 	blx	b832b0 <__bss_end+0xb6d778>
    32ac:	0100000d 	tsteq	r0, sp
    32b0:	005204f7 	ldrsheq	r0, [r2], #-71	; 0xffffffb9
    32b4:	29280000 	stmdbcs	r8!, {}	; <UNPREDICTABLE>
    32b8:	00240001 	eoreq	r0, r4, r1
    32bc:	9c010000 	stcls	0, cr0, [r1], {-0}
    32c0:	000f472f 	andeq	r4, pc, pc, lsr #14
    32c4:	04ea0100 	strbteq	r0, [sl], #256	; 0x100
    32c8:	000008d5 	ldrdeq	r0, [r0], -r5
    32cc:	000128f0 	strdeq	r2, [r1], -r0
    32d0:	00000038 	andeq	r0, r0, r8, lsr r0
    32d4:	11169c01 	tstne	r6, r1, lsl #24
    32d8:	cd270000 	stcgt	0, cr0, [r7, #-0]
    32dc:	0100000b 	tsteq	r0, fp
    32e0:	08d504ec 	ldmeq	r5, {r2, r3, r5, r6, r7, sl}^
    32e4:	91020000 	mrsls	r0, (UNDEF: 2)
    32e8:	0b912770 	bleq	fe44d0b0 <_estack+0xf643d0b0>
    32ec:	ed010000 	stc	0, cr0, [r1, #-0]
    32f0:	00005204 	andeq	r5, r0, r4, lsl #4
    32f4:	74910200 	ldrvc	r0, [r1], #512	; 0x200
    32f8:	10df2a00 	sbcsne	r2, pc, r0, lsl #20
    32fc:	db010000 	blle	43304 <__bss_end+0x2d7cc>
    3300:	0008d504 	andeq	sp, r8, r4, lsl #10
    3304:	0128bc00 			; <UNDEFINED> instruction: 0x0128bc00
    3308:	00003400 	andeq	r3, r0, r0, lsl #8
    330c:	409c0100 	addsmi	r0, ip, r0, lsl #2
    3310:	27000011 	smladcs	r0, r1, r0, r0
    3314:	00001113 	andeq	r1, r0, r3, lsl r1
    3318:	d504dd01 	strle	sp, [r4, #-3329]	; 0xfffff2ff
    331c:	02000008 	andeq	r0, r0, #8
    3320:	2a007491 	bcs	2056c <__bss_end+0xaa34>
    3324:	0000123a 	andeq	r1, r0, sl, lsr r2
    3328:	46048401 	strmi	r8, [r4], -r1, lsl #8
    332c:	18000000 	stmdane	r0, {}	; <UNPREDICTABLE>
    3330:	a4000127 	strge	r0, [r0], #-295	; 0xfffffed9
    3334:	01000001 	tsteq	r0, r1
    3338:	0011919c 	mulseq	r1, ip, r1
    333c:	13cd2700 	bicne	r2, sp, #0, 14
    3340:	86010000 	strhi	r0, [r1], -r0
    3344:	000b1604 	andeq	r1, fp, r4, lsl #12
    3348:	27540100 	ldrbcs	r0, [r4, -r0, lsl #2]
    334c:	00001363 	andeq	r1, r0, r3, ror #6
    3350:	46048701 	strmi	r8, [r4], -r1, lsl #14
    3354:	02000000 	andeq	r0, r0, #0
    3358:	64286c91 	strtvs	r6, [r8], #-3217	; 0xfffff36f
    335c:	24000127 	strcs	r0, [r0], #-295	; 0xfffffed9
    3360:	27000001 	strcs	r0, [r0, -r1]
    3364:	00000eea 	andeq	r0, r0, sl, ror #29
    3368:	46049a01 	strmi	r9, [r4], -r1, lsl #20
    336c:	02000000 	andeq	r0, r0, #0
    3370:	00006891 	muleq	r0, r1, r8
    3374:	000fdf29 	andeq	sp, pc, r9, lsr #30
    3378:	047c0100 	ldrbteq	r0, [ip], #-256	; 0xffffff00
    337c:	000126e8 	andeq	r2, r1, r8, ror #13
    3380:	00000030 	andeq	r0, r0, r0, lsr r0
    3384:	d4309c01 	ldrtle	r9, [r0], #-3073	; 0xfffff3ff
    3388:	0100000d 	tsteq	r0, sp
    338c:	26b00471 	sxtahcs	r0, r0, r1, ror #8
    3390:	00380001 	eorseq	r0, r8, r1
    3394:	9c010000 	stcls	0, cr0, [r1], {-0}
    3398:	0012f72c 	andseq	pc, r2, ip, lsr #14
    339c:	04300100 	ldrteq	r0, [r0], #-256	; 0xffffff00
    33a0:	00012614 	andeq	r2, r1, r4, lsl r6
    33a4:	0000009c 	muleq	r0, ip, r0
    33a8:	11db9c01 	bicsne	r9, fp, r1, lsl #24
    33ac:	cd270000 	stcgt	0, cr0, [r7, #-0]
    33b0:	0100000b 	tsteq	r0, fp
    33b4:	00460432 	subeq	r0, r6, r2, lsr r4
    33b8:	91020000 	mrsls	r0, (UNDEF: 2)
    33bc:	c42a0074 	strtgt	r0, [sl], #-116	; 0xffffff8c
    33c0:	01000012 	tsteq	r0, r2, lsl r0
    33c4:	00460402 	subeq	r0, r6, r2, lsl #8
    33c8:	24f80000 	ldrbtcs	r0, [r8], #0
    33cc:	011c0001 	tsteq	ip, r1
    33d0:	9c010000 	stcls	0, cr0, [r1], {-0}
    33d4:	00001232 	andeq	r1, r0, r2, lsr r2
    33d8:	000edb25 	andeq	sp, lr, r5, lsr #22
    33dc:	04020100 	streq	r0, [r2], #-256	; 0xffffff00
    33e0:	000009f1 	strdeq	r0, [r0], -r1
    33e4:	27649102 	strbcs	r9, [r4, -r2, lsl #2]!
    33e8:	00000eea 	andeq	r0, r0, sl, ror #29
    33ec:	46040401 	strmi	r0, [r4], -r1, lsl #8
    33f0:	02000000 	andeq	r0, r0, #0
    33f4:	cd277491 	cfstrsgt	mvf7, [r7, #-580]!	; 0xfffffdbc
    33f8:	01000013 	tsteq	r0, r3, lsl r0
    33fc:	0b160405 	bleq	584418 <__bss_end+0x56e8e0>
    3400:	91020000 	mrsls	r0, (UNDEF: 2)
    3404:	0b912770 	bleq	fe44d1cc <_estack+0xf643d1cc>
    3408:	06010000 	streq	r0, [r1], -r0
    340c:	00005204 	andeq	r5, r0, r4, lsl #4
    3410:	6c910200 	lfmvs	f0, 4, [r1], {0}
    3414:	13d32c00 	bicsne	r2, r3, #0, 24
    3418:	d5010000 	strle	r0, [r1, #-0]
    341c:	01240003 			; <UNDEFINED> instruction: 0x01240003
    3420:	0000f800 	andeq	pc, r0, r0, lsl #16
    3424:	679c0100 	ldrvs	r0, [ip, r0, lsl #2]
    3428:	25000012 	strcs	r0, [r0, #-18]	; 0xffffffee
    342c:	00000edb 	ldrdeq	r0, [r0], -fp
    3430:	f103d501 			; <UNDEFINED> instruction: 0xf103d501
    3434:	02000009 	andeq	r0, r0, #9
    3438:	cd276c91 	stcgt	12, cr6, [r7, #-580]!	; 0xfffffdbc
    343c:	01000013 	tsteq	r0, r3, lsl r0
    3440:	0b1603d7 	bleq	5843a4 <__bss_end+0x56e86c>
    3444:	91020000 	mrsls	r0, (UNDEF: 2)
    3448:	722f0074 	eorvc	r0, pc, #116	; 0x74
    344c:	0100000f 	tsteq	r0, pc
    3450:	004603b3 	strheq	r0, [r6], #-51	; 0xffffffcd
    3454:	23840000 	orrcs	r0, r4, #0
    3458:	007c0001 	rsbseq	r0, ip, r1
    345c:	9c010000 	stcls	0, cr0, [r1], {-0}
    3460:	000012af 	andeq	r1, r0, pc, lsr #5
    3464:	00106625 	andseq	r6, r0, r5, lsr #12
    3468:	03b30100 			; <UNDEFINED> instruction: 0x03b30100
    346c:	000009f1 	strdeq	r0, [r0], -r1
    3470:	276c9102 	strbcs	r9, [ip, -r2, lsl #2]!
    3474:	00000bcd 	andeq	r0, r0, sp, asr #23
    3478:	4603b501 	strmi	fp, [r3], -r1, lsl #10
    347c:	02000000 	andeq	r0, r0, #0
    3480:	cd277491 	cfstrsgt	mvf7, [r7, #-580]!	; 0xfffffdbc
    3484:	01000013 	tsteq	r0, r3, lsl r0
    3488:	12b503b6 	adcsne	r0, r5, #-671088638	; 0xd8000002
    348c:	91020000 	mrsls	r0, (UNDEF: 2)
    3490:	04080070 	streq	r0, [r8], #-112	; 0xffffff90
    3494:	00000b00 	andeq	r0, r0, r0, lsl #22
    3498:	0012af03 	andseq	sl, r2, r3, lsl #30
    349c:	13562c00 	cmpne	r6, #0, 24
    34a0:	73010000 	movwvc	r0, #4096	; 0x1000
    34a4:	01228003 			; <UNDEFINED> instruction: 0x01228003
    34a8:	00010400 	andeq	r0, r1, r0, lsl #8
    34ac:	ef9c0100 	svc	0x009c0100
    34b0:	25000012 	strcs	r0, [r0, #-18]	; 0xffffffee
    34b4:	00001282 	andeq	r1, r0, r2, lsl #5
    34b8:	f1037301 			; <UNDEFINED> instruction: 0xf1037301
    34bc:	02000009 	andeq	r0, r0, #9
    34c0:	cd276c91 	stcgt	12, cr6, [r7, #-580]!	; 0xfffffdbc
    34c4:	01000013 	tsteq	r0, r3, lsl r0
    34c8:	0b160375 	bleq	5842a4 <__bss_end+0x56e76c>
    34cc:	91020000 	mrsls	r0, (UNDEF: 2)
    34d0:	6e2c0074 	mcrvs	0, 1, r0, cr12, cr4, {3}
    34d4:	01000011 	tsteq	r0, r1, lsl r0
    34d8:	20d80307 	sbcscs	r0, r8, r7, lsl #6
    34dc:	01a80001 			; <UNDEFINED> instruction: 0x01a80001
    34e0:	9c010000 	stcls	0, cr0, [r1], {-0}
    34e4:	00001351 	andeq	r1, r0, r1, asr r3
    34e8:	00106525 	andseq	r6, r0, r5, lsr #10
    34ec:	03070100 	movweq	r0, #28928	; 0x7100
    34f0:	000009f1 	strdeq	r0, [r0], -r1
    34f4:	25649102 	strbcs	r9, [r4, #-258]!	; 0xfffffefe
    34f8:	0000111a 	andeq	r1, r0, sl, lsl r1
    34fc:	52030701 	andpl	r0, r3, #262144	; 0x40000
    3500:	02000000 	andeq	r0, r0, #0
    3504:	cd276091 	stcgt	0, cr6, [r7, #-580]!	; 0xfffffdbc
    3508:	01000013 	tsteq	r0, r3, lsl r0
    350c:	0b160309 	bleq	584138 <__bss_end+0x56e600>
    3510:	91020000 	mrsls	r0, (UNDEF: 2)
    3514:	0e7c2770 	mrceq	7, 3, r2, cr12, cr0, {3}
    3518:	0a010000 	beq	43520 <__bss_end+0x2d9e8>
    351c:	00005203 	andeq	r5, r0, r3, lsl #4
    3520:	6c910200 	lfmvs	f0, 4, [r1], {0}
    3524:	000eea27 	andeq	lr, lr, r7, lsr #20
    3528:	030b0100 	movweq	r0, #45312	; 0xb100
    352c:	00000046 	andeq	r0, r0, r6, asr #32
    3530:	00749102 	rsbseq	r9, r4, r2, lsl #2
    3534:	000e242a 	andeq	r2, lr, sl, lsr #8
    3538:	02f10100 	rscseq	r0, r1, #0, 2
    353c:	00000052 	andeq	r0, r0, r2, asr r0
    3540:	00012080 	andeq	r2, r1, r0, lsl #1
    3544:	00000058 	andeq	r0, r0, r8, asr r0
    3548:	13999c01 	orrsne	r9, r9, #256	; 0x100
    354c:	65250000 	strvs	r0, [r5, #-0]!
    3550:	01000010 	tsteq	r0, r0, lsl r0
    3554:	09f102f1 	ldmibeq	r1!, {r0, r4, r5, r6, r7, r9}^
    3558:	91020000 	mrsls	r0, (UNDEF: 2)
    355c:	13cd276c 	bicne	r2, sp, #108, 14	; 0x1b00000
    3560:	f3010000 	vhadd.u8	d0, d1, d0
    3564:	000b1602 	andeq	r1, fp, r2, lsl #12
    3568:	74910200 	ldrvc	r0, [r1], #512	; 0x200
    356c:	000bcc27 	andeq	ip, fp, r7, lsr #24
    3570:	02f40100 	rscseq	r0, r4, #0, 2
    3574:	00000052 	andeq	r0, r0, r2, asr r0
    3578:	00709102 	rsbseq	r9, r0, r2, lsl #2
    357c:	00105a2c 	andseq	r5, r0, ip, lsr #20
    3580:	02c30100 	sbceq	r0, r3, #0, 2
    3584:	00011ffc 	strdeq	r1, [r1], -ip
    3588:	00000084 	andeq	r0, r0, r4, lsl #1
    358c:	13dd9c01 	bicsne	r9, sp, #256	; 0x100
    3590:	02250000 	eoreq	r0, r5, #0
    3594:	01000003 	tsteq	r0, r3
    3598:	08d502c3 	ldmeq	r5, {r0, r1, r6, r7, r9}^
    359c:	91020000 	mrsls	r0, (UNDEF: 2)
    35a0:	04f8276c 	ldrbteq	r2, [r8], #1900	; 0x76c
    35a4:	c5010000 	strgt	r0, [r1, #-0]
    35a8:	0008d502 	andeq	sp, r8, r2, lsl #10
    35ac:	70910200 	addsvc	r0, r1, r0, lsl #4
    35b0:	00136327 	andseq	r6, r3, r7, lsr #6
    35b4:	02c60100 	sbceq	r0, r6, #0, 2
    35b8:	00000046 	andeq	r0, r0, r6, asr #32
    35bc:	00749102 	rsbseq	r9, r4, r2, lsl #2
    35c0:	0013392c 	andseq	r3, r3, ip, lsr #18
    35c4:	02820100 	addeq	r0, r2, #0, 2
    35c8:	00011eec 	andeq	r1, r1, ip, ror #29
    35cc:	00000110 	andeq	r0, r0, r0, lsl r1
    35d0:	143f9c01 	ldrtne	r9, [pc], #-3073	; 35d8 <_start-0x4a28>
    35d4:	92250000 	eorls	r0, r5, #0
    35d8:	01000012 	tsteq	r0, r2, lsl r0
    35dc:	0e960282 	cdpeq	2, 9, cr0, cr6, cr2, {4}
    35e0:	91020000 	mrsls	r0, (UNDEF: 2)
    35e4:	13be2564 			; <UNDEFINED> instruction: 0x13be2564
    35e8:	82010000 	andhi	r0, r1, #0
    35ec:	0008d502 	andeq	sp, r8, r2, lsl #10
    35f0:	60910200 	addsvs	r0, r1, r0, lsl #4
    35f4:	0004f827 	andeq	pc, r4, r7, lsr #16
    35f8:	02840100 	addeq	r0, r4, #0, 2
    35fc:	000008d5 	ldrdeq	r0, [r0], -r5
    3600:	27709102 	ldrbcs	r9, [r0, -r2, lsl #2]!
    3604:	00001363 	andeq	r1, r0, r3, ror #6
    3608:	46028501 	strmi	r8, [r2], -r1, lsl #10
    360c:	02000000 	andeq	r0, r0, #0
    3610:	85276c91 	strhi	r6, [r7, #-3217]!	; 0xfffff36f
    3614:	01000010 	tsteq	r0, r0, lsl r0
    3618:	00460285 	subeq	r0, r6, r5, lsl #5
    361c:	91020000 	mrsls	r0, (UNDEF: 2)
    3620:	c92c0074 	stmdbgt	ip!, {r2, r4, r5, r6}
    3624:	01000011 	tsteq	r0, r1, lsl r0
    3628:	1dec0240 	sfmne	f0, 2, [ip, #256]!	; 0x100
    362c:	01000001 	tsteq	r0, r1
    3630:	9c010000 	stcls	0, cr0, [r1], {-0}
    3634:	00001474 	andeq	r1, r0, r4, ror r4
    3638:	0012a525 	andseq	sl, r2, r5, lsr #10
    363c:	02400100 	subeq	r0, r0, #0, 2
    3640:	000009f1 	strdeq	r0, [r0], -r1
    3644:	276c9102 	strbcs	r9, [ip, -r2, lsl #2]!
    3648:	000013cd 	andeq	r1, r0, sp, asr #7
    364c:	16024201 	strne	r4, [r2], -r1, lsl #4
    3650:	0200000b 	andeq	r0, r0, #11
    3654:	2a007491 	bcs	208a0 <__bss_end+0xad68>
    3658:	000011f2 	strdeq	r1, [r0], -r2
    365c:	46019b01 	strmi	r9, [r1], -r1, lsl #22
    3660:	a0000000 	andge	r0, r0, r0
    3664:	4c00011b 	stfmis	f0, [r0], {27}
    3668:	01000002 	tsteq	r0, r2
    366c:	00153e9c 	mulseq	r5, ip, lr
    3670:	10d42500 	sbcsne	r2, r4, r0, lsl #10
    3674:	9b010000 	blls	4367c <__bss_end+0x2db44>
    3678:	0008b901 	andeq	fp, r8, r1, lsl #18
    367c:	64910200 	ldrvs	r0, [r1], #512	; 0x200
    3680:	00112825 	andseq	r2, r1, r5, lsr #16
    3684:	019b0100 	orrseq	r0, fp, r0, lsl #2
    3688:	00000a73 	andeq	r0, r0, r3, ror sl
    368c:	25609102 	strbcs	r9, [r0, #-258]!	; 0xfffffefe
    3690:	00001106 	andeq	r1, r0, r6, lsl #2
    3694:	3f019b01 	svccc	0x00019b01
    3698:	02000000 	andeq	r0, r0, #0
    369c:	2d255e91 	stccs	14, cr5, [r5, #-580]!	; 0xfffffdbc
    36a0:	01000001 	tsteq	r0, r1
    36a4:	008c019b 	umulleq	r0, ip, fp, r1
    36a8:	91020000 	mrsls	r0, (UNDEF: 2)
    36ac:	04722558 	ldrbteq	r2, [r2], #-1368	; 0xfffffaa8
    36b0:	9b010000 	blls	436b8 <__bss_end+0x2db80>
    36b4:	00005201 	andeq	r5, r0, r1, lsl #4
    36b8:	00910200 	addseq	r0, r1, r0, lsl #4
    36bc:	0013df25 	andseq	sp, r3, r5, lsr #30
    36c0:	019b0100 	orrseq	r0, fp, r0, lsl #2
    36c4:	0000153e 	andeq	r1, r0, lr, lsr r5
    36c8:	25049102 	strcs	r9, [r4, #-258]	; 0xfffffefe
    36cc:	000012e8 	andeq	r1, r0, r8, ror #5
    36d0:	78019b01 	stmdavc	r1, {r0, r8, r9, fp, ip, pc}
    36d4:	0200000a 	andeq	r0, r0, #10
    36d8:	7f250891 	svcvc	0x00250891
    36dc:	01000013 	tsteq	r0, r3, lsl r0
    36e0:	0e00019b 	mcreq	1, 0, r0, cr0, cr11, {4}
    36e4:	91020000 	mrsls	r0, (UNDEF: 2)
    36e8:	0bcd270c 	bleq	ff34d320 <_estack+0xf733d320>
    36ec:	9d010000 	stcls	0, cr0, [r1, #-0]
    36f0:	00004601 	andeq	r4, r0, r1, lsl #12
    36f4:	74910200 	ldrvc	r0, [r1], #512	; 0x200
    36f8:	0010cb27 	andseq	ip, r0, r7, lsr #22
    36fc:	019e0100 	orrseq	r0, lr, r0, lsl #2
    3700:	00000b16 	andeq	r0, r0, r6, lsl fp
    3704:	28709102 	ldmdacs	r0!, {r1, r8, ip, pc}^
    3708:	00011be0 	andeq	r1, r1, r0, ror #23
    370c:	0000019c 	muleq	r0, ip, r1
    3710:	00014027 	andeq	r4, r1, r7, lsr #32
    3714:	01a90100 			; <UNDEFINED> instruction: 0x01a90100
    3718:	00000a78 	andeq	r0, r0, r8, ror sl
    371c:	006c9102 	rsbeq	r9, ip, r2, lsl #2
    3720:	f1040800 			; <UNDEFINED> instruction: 0xf1040800
    3724:	00000009 	andeq	r0, r0, r9
    3728:	000002b0 			; <UNDEFINED> instruction: 0x000002b0
    372c:	0a8a0004 	beq	fe283744 <_estack+0xf6273744>
    3730:	01040000 	mrseq	r0, (UNDEF: 4)
    3734:	0000009a 	muleq	r0, sl, r0
    3738:	0014260c 	andseq	r2, r4, ip, lsl #12
    373c:	00000c00 	andeq	r0, r0, r0, lsl #24
    3740:	0134c400 	teqeq	r4, r0, lsl #8
    3744:	0003a000 	andeq	sl, r3, r0
    3748:	000deb00 	andeq	lr, sp, r0, lsl #22
    374c:	14d90200 	ldrbne	r0, [r9], #512	; 0x200
    3750:	0b020000 	bleq	83758 <__bss_end+0x6dc20>
    3754:	00000030 	andeq	r0, r0, r0, lsr r0
    3758:	00360403 	eorseq	r0, r6, r3, lsl #8
    375c:	46040000 	strmi	r0, [r4], -r0
    3760:	05000000 	streq	r0, [r0, #-0]
    3764:	00000046 	andeq	r0, r0, r6, asr #32
    3768:	00005205 	andeq	r5, r0, r5, lsl #4
    376c:	04060000 	streq	r0, [r6], #-0
    3770:	00064007 	andeq	r4, r6, r7
    3774:	00460700 	subeq	r0, r6, r0, lsl #14
    3778:	04080000 	streq	r0, [r8], #-0
    377c:	0d020809 	stceq	8, cr0, [r2, #-36]	; 0xffffffdc
    3780:	00000075 	andeq	r0, r0, r5, ror r0
    3784:	0014910a 	andseq	r9, r4, sl, lsl #2
    3788:	250e0200 	strcs	r0, [lr, #-512]	; 0xfffffe00
    378c:	00000000 	andeq	r0, r0, r0
    3790:	0000400a 	andeq	r4, r0, sl
    3794:	520f0200 	andpl	r0, pc, #0, 4
    3798:	04000000 	streq	r0, [r0], #-0
    379c:	14ee0200 	strbtne	r0, [lr], #512	; 0x200
    37a0:	10020000 	andne	r0, r2, r0
    37a4:	00000054 	andeq	r0, r0, r4, asr r0
    37a8:	0000750b 	andeq	r7, r0, fp, lsl #10
    37ac:	00009000 	andeq	r9, r0, r0
    37b0:	00460c00 	subeq	r0, r6, r0, lsl #24
    37b4:	00470000 	subeq	r0, r7, r0
    37b8:	0014c10d 	andseq	ip, r4, sp, lsl #2
    37bc:	80090100 	andhi	r0, r9, r0, lsl #2
    37c0:	05000000 	streq	r0, [r0, #-0]
    37c4:	0148dc03 	cmpeq	r8, r3, lsl #24
    37c8:	01280900 			; <UNDEFINED> instruction: 0x01280900
    37cc:	0001220c 	andeq	r2, r1, ip, lsl #4
    37d0:	15070a00 	strne	r0, [r7, #-2560]	; 0xfffff600
    37d4:	0d010000 	stceq	0, cr0, [r1, #-0]
    37d8:	00000122 	andeq	r0, r0, r2, lsr #2
    37dc:	13ed0a00 	mvnne	r0, #0, 20
    37e0:	0e010000 	cdpeq	0, 0, cr0, cr1, cr0, {0}
    37e4:	00000122 	andeq	r0, r0, r2, lsr #2
    37e8:	13f60a04 	mvnsne	r0, #4, 20	; 0x4000
    37ec:	0f010000 	svceq	0x00010000
    37f0:	00000122 	andeq	r0, r0, r2, lsr #2
    37f4:	141e0a08 	ldrne	r0, [lr], #-2568	; 0xfffff5f8
    37f8:	10010000 	andne	r0, r1, r0
    37fc:	00000122 	andeq	r0, r0, r2, lsr #2
    3800:	15270a0c 	strne	r0, [r7, #-2572]!	; 0xfffff5f4
    3804:	11010000 	mrsne	r0, (UNDEF: 1)
    3808:	00000122 	andeq	r0, r0, r2, lsr #2
    380c:	14a70a10 	strtne	r0, [r7], #2576	; 0xa10
    3810:	12010000 	andne	r0, r1, #0
    3814:	00000122 	andeq	r0, r0, r2, lsr #2
    3818:	151b0a14 	ldrne	r0, [fp, #-2580]	; 0xfffff5ec
    381c:	13010000 	movwne	r0, #4096	; 0x1000
    3820:	00000122 	andeq	r0, r0, r2, lsr #2
    3824:	14af0a18 	strtne	r0, [pc], #2584	; 382c <_start-0x47d4>
    3828:	14010000 	strne	r0, [r1], #-0
    382c:	00000122 	andeq	r0, r0, r2, lsr #2
    3830:	14b80a1c 	ldrtne	r0, [r8], #2588	; 0xa1c
    3834:	15010000 	strne	r0, [r1, #-0]
    3838:	00000122 	andeq	r0, r0, r2, lsr #2
    383c:	13ff0a20 	mvnsne	r0, #32, 20	; 0x20000
    3840:	16010000 	strne	r0, [r1], -r0
    3844:	00000122 	andeq	r0, r0, r2, lsr #2
    3848:	04060024 	streq	r0, [r6], #-36	; 0xffffffdc
    384c:	00063b07 	andeq	r3, r6, r7, lsl #22
    3850:	140c0200 	strne	r0, [ip], #-512	; 0xfffffe00
    3854:	17010000 	strne	r0, [r1, -r0]
    3858:	000000a1 	andeq	r0, r0, r1, lsr #1
    385c:	0001290e 	andeq	r2, r1, lr, lsl #18
    3860:	013a0d00 	teqeq	sl, r0, lsl #26
    3864:	19010000 	stmdbne	r1, {}	; <UNPREDICTABLE>
    3868:	00000150 	andeq	r0, r0, r0, asr r1
    386c:	44240305 	strtmi	r0, [r4], #-773	; 0xfffffcfb
    3870:	04030001 	streq	r0, [r3], #-1
    3874:	00000134 	andeq	r0, r0, r4, lsr r1
    3878:	00014a07 	andeq	r4, r1, r7, lsl #20
    387c:	01220b00 			; <UNDEFINED> instruction: 0x01220b00
    3880:	01650000 	cmneq	r5, r0
    3884:	460c0000 	strmi	r0, [ip], -r0
    3888:	02000000 	andeq	r0, r0, #0
    388c:	14610d00 	strbtne	r0, [r1], #-3328	; 0xfffff300
    3890:	1c010000 	stcne	0, cr0, [r1], {-0}
    3894:	00000155 	andeq	r0, r0, r5, asr r1
    3898:	4b1c0305 	blmi	7044b4 <__bss_end+0x6ee97c>
    389c:	7a0f0001 	bvc	3c38a8 <__bss_end+0x3add70>
    38a0:	01000014 	tsteq	r0, r4, lsl r0
    38a4:	0137846d 	teqeq	r7, sp, ror #8
    38a8:	0000e000 	andeq	lr, r0, r0
    38ac:	a89c0100 	ldmge	ip, {r8}
    38b0:	10000001 	andne	r0, r0, r1
    38b4:	00717269 	rsbseq	r7, r1, r9, ror #4
    38b8:	004d6d01 	subeq	r6, sp, r1, lsl #26
    38bc:	91020000 	mrsls	r0, (UNDEF: 2)
    38c0:	14750d6c 	ldrbtne	r0, [r5], #-3436	; 0xfffff294
    38c4:	6f010000 	svcvs	0x00010000
    38c8:	00000122 	andeq	r0, r0, r2, lsr #2
    38cc:	00749102 	rsbseq	r9, r4, r2, lsl #2
    38d0:	0014cf0f 	andseq	ip, r4, pc, lsl #30
    38d4:	b05b0100 	subslt	r0, fp, r0, lsl #2
    38d8:	d4000136 	strle	r0, [r0], #-310	; 0xfffffeca
    38dc:	01000000 	mrseq	r0, (UNDEF: 0)
    38e0:	0001da9c 	muleq	r1, ip, sl
    38e4:	72691000 	rsbvc	r1, r9, #0
    38e8:	5b010071 	blpl	43ab4 <__bss_end+0x2df7c>
    38ec:	0000004d 	andeq	r0, r0, sp, asr #32
    38f0:	0d6c9102 	stfeqp	f1, [ip, #-8]!
    38f4:	00001475 	andeq	r1, r0, r5, ror r4
    38f8:	01225d01 			; <UNDEFINED> instruction: 0x01225d01
    38fc:	91020000 	mrsls	r0, (UNDEF: 2)
    3900:	85110074 	ldrhi	r0, [r1, #-116]	; 0xffffff8c
    3904:	01000014 	tsteq	r0, r4, lsl r0
    3908:	01364c51 	teqeq	r6, r1, asr ip
    390c:	00006400 	andeq	r6, r0, r0, lsl #8
    3910:	1a9c0100 	bne	fe703d18 <_estack+0xf66f3d18>
    3914:	10000002 	andne	r0, r0, r2
    3918:	00717269 	rsbseq	r7, r1, r9, ror #4
    391c:	004d5101 	subeq	r5, sp, r1, lsl #2
    3920:	91020000 	mrsls	r0, (UNDEF: 2)
    3924:	14911274 	ldrne	r1, [r1], #628	; 0x274
    3928:	51010000 	mrspl	r0, (UNDEF: 1)
    392c:	00000025 	andeq	r0, r0, r5, lsr #32
    3930:	12709102 	rsbsne	r9, r0, #-2147483648	; 0x80000000
    3934:	00000040 	andeq	r0, r0, r0, asr #32
    3938:	00525101 	subseq	r5, r2, r1, lsl #2
    393c:	91020000 	mrsls	r0, (UNDEF: 2)
    3940:	4913006c 	ldmdbmi	r3, {r2, r3, r5, r6}
    3944:	01000014 	tsteq	r0, r4, lsl r0
    3948:	0136304c 	teqeq	r6, ip, asr #32
    394c:	00001c00 	andeq	r1, r0, r0, lsl #24
    3950:	139c0100 	orrsne	r0, ip, #0, 2
    3954:	00001510 	andeq	r1, r0, r0, lsl r5
    3958:	36144701 	ldrcc	r4, [r4], -r1, lsl #14
    395c:	001c0001 	andseq	r0, ip, r1
    3960:	9c010000 	stcls	0, cr0, [r1], {-0}
    3964:	00149c11 	andseq	r9, r4, r1, lsl ip
    3968:	74360100 	ldrtvc	r0, [r6], #-256	; 0xffffff00
    396c:	a0000135 	andge	r0, r0, r5, lsr r1
    3970:	01000000 	mrseq	r0, (UNDEF: 0)
    3974:	00025f9c 	muleq	r2, ip, pc	; <UNPREDICTABLE>
    3978:	14520d00 	ldrbne	r0, [r2], #-3328	; 0xfffff300
    397c:	38010000 	stmdacc	r1, {}	; <UNPREDICTABLE>
    3980:	00000122 	andeq	r0, r0, r2, lsr #2
    3984:	14005401 	strne	r5, [r0], #-1025	; 0xfffffbff
    3988:	00001469 	andeq	r1, r0, r9, ror #8
    398c:	34c41e01 	strbcc	r1, [r4], #3585	; 0xe01
    3990:	00b00001 	adcseq	r0, r0, r1
    3994:	9c010000 	stcls	0, cr0, [r1], {-0}
    3998:	0014ff12 	andseq	pc, r4, r2, lsl pc	; <UNPREDICTABLE>
    399c:	221e0100 	andscs	r0, lr, #0, 2
    39a0:	02000001 	andeq	r0, r0, #1
    39a4:	8e126c91 	mrchi	12, 0, r6, cr2, cr1, {4}
    39a8:	01000006 	tsteq	r0, r6
    39ac:	00004d1e 	andeq	r4, r0, lr, lsl sp
    39b0:	68910200 	ldmvs	r1, {r9}
    39b4:	0134dc15 	teqeq	r4, r5, lsl ip
    39b8:	00007c00 	andeq	r7, r0, r0, lsl #24
    39bc:	69621600 	stmdbvs	r2!, {r9, sl, ip}^
    39c0:	23010074 	movwcs	r0, #4212	; 0x1074
    39c4:	00000046 	andeq	r0, r0, r6, asr #32
    39c8:	16749102 	ldrbtne	r9, [r4], -r2, lsl #2
    39cc:	00717269 	rsbseq	r7, r1, r9, ror #4
    39d0:	00462601 	subeq	r2, r6, r1, lsl #12
    39d4:	91020000 	mrsls	r0, (UNDEF: 2)
    39d8:	00000070 	andeq	r0, r0, r0, ror r0
    39dc:	000003f9 	strdeq	r0, [r0], -r9
    39e0:	0bb90004 	bleq	fee439f8 <_estack+0xf6e339f8>
    39e4:	01040000 	mrseq	r0, (UNDEF: 4)
    39e8:	0000009a 	muleq	r0, sl, r0
    39ec:	00154c0c 	andseq	r4, r5, ip, lsl #24
    39f0:	00000c00 	andeq	r0, r0, r0, lsl #24
    39f4:	01386400 	teqeq	r8, r0, lsl #8
    39f8:	0005d800 	andeq	sp, r5, r0, lsl #16
    39fc:	000e8d00 	andeq	r8, lr, r0, lsl #26
    3a00:	15f70200 	ldrbne	r0, [r7, #512]!	; 0x200
    3a04:	01070000 	mrseq	r0, (UNDEF: 7)
    3a08:	00000061 	andeq	r0, r0, r1, rrx
    3a0c:	00614702 	rsbeq	r4, r1, r2, lsl #14
    3a10:	44030000 	strmi	r0, [r3], #-0
    3a14:	00000016 	andeq	r0, r0, r6, lsl r0
    3a18:	00165f03 	andseq	r5, r6, r3, lsl #30
    3a1c:	13030100 	movwne	r0, #12544	; 0x3100
    3a20:	02000017 	andeq	r0, r0, #23
    3a24:	00163803 	andseq	r3, r6, r3, lsl #16
    3a28:	6d030300 	stcvs	3, cr0, [r3, #-0]
    3a2c:	04000016 	streq	r0, [r0], #-22	; 0xffffffea
    3a30:	00159d03 	andseq	r9, r5, r3, lsl #26
    3a34:	b1030500 	tstlt	r3, r0, lsl #10
    3a38:	06000015 			; <UNDEFINED> instruction: 0x06000015
    3a3c:	08010400 	stmdaeq	r1, {sl}
    3a40:	00000892 	muleq	r0, r2, r8
    3a44:	00162102 	andseq	r2, r6, r2, lsl #2
    3a48:	61010700 	tstvs	r1, r0, lsl #14
    3a4c:	02000000 	andeq	r0, r0, #0
    3a50:	0000865a 	andeq	r8, r0, sl, asr r6
    3a54:	16300300 	ldrtne	r0, [r0], -r0, lsl #6
    3a58:	03000000 	movweq	r0, #0
    3a5c:	00001740 	andeq	r1, r0, r0, asr #14
    3a60:	a0050001 	andge	r0, r5, r1
    3a64:	01af4a01 			; <UNDEFINED> instruction: 0x01af4a01
    3a68:	a9060000 	stmdbge	r6, {}	; <UNPREDICTABLE>
    3a6c:	01000016 	tsteq	r0, r6, lsl r0
    3a70:	0001af4b 	andeq	sl, r1, fp, asr #30
    3a74:	b0060000 	andlt	r0, r6, r0
    3a78:	01000016 	tsteq	r0, r6, lsl r0
    3a7c:	0001c64c 	andeq	ip, r1, ip, asr #12
    3a80:	2f061800 	svccs	0x00061800
    3a84:	01000015 	tsteq	r0, r5, lsl r0
    3a88:	0001cd4d 	andeq	ip, r1, sp, asr #26
    3a8c:	bb061c00 	bllt	18aa94 <__bss_end+0x174f5c>
    3a90:	01000016 	tsteq	r0, r6, lsl r0
    3a94:	0001c64e 	andeq	ip, r1, lr, asr #12
    3a98:	91062400 	tstls	r6, r0, lsl #8
    3a9c:	01000015 	tsteq	r0, r5, lsl r0
    3aa0:	0001cd4f 	andeq	ip, r1, pc, asr #26
    3aa4:	c6062800 	strgt	r2, [r6], -r0, lsl #16
    3aa8:	01000016 	tsteq	r0, r6, lsl r0
    3aac:	0001c650 	andeq	ip, r1, r0, asr r6
    3ab0:	78063000 	stmdavc	r6, {ip, sp}
    3ab4:	01000016 	tsteq	r0, r6, lsl r0
    3ab8:	0001cd51 	andeq	ip, r1, r1, asr sp
    3abc:	d1063400 	tstle	r6, r0, lsl #8
    3ac0:	01000016 	tsteq	r0, r6, lsl r0
    3ac4:	0001c652 	andeq	ip, r1, r2, asr r6
    3ac8:	8c063c00 	stchi	12, cr3, [r6], {-0}
    3acc:	01000016 	tsteq	r0, r6, lsl r0
    3ad0:	0001cd53 	andeq	ip, r1, r3, asr sp
    3ad4:	dc064000 	stcle	0, cr4, [r6], {-0}
    3ad8:	01000016 	tsteq	r0, r6, lsl r0
    3adc:	0001c654 	andeq	ip, r1, r4, asr r6
    3ae0:	86064800 	strhi	r4, [r6], -r0, lsl #16
    3ae4:	01000016 	tsteq	r0, r6, lsl r0
    3ae8:	0001cd55 	andeq	ip, r1, r5, asr sp
    3aec:	e7064c00 	str	r4, [r6, -r0, lsl #24]
    3af0:	01000016 	tsteq	r0, r6, lsl r0
    3af4:	0001c656 	andeq	ip, r1, r6, asr r6
    3af8:	2a065400 	bcs	198b00 <__bss_end+0x182fc8>
    3afc:	01000016 	tsteq	r0, r6, lsl r0
    3b00:	0001cd57 	andeq	ip, r1, r7, asr sp
    3b04:	f2065800 	vadd.i8	d5, d6, d0
    3b08:	01000016 	tsteq	r0, r6, lsl r0
    3b0c:	0001c658 	andeq	ip, r1, r8, asr r6
    3b10:	97066000 	strls	r6, [r6, -r0]
    3b14:	01000015 	tsteq	r0, r5, lsl r0
    3b18:	0001cd59 	andeq	ip, r1, r9, asr sp
    3b1c:	fd066400 	stc2	4, cr6, [r6, #-0]
    3b20:	01000016 	tsteq	r0, r6, lsl r0
    3b24:	0001c65a 	andeq	ip, r1, sl, asr r6
    3b28:	50066c00 	andpl	r6, r6, r0, lsl #24
    3b2c:	01000016 	tsteq	r0, r6, lsl r0
    3b30:	0001cd5b 	andeq	ip, r1, fp, asr sp
    3b34:	08067000 	stmdaeq	r6, {ip, sp, lr}
    3b38:	01000017 	tsteq	r0, r7, lsl r0
    3b3c:	0001c65c 	andeq	ip, r1, ip, asr r6
    3b40:	0a067800 	beq	1a1b48 <__bss_end+0x18c010>
    3b44:	01000016 	tsteq	r0, r6, lsl r0
    3b48:	0001cd5d 	andeq	ip, r1, sp, asr sp
    3b4c:	2a067c00 	bcs	1a2b54 <__bss_end+0x18d01c>
    3b50:	01000017 	tsteq	r0, r7, lsl r0
    3b54:	0001c65e 	andeq	ip, r1, lr, asr r6
    3b58:	d9068400 	stmdble	r6, {sl, pc}
    3b5c:	01000015 	tsteq	r0, r5, lsl r0
    3b60:	0001cd5f 	andeq	ip, r1, pc, asr sp
    3b64:	35068800 	strcc	r8, [r6, #-2048]	; 0xfffff800
    3b68:	01000017 	tsteq	r0, r7, lsl r0
    3b6c:	0001c660 	andeq	ip, r1, r0, ror #12
    3b70:	f1069000 			; <UNDEFINED> instruction: 0xf1069000
    3b74:	01000015 	tsteq	r0, r5, lsl r0
    3b78:	0001dd61 	andeq	sp, r1, r1, ror #26
    3b7c:	56069400 	strpl	r9, [r6], -r0, lsl #8
    3b80:	01000016 	tsteq	r0, r6, lsl r0
    3b84:	0001cd62 	andeq	ip, r1, r2, ror #26
    3b88:	07009800 	streq	r9, [r0, -r0, lsl #16]
    3b8c:	000001c6 	andeq	r0, r0, r6, asr #3
    3b90:	000001bf 			; <UNDEFINED> instruction: 0x000001bf
    3b94:	0001bf08 	andeq	fp, r1, r8, lsl #30
    3b98:	04000500 	streq	r0, [r0], #-1280	; 0xfffffb00
    3b9c:	06400704 	strbeq	r0, [r0], -r4, lsl #14
    3ba0:	04040000 	streq	r0, [r4], #-0
    3ba4:	00063b07 	andeq	r3, r6, r7, lsl #22
    3ba8:	01c60700 	biceq	r0, r6, r0, lsl #14
    3bac:	01dd0000 	bicseq	r0, sp, r0
    3bb0:	bf080000 	svclt	0x00080000
    3bb4:	01000001 	tsteq	r0, r1
    3bb8:	01c60700 	biceq	r0, r6, r0, lsl #14
    3bbc:	01ed0000 	mvneq	r0, r0
    3bc0:	bf080000 	svclt	0x00080000
    3bc4:	00000001 	andeq	r0, r0, r1
    3bc8:	15350900 	ldrne	r0, [r5, #-2304]!	; 0xfffff700
    3bcc:	64010000 	strvs	r0, [r1], #-0
    3bd0:	00000086 	andeq	r0, r0, r6, lsl #1
    3bd4:	0001ed0a 	andeq	lr, r1, sl, lsl #26
    3bd8:	013a0b00 	teqeq	sl, r0, lsl #22
    3bdc:	66010000 	strvs	r0, [r1], -r0
    3be0:	00000214 	andeq	r0, r0, r4, lsl r2
    3be4:	44280305 	strtmi	r0, [r8], #-773	; 0xfffffcfb
    3be8:	040c0001 	streq	r0, [ip], #-1
    3bec:	000001f8 	strdeq	r0, [r0], -r8
    3bf0:	00020e0d 	andeq	r0, r2, sp, lsl #28
    3bf4:	15c60e00 	strbne	r0, [r6, #3584]	; 0xe00
    3bf8:	c2010000 	andgt	r0, r1, #0
    3bfc:	00013de4 	andeq	r3, r1, r4, ror #27
    3c00:	00000058 	andeq	r0, r0, r8, asr r0
    3c04:	02599c01 	subseq	r9, r9, #256	; 0x100
    3c08:	700f0000 	andvc	r0, pc, r0
    3c0c:	01000015 	tsteq	r0, r5, lsl r0
    3c10:	0001bfc2 	andeq	fp, r1, r2, asr #31
    3c14:	6c910200 	lfmvs	f0, 4, [r1], {0}
    3c18:	00147510 	andseq	r7, r4, r0, lsl r5
    3c1c:	c6c40100 	strbgt	r0, [r4], r0, lsl #2
    3c20:	02000001 	andeq	r0, r0, #1
    3c24:	e8107491 	ldmda	r0, {r0, r4, r7, sl, ip, sp, lr}
    3c28:	01000006 	tsteq	r0, r6
    3c2c:	0001c6c5 	andeq	ip, r1, r5, asr #13
    3c30:	70910200 	addsvc	r0, r1, r0, lsl #4
    3c34:	16920e00 	ldrne	r0, [r2], r0, lsl #28
    3c38:	a5010000 	strge	r0, [r1, #-0]
    3c3c:	00013c2c 	andeq	r3, r1, ip, lsr #24
    3c40:	000001b8 			; <UNDEFINED> instruction: 0x000001b8
    3c44:	02a79c01 	adceq	r9, r7, #256	; 0x100
    3c48:	700f0000 	andvc	r0, pc, r0
    3c4c:	01000015 	tsteq	r0, r5, lsl r0
    3c50:	0001bfa5 	andeq	fp, r1, r5, lsr #31
    3c54:	6c910200 	lfmvs	f0, 4, [r1], {0}
    3c58:	0016a40f 	andseq	sl, r6, pc, lsl #8
    3c5c:	25a50100 	strcs	r0, [r5, #256]!	; 0x100
    3c60:	02000000 	andeq	r0, r0, #0
    3c64:	75106b91 	ldrvc	r6, [r0, #-2961]	; 0xfffff46f
    3c68:	01000014 	tsteq	r0, r4, lsl r0
    3c6c:	0001c6a7 	andeq	ip, r1, r7, lsr #13
    3c70:	74910200 	ldrvc	r0, [r1], #512	; 0x200
    3c74:	0006e810 	andeq	lr, r6, r0, lsl r8
    3c78:	c6a80100 	strtgt	r0, [r8], r0, lsl #2
    3c7c:	02000001 	andeq	r0, r0, #1
    3c80:	0e007091 	mcreq	0, 0, r7, cr0, cr1, {4}
    3c84:	000015e0 	andeq	r1, r0, r0, ror #11
    3c88:	3a7c8801 	bcc	1f25c94 <__bss_end+0x1f1015c>
    3c8c:	01b00001 	movseq	r0, r1
    3c90:	9c010000 	stcls	0, cr0, [r1], {-0}
    3c94:	000002f5 	strdeq	r0, [r0], -r5
    3c98:	0015700f 	andseq	r7, r5, pc
    3c9c:	bf880100 	svclt	0x00880100
    3ca0:	02000001 	andeq	r0, r0, #1
    3ca4:	a40f6c91 	strge	r6, [pc], #-3217	; 3cac <_start-0x4354>
    3ca8:	01000016 	tsteq	r0, r6, lsl r0
    3cac:	00002588 	andeq	r2, r0, r8, lsl #11
    3cb0:	6b910200 	blvs	fe4444b8 <_estack+0xf64344b8>
    3cb4:	00147510 	andseq	r7, r4, r0, lsl r5
    3cb8:	c68a0100 	strgt	r0, [sl], r0, lsl #2
    3cbc:	02000001 	andeq	r0, r0, #1
    3cc0:	e8107491 	ldmda	r0, {r0, r4, r7, sl, ip, sp, lr}
    3cc4:	01000006 	tsteq	r0, r6
    3cc8:	0001c68b 	andeq	ip, r1, fp, lsl #13
    3ccc:	70910200 	addsvc	r0, r1, r0, lsl #4
    3cd0:	15771100 	ldrbne	r1, [r7, #-256]!	; 0xffffff00
    3cd4:	84010000 	strhi	r0, [r1], #-0
    3cd8:	0000031d 	andeq	r0, r0, sp, lsl r3
    3cdc:	00013a2c 	andeq	r3, r1, ip, lsr #20
    3ce0:	00000050 	andeq	r0, r0, r0, asr r0
    3ce4:	031d9c01 	tsteq	sp, #256	; 0x100
    3ce8:	700f0000 	andvc	r0, pc, r0
    3cec:	01000015 	tsteq	r0, r5, lsl r0
    3cf0:	0001bf84 	andeq	fp, r1, r4, lsl #31
    3cf4:	74910200 	ldrvc	r0, [r1], #512	; 0x200
    3cf8:	05041200 	streq	r1, [r4, #-512]	; 0xfffffe00
    3cfc:	00746e69 	rsbseq	r6, r4, r9, ror #28
    3d00:	0017220e 	andseq	r2, r7, lr, lsl #4
    3d04:	74790100 	ldrbtvc	r0, [r9], #-256	; 0xffffff00
    3d08:	b8000139 	stmdalt	r0, {r0, r3, r4, r5, r8}
    3d0c:	01000000 	mrseq	r0, (UNDEF: 0)
    3d10:	0003729c 	muleq	r3, ip, r2
    3d14:	15700f00 	ldrbne	r0, [r0, #-3840]!	; 0xfffff100
    3d18:	79010000 	stmdbvc	r1, {}	; <UNPREDICTABLE>
    3d1c:	000001bf 			; <UNDEFINED> instruction: 0x000001bf
    3d20:	0f6c9102 	svceq	0x006c9102
    3d24:	00001603 	andeq	r1, r0, r3, lsl #12
    3d28:	01bf7901 			; <UNDEFINED> instruction: 0x01bf7901
    3d2c:	91020000 	mrsls	r0, (UNDEF: 2)
    3d30:	06e81068 	strbteq	r1, [r8], r8, rrx
    3d34:	7a010000 	bvc	43d3c <__bss_end+0x2e204>
    3d38:	000001c6 	andeq	r0, r0, r6, asr #3
    3d3c:	10749102 	rsbsne	r9, r4, r2, lsl #2
    3d40:	00001475 	andeq	r1, r0, r5, ror r4
    3d44:	01c67b01 	biceq	r7, r6, r1, lsl #22
    3d48:	91020000 	mrsls	r0, (UNDEF: 2)
    3d4c:	80130070 	andshi	r0, r3, r0, ror r0
    3d50:	01000015 	tsteq	r0, r5, lsl r0
    3d54:	01394075 	teqeq	r9, r5, ror r0
    3d58:	00003400 	andeq	r3, r0, r0, lsl #8
    3d5c:	a49c0100 	ldrge	r0, [ip], #256	; 0x100
    3d60:	0f000003 	svceq	0x00000003
    3d64:	00001570 	andeq	r1, r0, r0, ror r5
    3d68:	01bf7501 			; <UNDEFINED> instruction: 0x01bf7501
    3d6c:	91020000 	mrsls	r0, (UNDEF: 2)
    3d70:	69641474 	stmdbvs	r4!, {r2, r4, r5, r6, sl, ip}^
    3d74:	75010072 	strvc	r0, [r1, #-114]	; 0xffffff8e
    3d78:	00000068 	andeq	r0, r0, r8, rrx
    3d7c:	00739102 	rsbseq	r9, r3, r2, lsl #2
    3d80:	00161115 	andseq	r1, r6, r5, lsl r1
    3d84:	64690100 	strbtvs	r0, [r9], #-256	; 0xffffff00
    3d88:	dc000138 	stfles	f0, [r0], {56}	; 0x38
    3d8c:	01000000 	mrseq	r0, (UNDEF: 0)
    3d90:	15700f9c 	ldrbne	r0, [r0, #-3996]!	; 0xfffff064
    3d94:	69010000 	stmdbvs	r1, {}	; <UNPREDICTABLE>
    3d98:	000001bf 			; <UNDEFINED> instruction: 0x000001bf
    3d9c:	0f649102 	svceq	0x00649102
    3da0:	0000167e 	andeq	r1, r0, lr, ror r6
    3da4:	01bf6901 			; <UNDEFINED> instruction: 0x01bf6901
    3da8:	91020000 	mrsls	r0, (UNDEF: 2)
    3dac:	06e81060 	strbteq	r1, [r8], r0, rrx
    3db0:	6b010000 	blvs	43db8 <__bss_end+0x2e280>
    3db4:	0000031d 	andeq	r0, r0, sp, lsl r3
    3db8:	16749102 	ldrbtne	r9, [r4], -r2, lsl #2
    3dbc:	006c6176 	rsbeq	r6, ip, r6, ror r1
    3dc0:	01c66d01 	biceq	r6, r6, r1, lsl #26
    3dc4:	91020000 	mrsls	r0, (UNDEF: 2)
    3dc8:	15471070 	strbne	r1, [r7, #-112]	; 0xffffff90
    3dcc:	6f010000 	svcvs	0x00010000
    3dd0:	0000031d 	andeq	r0, r0, sp, lsl r3
    3dd4:	006c9102 	rsbeq	r9, ip, r2, lsl #2
    3dd8:	000ae100 	andeq	lr, sl, r0, lsl #2
    3ddc:	06000400 	streq	r0, [r0], -r0, lsl #8
    3de0:	0400000d 	streq	r0, [r0], #-13
    3de4:	00009a01 	andeq	r9, r0, r1, lsl #20
    3de8:	183a0c00 	ldmdane	sl!, {sl, fp}
    3dec:	000c0000 	andeq	r0, ip, r0
    3df0:	3e3c0000 	cdpcc	0, 3, cr0, cr12, cr0, {0}
    3df4:	04ac0001 	strteq	r0, [ip], #1
    3df8:	0f3d0000 	svceq	0x003d0000
    3dfc:	f8020000 			; <UNDEFINED> instruction: 0xf8020000
    3e00:	0200000a 	andeq	r0, r0, #10
    3e04:	000035d8 	ldrdeq	r3, [r0], -r8
    3e08:	00250300 	eoreq	r0, r5, r0, lsl #6
    3e0c:	04040000 	streq	r0, [r4], #-0
    3e10:	00064007 	andeq	r4, r6, r7
    3e14:	05040500 	streq	r0, [r4, #-1280]	; 0xfffffb00
    3e18:	00746e69 	rsbseq	r6, r4, r9, ror #28
    3e1c:	1f050804 	svcne	0x00050804
    3e20:	04000001 	streq	r0, [r0], #-1
    3e24:	014d0408 	cmpeq	sp, r8, lsl #8
    3e28:	01040000 	mrseq	r0, (UNDEF: 4)
    3e2c:	00089406 	andeq	r9, r8, r6, lsl #8
    3e30:	08010400 	stmdaeq	r1, {sl}
    3e34:	00000892 	muleq	r0, r2, r8
    3e38:	ae050204 	cdpge	2, 0, cr0, cr5, cr4, {0}
    3e3c:	04000008 	streq	r0, [r0], #-8
    3e40:	00690702 	rsbeq	r0, r9, r2, lsl #14
    3e44:	66030000 	strvs	r0, [r3], -r0
    3e48:	04000000 	streq	r0, [r0], #-0
    3e4c:	01240504 			; <UNDEFINED> instruction: 0x01240504
    3e50:	04040000 	streq	r0, [r4], #-0
    3e54:	00063b07 	andeq	r3, r6, r7, lsl #22
    3e58:	07080400 	streq	r0, [r8, -r0, lsl #8]
    3e5c:	00000636 	andeq	r0, r0, r6, lsr r6
    3e60:	00080302 	andeq	r0, r8, r2, lsl #6
    3e64:	92220300 	eorls	r0, r2, #0, 6
    3e68:	06000000 	streq	r0, [r0], -r0
    3e6c:	00009804 	andeq	r9, r0, r4, lsl #16
    3e70:	095c0700 	ldmdbeq	ip, {r8, r9, sl}^
    3e74:	73020000 	movwvc	r0, #8192	; 0x2000
    3e78:	04000008 	streq	r0, [r0], #-8
    3e7c:	0000722c 	andeq	r7, r0, ip, lsr #4
    3e80:	097d0200 	ldmdbeq	sp!, {r9}^
    3e84:	72040000 	andvc	r0, r4, #0
    3e88:	00000072 	andeq	r0, r0, r2, ror r0
    3e8c:	00080b08 	andeq	r0, r8, r8, lsl #22
    3e90:	01650200 	cmneq	r5, r0, lsl #4
    3e94:	00000035 	andeq	r0, r0, r5, lsr r0
    3e98:	a6040409 	strge	r0, [r4], -r9, lsl #8
    3e9c:	000000de 	ldrdeq	r0, [r0], -lr
    3ea0:	0007fd0a 	andeq	pc, r7, sl, lsl #26
    3ea4:	b3a80400 			; <UNDEFINED> instruction: 0xb3a80400
    3ea8:	0a000000 	beq	3eb0 <_start-0x4150>
    3eac:	00000788 	andeq	r0, r0, r8, lsl #15
    3eb0:	00dea904 	sbcseq	sl, lr, r4, lsl #18
    3eb4:	0b000000 	bleq	3ebc <_start-0x4144>
    3eb8:	00000058 	andeq	r0, r0, r8, asr r0
    3ebc:	000000ee 	andeq	r0, r0, lr, ror #1
    3ec0:	0000350c 	andeq	r3, r0, ip, lsl #10
    3ec4:	0d000300 	stceq	3, cr0, [r0, #-0]
    3ec8:	0fa30408 	svceq	0x00a30408
    3ecc:	0e000001 	cdpeq	0, 0, cr0, cr0, cr1, {0}
    3ed0:	00000954 	andeq	r0, r0, r4, asr r9
    3ed4:	003ca504 	eorseq	sl, ip, r4, lsl #10
    3ed8:	0e000000 	cdpeq	0, 0, cr0, cr0, cr0, {0}
    3edc:	00000963 	andeq	r0, r0, r3, ror #18
    3ee0:	00bfaa04 	adcseq	sl, pc, r4, lsl #20
    3ee4:	00040000 	andeq	r0, r4, r0
    3ee8:	0008d602 	andeq	sp, r8, r2, lsl #12
    3eec:	eeab0400 	cdp	4, 10, cr0, cr11, cr0, {0}
    3ef0:	02000000 	andeq	r0, r0, #0
    3ef4:	0000074b 	andeq	r0, r0, fp, asr #14
    3ef8:	0087af04 	addeq	sl, r7, r4, lsl #30
    3efc:	040f0000 	streq	r0, [pc], #-0	; 3f04 <_start-0x40fc>
    3f00:	012d0406 			; <UNDEFINED> instruction: 0x012d0406
    3f04:	01040000 	mrseq	r0, (UNDEF: 4)
    3f08:	00089b08 	andeq	r9, r8, r8, lsl #22
    3f0c:	012d0300 			; <UNDEFINED> instruction: 0x012d0300
    3f10:	c1020000 	mrsgt	r0, (UNDEF: 2)
    3f14:	05000009 	streq	r0, [r0, #-9]
    3f18:	00007916 	andeq	r7, r0, r6, lsl r9
    3f1c:	075c1000 	ldrbeq	r1, [ip, -r0]
    3f20:	05180000 	ldreq	r0, [r8, #-0]
    3f24:	0001972f 	andeq	r9, r1, pc, lsr #14
    3f28:	08f70e00 	ldmeq	r7!, {r9, sl, fp}^
    3f2c:	31050000 	mrscc	r0, (UNDEF: 5)
    3f30:	00000197 	muleq	r0, r7, r1
    3f34:	6b5f1100 	blvs	17c833c <__bss_end+0x17b2804>
    3f38:	3c320500 	cfldr32cc	mvfx0, [r2], #-0
    3f3c:	04000000 	streq	r0, [r0], #-0
    3f40:	00093f0e 	andeq	r3, r9, lr, lsl #30
    3f44:	3c320500 	cfldr32cc	mvfx0, [r2], #-0
    3f48:	08000000 	stmdaeq	r0, {}	; <UNPREDICTABLE>
    3f4c:	0007450e 	andeq	r4, r7, lr, lsl #10
    3f50:	3c320500 	cfldr32cc	mvfx0, [r2], #-0
    3f54:	0c000000 	stceq	0, cr0, [r0], {-0}
    3f58:	000a060e 	andeq	r0, sl, lr, lsl #12
    3f5c:	3c320500 	cfldr32cc	mvfx0, [r2], #-0
    3f60:	10000000 	andne	r0, r0, r0
    3f64:	00785f11 	rsbseq	r5, r8, r1, lsl pc
    3f68:	019d3305 	orrseq	r3, sp, r5, lsl #6
    3f6c:	00140000 	andseq	r0, r4, r0
    3f70:	01440406 	cmpeq	r4, r6, lsl #8
    3f74:	390b0000 	stmdbcc	fp, {}	; <UNPREDICTABLE>
    3f78:	ad000001 	stcge	0, cr0, [r0, #-4]
    3f7c:	0c000001 	stceq	0, cr0, [r0], {1}
    3f80:	00000035 	andeq	r0, r0, r5, lsr r0
    3f84:	83100000 	tsthi	r0, #0
    3f88:	24000007 	strcs	r0, [r0], #-7
    3f8c:	02263705 	eoreq	r3, r6, #1310720	; 0x140000
    3f90:	7e0e0000 	cdpvc	0, 0, cr0, cr14, cr0, {0}
    3f94:	05000006 	streq	r0, [r0, #-6]
    3f98:	00003c39 	andeq	r3, r0, r9, lsr ip
    3f9c:	8c0e0000 	stchi	0, cr0, [lr], {-0}
    3fa0:	05000009 	streq	r0, [r0, #-9]
    3fa4:	00003c3a 	andeq	r3, r0, sl, lsr ip
    3fa8:	930e0400 	movwls	r0, #58368	; 0xe400
    3fac:	05000006 	streq	r0, [r0, #-6]
    3fb0:	00003c3b 	andeq	r3, r0, fp, lsr ip
    3fb4:	910e0800 	tstls	lr, r0, lsl #16
    3fb8:	0500000a 	streq	r0, [r0, #-10]
    3fbc:	00003c3c 	andeq	r3, r0, ip, lsr ip
    3fc0:	4d0e0c00 	stcmi	12, cr0, [lr, #-0]
    3fc4:	05000008 	streq	r0, [r0, #-8]
    3fc8:	00003c3d 	andeq	r3, r0, sp, lsr ip
    3fcc:	2d0e1000 	stccs	0, cr1, [lr, #-0]
    3fd0:	05000008 	streq	r0, [r0, #-8]
    3fd4:	00003c3e 	andeq	r3, r0, lr, lsr ip
    3fd8:	0b0e1400 	bleq	388fe0 <__bss_end+0x3734a8>
    3fdc:	0500000a 	streq	r0, [r0, #-10]
    3fe0:	00003c3f 	andeq	r3, r0, pc, lsr ip
    3fe4:	b80e1800 	stmdalt	lr, {fp, ip}
    3fe8:	05000008 	streq	r0, [r0, #-8]
    3fec:	00003c40 	andeq	r3, r0, r0, asr #24
    3ff0:	580e1c00 	stmdapl	lr, {sl, fp, ip}
    3ff4:	0500000a 	streq	r0, [r0, #-10]
    3ff8:	00003c41 	andeq	r3, r0, r1, asr #24
    3ffc:	12002000 	andne	r2, r0, #0
    4000:	000006a2 	andeq	r0, r0, r2, lsr #13
    4004:	4a050108 	bmi	14442c <__bss_end+0x12e8f4>
    4008:	00000266 	andeq	r0, r0, r6, ror #4
    400c:	0007240e 	andeq	r2, r7, lr, lsl #8
    4010:	664b0500 	strbvs	r0, [fp], -r0, lsl #10
    4014:	00000002 	andeq	r0, r0, r2
    4018:	0005eb0e 	andeq	lr, r5, lr, lsl #22
    401c:	664c0500 	strbvs	r0, [ip], -r0, lsl #10
    4020:	80000002 	andhi	r0, r0, r2
    4024:	0009a813 	andeq	sl, r9, r3, lsl r8
    4028:	394e0500 	stmdbcc	lr, {r8, sl}^
    402c:	00000001 	andeq	r0, r0, r1
    4030:	06c71301 	strbeq	r1, [r7], r1, lsl #6
    4034:	51050000 	mrspl	r0, (UNDEF: 5)
    4038:	00000139 	andeq	r0, r0, r9, lsr r1
    403c:	0b000104 	bleq	4454 <_start-0x3bac>
    4040:	00000125 	andeq	r0, r0, r5, lsr #2
    4044:	00000276 	andeq	r0, r0, r6, ror r2
    4048:	0000350c 	andeq	r3, r0, ip, lsl #10
    404c:	12001f00 	andne	r1, r0, #0, 30
    4050:	00000856 	andeq	r0, r0, r6, asr r8
    4054:	5d050190 	stfpls	f0, [r5, #-576]	; 0xfffffdc0
    4058:	000002b4 			; <UNDEFINED> instruction: 0x000002b4
    405c:	0008f70e 	andeq	pc, r8, lr, lsl #14
    4060:	b45e0500 	ldrblt	r0, [lr], #-1280	; 0xfffffb00
    4064:	00000002 	andeq	r0, r0, r2
    4068:	00090f0e 	andeq	r0, r9, lr, lsl #30
    406c:	3c5f0500 	cfldr64cc	mvdx0, [pc], {-0}
    4070:	04000000 	streq	r0, [r0], #-0
    4074:	00072c0e 	andeq	r2, r7, lr, lsl #24
    4078:	ba610500 	blt	1845480 <__bss_end+0x182f948>
    407c:	08000002 	stmdaeq	r0, {r1}
    4080:	0006a20e 	andeq	sl, r6, lr, lsl #4
    4084:	26620500 	strbtcs	r0, [r2], -r0, lsl #10
    4088:	88000002 	stmdahi	r0, {r1}
    408c:	76040600 	strvc	r0, [r4], -r0, lsl #12
    4090:	0b000002 	bleq	40a0 <_start-0x3f60>
    4094:	000002ca 	andeq	r0, r0, sl, asr #5
    4098:	000002ca 	andeq	r0, r0, sl, asr #5
    409c:	0000350c 	andeq	r3, r0, ip, lsl #10
    40a0:	06001f00 	streq	r1, [r0], -r0, lsl #30
    40a4:	0002d004 	andeq	sp, r2, r4
    40a8:	c2101400 	andsgt	r1, r0, #0, 8
    40ac:	08000008 	stmdaeq	r0, {r3}
    40b0:	02f67505 	rscseq	r7, r6, #20971520	; 0x1400000
    40b4:	8d0e0000 	stchi	0, cr0, [lr, #-0]
    40b8:	05000006 	streq	r0, [r0, #-6]
    40bc:	0002f676 	andeq	pc, r2, r6, ror r6	; <UNPREDICTABLE>
    40c0:	f70e0000 			; <UNDEFINED> instruction: 0xf70e0000
    40c4:	05000005 	streq	r0, [r0, #-5]
    40c8:	00003c77 	andeq	r3, r0, r7, ror ip
    40cc:	06000400 	streq	r0, [r0], -r0, lsl #8
    40d0:	00005804 	andeq	r5, r0, r4, lsl #16
    40d4:	08e11000 	stmiaeq	r1!, {ip}^
    40d8:	05680000 	strbeq	r0, [r8, #-0]!
    40dc:	000426b5 			; <UNDEFINED> instruction: 0x000426b5
    40e0:	705f1100 	subsvc	r1, pc, r0, lsl #2
    40e4:	f6b60500 			; <UNDEFINED> instruction: 0xf6b60500
    40e8:	00000002 	andeq	r0, r0, r2
    40ec:	00725f11 	rsbseq	r5, r2, r1, lsl pc
    40f0:	003cb705 	eorseq	fp, ip, r5, lsl #14
    40f4:	11040000 	mrsne	r0, (UNDEF: 4)
    40f8:	0500775f 	streq	r7, [r0, #-1887]	; 0xfffff8a1
    40fc:	00003cb8 			; <UNDEFINED> instruction: 0x00003cb8
    4100:	c00e0800 	andgt	r0, lr, r0, lsl #16
    4104:	05000006 	streq	r0, [r0, #-6]
    4108:	00005fb9 			; <UNDEFINED> instruction: 0x00005fb9
    410c:	9f0e0c00 	svcls	0x000e0c00
    4110:	05000007 	streq	r0, [r0, #-7]
    4114:	00005fba 			; <UNDEFINED> instruction: 0x00005fba
    4118:	5f110e00 	svcpl	0x00110e00
    411c:	05006662 	streq	r6, [r0, #-1634]	; 0xfffff99e
    4120:	0002d1bb 			; <UNDEFINED> instruction: 0x0002d1bb
    4124:	4d0e1000 	stcmi	0, cr1, [lr, #-0]
    4128:	05000006 	streq	r0, [r0, #-6]
    412c:	00003cbc 			; <UNDEFINED> instruction: 0x00003cbc
    4130:	b00e1800 	andlt	r1, lr, r0, lsl #16
    4134:	05000006 	streq	r0, [r0, #-6]
    4138:	000125c3 	andeq	r2, r1, r3, asr #11
    413c:	730e1c00 	movwvc	r1, #60416	; 0xec00
    4140:	05000007 	streq	r0, [r0, #-7]
    4144:	000581c5 	andeq	r8, r5, r5, asr #3
    4148:	260e2000 	strcs	r2, [lr], -r0
    414c:	05000008 	streq	r0, [r0, #-8]
    4150:	0005abc7 	andeq	sl, r5, r7, asr #23
    4154:	6b0e2400 	blvs	38d15c <__bss_end+0x377624>
    4158:	05000009 	streq	r0, [r0, #-9]
    415c:	0005cfca 	andeq	ip, r5, sl, asr #31
    4160:	720e2800 	andvc	r2, lr, #0, 16
    4164:	0500000a 	streq	r0, [r0, #-10]
    4168:	0005e9cb 	andeq	lr, r5, fp, asr #19
    416c:	5f112c00 	svcpl	0x00112c00
    4170:	05006275 	streq	r6, [r0, #-629]	; 0xfffffd8b
    4174:	0002d1ce 	andeq	sp, r2, lr, asr #3
    4178:	5f113000 	svcpl	0x00113000
    417c:	05007075 	streq	r7, [r0, #-117]	; 0xffffff8b
    4180:	0002f6cf 	andeq	pc, r2, pc, asr #13
    4184:	5f113800 	svcpl	0x00113800
    4188:	05007275 	streq	r7, [r0, #-629]	; 0xfffffd8b
    418c:	00003cd0 	ldrdeq	r3, [r0], -r0
    4190:	870e3c00 	strhi	r3, [lr, -r0, lsl #24]
    4194:	05000006 	streq	r0, [r0, #-6]
    4198:	0005efd3 	ldrdeq	lr, [r5], -r3
    419c:	4a0e4000 	bmi	3941a4 <__bss_end+0x37e66c>
    41a0:	0500000a 	streq	r0, [r0, #-10]
    41a4:	0005ffd4 	ldrdeq	pc, [r5], -r4
    41a8:	5f114300 	svcpl	0x00114300
    41ac:	0500626c 	streq	r6, [r0, #-620]	; 0xfffffd94
    41b0:	0002d1d7 	ldrdeq	sp, [r2], -r7
    41b4:	d60e4400 	strle	r4, [lr], -r0, lsl #8
    41b8:	05000006 	streq	r0, [r0, #-6]
    41bc:	00003cda 	ldrdeq	r3, [r0], -sl
    41c0:	e70e4c00 	str	r4, [lr, -r0, lsl #24]
    41c4:	05000006 	streq	r0, [r0, #-6]
    41c8:	00009ddb 	ldrdeq	r9, [r0], -fp
    41cc:	100e5000 	andne	r5, lr, r0
    41d0:	05000006 	streq	r0, [r0, #-6]
    41d4:	000444de 	ldrdeq	r4, [r4], -lr
    41d8:	5d0e5400 	cfstrspl	mvf5, [lr, #-0]
    41dc:	05000009 	streq	r0, [r0, #-9]
    41e0:	00011ae2 	andeq	r1, r1, r2, ror #21
    41e4:	e90e5800 	stmdb	lr, {fp, ip, lr}
    41e8:	05000008 	streq	r0, [r0, #-8]
    41ec:	00010fe4 	andeq	r0, r1, r4, ror #31
    41f0:	1e0e5c00 	cdpne	12, 0, cr5, cr14, cr0, {0}
    41f4:	05000008 	streq	r0, [r0, #-8]
    41f8:	00003ce5 	andeq	r3, r0, r5, ror #25
    41fc:	15006400 	strne	r6, [r0, #-1024]	; 0xfffffc00
    4200:	0000003c 	andeq	r0, r0, ip, lsr r0
    4204:	00000444 	andeq	r0, r0, r4, asr #8
    4208:	00044416 	andeq	r4, r4, r6, lsl r4
    420c:	01251600 			; <UNDEFINED> instruction: 0x01251600
    4210:	27160000 	ldrcs	r0, [r6, -r0]
    4214:	16000001 	strne	r0, [r0], -r1
    4218:	0000003c 	andeq	r0, r0, ip, lsr r0
    421c:	4f040600 	svcmi	0x00040600
    4220:	03000004 	movweq	r0, #4
    4224:	00000444 	andeq	r0, r0, r4, asr #8
    4228:	00094717 	andeq	r4, r9, r7, lsl r7
    422c:	05042800 	streq	r2, [r4, #-2048]	; 0xfffff800
    4230:	05810260 	streq	r0, [r1, #608]	; 0x260
    4234:	a7180000 	ldrge	r0, [r8, -r0]
    4238:	05000008 	streq	r0, [r0, #-8]
    423c:	003c0262 	eorseq	r0, ip, r2, ror #4
    4240:	18000000 	stmdane	r0, {}	; <UNPREDICTABLE>
    4244:	000006cf 	andeq	r0, r0, pc, asr #13
    4248:	56026705 	strpl	r6, [r2], -r5, lsl #14
    424c:	04000006 	streq	r0, [r0], #-6
    4250:	00078f18 	andeq	r8, r7, r8, lsl pc
    4254:	02670500 	rsbeq	r0, r7, #0, 10
    4258:	00000656 	andeq	r0, r0, r6, asr r6
    425c:	07541808 	ldrbeq	r1, [r4, -r8, lsl #16]
    4260:	67050000 	strvs	r0, [r5, -r0]
    4264:	00065602 	andeq	r5, r6, r2, lsl #12
    4268:	0a180c00 	beq	607270 <__bss_end+0x5f1738>
    426c:	05000009 	streq	r0, [r0, #-9]
    4270:	003c0269 	eorseq	r0, ip, r9, ror #4
    4274:	18100000 	ldmdane	r0, {}	; <UNPREDICTABLE>
    4278:	00000605 	andeq	r0, r0, r5, lsl #12
    427c:	38026a05 	stmdacc	r2, {r0, r2, r9, fp, sp, lr}
    4280:	14000008 	strne	r0, [r0], #-8
    4284:	00092618 	andeq	r2, r9, r8, lsl r6
    4288:	026d0500 	rsbeq	r0, sp, #0, 10
    428c:	0000003c 	andeq	r0, r0, ip, lsr r0
    4290:	09141830 	ldmdbeq	r4, {r4, r5, fp, ip}
    4294:	6e050000 	cdpvs	0, 0, cr0, cr5, cr0, {0}
    4298:	00084d02 	andeq	r4, r8, r2, lsl #26
    429c:	68183400 	ldmdavs	r8, {sl, ip, sp}
    42a0:	05000008 	streq	r0, [r0, #-8]
    42a4:	003c0270 	eorseq	r0, ip, r0, ror r2
    42a8:	18380000 	ldmdane	r8!, {}	; <UNPREDICTABLE>
    42ac:	0000091c 	andeq	r0, r0, ip, lsl r9
    42b0:	5e027205 	cdppl	2, 0, cr7, cr2, cr5, {0}
    42b4:	3c000008 	stccc	0, cr0, [r0], {8}
    42b8:	0007f518 	andeq	pc, r7, r8, lsl r5	; <UNPREDICTABLE>
    42bc:	02750500 	rsbseq	r0, r5, #0, 10
    42c0:	00000197 	muleq	r0, r7, r1
    42c4:	07791840 	ldrbeq	r1, [r9, -r0, asr #16]!
    42c8:	76050000 	strvc	r0, [r5], -r0
    42cc:	00003c02 	andeq	r3, r0, r2, lsl #24
    42d0:	8c184400 	cfldrshi	mvf4, [r8], {-0}
    42d4:	0500000a 	streq	r0, [r0, #-10]
    42d8:	01970277 	orrseq	r0, r7, r7, ror r2
    42dc:	18480000 	stmdane	r8, {}^	; <UNPREDICTABLE>
    42e0:	0000087a 	andeq	r0, r0, sl, ror r8
    42e4:	64027805 	strvs	r7, [r2], #-2053	; 0xfffff7fb
    42e8:	4c000008 	stcmi	0, cr0, [r0], {8}
    42ec:	00079718 	andeq	r9, r7, r8, lsl r7
    42f0:	027b0500 	rsbseq	r0, fp, #0, 10
    42f4:	0000003c 	andeq	r0, r0, ip, lsr r0
    42f8:	06df1850 			; <UNDEFINED> instruction: 0x06df1850
    42fc:	7c050000 	stcvc	0, cr0, [r5], {-0}
    4300:	00012702 	andeq	r2, r1, r2, lsl #14
    4304:	a0185400 	andsge	r5, r8, r0, lsl #8
    4308:	05000008 	streq	r0, [r0, #-8]
    430c:	0816029f 	ldmdaeq	r6, {r0, r1, r2, r3, r4, r7, r9}
    4310:	19580000 	ldmdbne	r8, {}^	; <UNPREDICTABLE>
    4314:	00000856 	andeq	r0, r0, r6, asr r8
    4318:	b402a305 	strlt	sl, [r2], #-773	; 0xfffffcfb
    431c:	48000002 	stmdami	r0, {r1}
    4320:	07ac1901 	streq	r1, [ip, r1, lsl #18]!
    4324:	a4050000 	strge	r0, [r5], #-0
    4328:	00027602 	andeq	r7, r2, r2, lsl #12
    432c:	19014c00 	stmdbne	r1, {sl, fp, lr}
    4330:	00000a2e 	andeq	r0, r0, lr, lsr #20
    4334:	7502a805 	strvc	sl, [r2, #-2053]	; 0xfffff7fb
    4338:	dc000008 	stcle	0, cr0, [r0], {8}
    433c:	06b81902 	ldrteq	r1, [r8], r2, lsl #18
    4340:	ad050000 	stcge	0, cr0, [r5, #-0]
    4344:	00061b02 	andeq	r1, r6, r2, lsl #22
    4348:	1902e000 	stmdbne	r2, {sp, lr, pc}
    434c:	0000069d 	muleq	r0, sp, r6
    4350:	8102af05 	tsthi	r2, r5, lsl #30
    4354:	ec000008 	stc	0, cr0, [r0], {8}
    4358:	04060002 	streq	r0, [r6], #-2
    435c:	00000426 	andeq	r0, r0, r6, lsr #8
    4360:	00003c15 	andeq	r3, r0, r5, lsl ip
    4364:	0005a500 	andeq	sl, r5, r0, lsl #10
    4368:	04441600 	strbeq	r1, [r4], #-1536	; 0xfffffa00
    436c:	25160000 	ldrcs	r0, [r6, #-0]
    4370:	16000001 	strne	r0, [r0], -r1
    4374:	000005a5 	andeq	r0, r0, r5, lsr #11
    4378:	00003c16 	andeq	r3, r0, r6, lsl ip
    437c:	04060000 	streq	r0, [r6], #-0
    4380:	00000134 	andeq	r0, r0, r4, lsr r1
    4384:	05870406 	streq	r0, [r7, #1030]	; 0x406
    4388:	a8150000 	ldmdage	r5, {}	; <UNPREDICTABLE>
    438c:	cf000000 	svcgt	0x00000000
    4390:	16000005 	strne	r0, [r0], -r5
    4394:	00000444 	andeq	r0, r0, r4, asr #8
    4398:	00012516 	andeq	r2, r1, r6, lsl r5
    439c:	00a81600 	adceq	r1, r8, r0, lsl #12
    43a0:	3c160000 	ldccc	0, cr0, [r6], {-0}
    43a4:	00000000 	andeq	r0, r0, r0
    43a8:	05b10406 	ldreq	r0, [r1, #1030]!	; 0x406
    43ac:	3c150000 	ldccc	0, cr0, [r5], {-0}
    43b0:	e9000000 	stmdb	r0, {}	; <UNPREDICTABLE>
    43b4:	16000005 	strne	r0, [r0], -r5
    43b8:	00000444 	andeq	r0, r0, r4, asr #8
    43bc:	00012516 	andeq	r2, r1, r6, lsl r5
    43c0:	04060000 	streq	r0, [r6], #-0
    43c4:	000005d5 	ldrdeq	r0, [r0], -r5
    43c8:	0000580b 	andeq	r5, r0, fp, lsl #16
    43cc:	0005ff00 	andeq	pc, r5, r0, lsl #30
    43d0:	00350c00 	eorseq	r0, r5, r0, lsl #24
    43d4:	00020000 	andeq	r0, r2, r0
    43d8:	0000580b 	andeq	r5, r0, fp, lsl #16
    43dc:	00060f00 	andeq	r0, r6, r0, lsl #30
    43e0:	00350c00 	eorseq	r0, r5, r0, lsl #24
    43e4:	00000000 	andeq	r0, r0, r0
    43e8:	0008cf08 	andeq	ip, r8, r8, lsl #30
    43ec:	011f0500 	tsteq	pc, r0, lsl #10
    43f0:	000002fc 	strdeq	r0, [r0], -ip
    43f4:	000a151a 	andeq	r1, sl, sl, lsl r5
    43f8:	23050c00 	movwcs	r0, #23552	; 0x5c00
    43fc:	00065001 	andeq	r5, r6, r1
    4400:	08f71800 	ldmeq	r7!, {fp, ip}^
    4404:	25050000 	strcs	r0, [r5, #-0]
    4408:	00065001 	andeq	r5, r6, r1
    440c:	a5180000 	ldrge	r0, [r8, #-0]
    4410:	05000007 	streq	r0, [r0, #-7]
    4414:	003c0126 	eorseq	r0, ip, r6, lsr #2
    4418:	18040000 	stmdane	r4, {}	; <UNPREDICTABLE>
    441c:	000008c9 	andeq	r0, r0, r9, asr #17
    4420:	56012705 	strpl	r2, [r1], -r5, lsl #14
    4424:	08000006 	stmdaeq	r0, {r1, r2}
    4428:	1b040600 	blne	105c30 <__bss_end+0xf00f8>
    442c:	06000006 	streq	r0, [r0], -r6
    4430:	00060f04 	andeq	r0, r6, r4, lsl #30
    4434:	05fd1a00 	ldrbeq	r1, [sp, #2560]!	; 0xa00
    4438:	050e0000 	streq	r0, [lr, #-0]
    443c:	0691013f 			; <UNDEFINED> instruction: 0x0691013f
    4440:	4e180000 	cdpmi	0, 1, cr0, cr8, cr0, {0}
    4444:	05000009 	streq	r0, [r0, #-9]
    4448:	06910140 	ldreq	r0, [r1], r0, asr #2
    444c:	18000000 	stmdane	r0, {}	; <UNPREDICTABLE>
    4450:	00000995 	muleq	r0, r5, r9
    4454:	91014105 	tstls	r1, r5, lsl #2
    4458:	06000006 	streq	r0, [r0], -r6
    445c:	0009b118 	andeq	fp, r9, r8, lsl r1
    4460:	01420500 	cmpeq	r2, r0, lsl #10
    4464:	00000066 	andeq	r0, r0, r6, rrx
    4468:	660b000c 	strvs	r0, [fp], -ip
    446c:	a1000000 	mrsge	r0, (UNDEF: 0)
    4470:	0c000006 	stceq	0, cr0, [r0], {6}
    4474:	00000035 	andeq	r0, r0, r5, lsr r0
    4478:	d01b0002 	andsle	r0, fp, r2
    447c:	a2028005 	andge	r8, r2, #5
    4480:	18000007 	stmdane	r0, {r0, r1, r2}
    4484:	000009e9 	andeq	r0, r0, r9, ror #19
    4488:	35028205 	strcc	r8, [r2, #-517]	; 0xfffffdfb
    448c:	00000000 	andeq	r0, r0, r0
    4490:	00099b18 	andeq	r9, r9, r8, lsl fp
    4494:	02830500 	addeq	r0, r3, #0, 10
    4498:	00000127 	andeq	r0, r0, r7, lsr #2
    449c:	07e81804 	strbeq	r1, [r8, r4, lsl #16]!
    44a0:	84050000 	strhi	r0, [r5], #-0
    44a4:	0007a202 	andeq	sl, r7, r2, lsl #4
    44a8:	63180800 	tstvs	r8, #0, 16
    44ac:	0500000a 	streq	r0, [r0, #-10]
    44b0:	01ad0285 			; <UNDEFINED> instruction: 0x01ad0285
    44b4:	18240000 	stmdane	r4!, {}	; <UNPREDICTABLE>
    44b8:	00000764 	andeq	r0, r0, r4, ror #14
    44bc:	3c028605 	stccc	6, cr8, [r2], {5}
    44c0:	48000000 	stmdami	r0, {}	; <UNPREDICTABLE>
    44c4:	0008f218 	andeq	pc, r8, r8, lsl r2	; <UNPREDICTABLE>
    44c8:	02870500 	addeq	r0, r7, #0, 10
    44cc:	00000080 	andeq	r0, r0, r0, lsl #1
    44d0:	0a791850 	beq	1e4a618 <__bss_end+0x1e34ae0>
    44d4:	88050000 	stmdahi	r5, {}	; <UNPREDICTABLE>
    44d8:	00065c02 	andeq	r5, r6, r2, lsl #24
    44dc:	fd185800 	ldc2	8, cr5, [r8, #-0]
    44e0:	05000008 	streq	r0, [r0, #-8]
    44e4:	010f0289 	smlabbeq	pc, r9, r2, r0	; <UNPREDICTABLE>
    44e8:	18680000 	stmdane	r8!, {}^	; <UNPREDICTABLE>
    44ec:	00000a7e 	andeq	r0, r0, lr, ror sl
    44f0:	0f028a05 	svceq	0x00028a05
    44f4:	70000001 	andvc	r0, r0, r1
    44f8:	00088418 	andeq	r8, r8, r8, lsl r4
    44fc:	028b0500 	addeq	r0, fp, #0, 10
    4500:	0000010f 	andeq	r0, r0, pc, lsl #2
    4504:	0a241878 	beq	90a6ec <__bss_end+0x8f4bb4>
    4508:	8c050000 	stchi	0, cr0, [r5], {-0}
    450c:	0007b202 	andeq	fp, r7, r2, lsl #4
    4510:	dc188000 	ldcle	0, cr8, [r8], {-0}
    4514:	05000007 	streq	r0, [r0, #-7]
    4518:	07c2028d 	strbeq	r0, [r2, sp, lsl #5]
    451c:	18880000 	stmne	r8, {}	; <UNPREDICTABLE>
    4520:	000009c9 	andeq	r0, r0, r9, asr #19
    4524:	3c028e05 	stccc	14, cr8, [r2], {5}
    4528:	a0000000 	andge	r0, r0, r0
    452c:	00071618 	andeq	r1, r7, r8, lsl r6
    4530:	028f0500 	addeq	r0, pc, #0, 10
    4534:	0000010f 	andeq	r0, r0, pc, lsl #2
    4538:	066f18a4 	strbteq	r1, [pc], -r4, lsr #17
    453c:	90050000 	andls	r0, r5, r0
    4540:	00010f02 	andeq	r0, r1, r2, lsl #30
    4544:	0518ac00 	ldreq	sl, [r8, #-3072]	; 0xfffff400
    4548:	05000007 	streq	r0, [r0, #-7]
    454c:	010f0291 			; <UNDEFINED> instruction: 0x010f0291
    4550:	18b40000 	ldmne	r4!, {}	; <UNPREDICTABLE>
    4554:	00000616 	andeq	r0, r0, r6, lsl r6
    4558:	0f029205 	svceq	0x00029205
    455c:	bc000001 	stclt	0, cr0, [r0], {1}
    4560:	00062518 	andeq	r2, r6, r8, lsl r5
    4564:	02930500 	addseq	r0, r3, #0, 10
    4568:	0000010f 	andeq	r0, r0, pc, lsl #2
    456c:	08a518c4 	stmiaeq	r5!, {r2, r6, r7, fp, ip}
    4570:	94050000 	strls	r0, [r5], #-0
    4574:	00003c02 	andeq	r3, r0, r2, lsl #24
    4578:	0b00cc00 	bleq	37580 <__bss_end+0x21a48>
    457c:	0000012d 	andeq	r0, r0, sp, lsr #2
    4580:	000007b2 			; <UNDEFINED> instruction: 0x000007b2
    4584:	0000350c 	andeq	r3, r0, ip, lsl #10
    4588:	0b001900 	bleq	a990 <__module_entries_end+0x28ec>
    458c:	0000012d 	andeq	r0, r0, sp, lsr #2
    4590:	000007c2 	andeq	r0, r0, r2, asr #15
    4594:	0000350c 	andeq	r3, r0, ip, lsl #10
    4598:	0b000700 	bleq	61a0 <_start-0x1e60>
    459c:	0000012d 	andeq	r0, r0, sp, lsr #2
    45a0:	000007d2 	ldrdeq	r0, [r0], -r2
    45a4:	0000350c 	andeq	r3, r0, ip, lsl #10
    45a8:	1b001700 	blne	a1b0 <__module_entries_end+0x210c>
    45ac:	029905f0 	addseq	r0, r9, #240, 10	; 0x3c000000
    45b0:	000007f6 	strdeq	r0, [r0], -r6
    45b4:	00084618 	andeq	r4, r8, r8, lsl r6
    45b8:	029c0500 	addseq	r0, ip, #0, 10
    45bc:	000007f6 	strdeq	r0, [r0], -r6
    45c0:	0a1b1800 	beq	6ca5c8 <__bss_end+0x6b4a90>
    45c4:	9d050000 	stcls	0, cr0, [r5, #-0]
    45c8:	00080602 	andeq	r0, r8, r2, lsl #12
    45cc:	0b007800 	bleq	225d4 <__bss_end+0xca9c>
    45d0:	000002f6 	strdeq	r0, [r0], -r6
    45d4:	00000806 	andeq	r0, r0, r6, lsl #16
    45d8:	0000350c 	andeq	r3, r0, ip, lsl #10
    45dc:	0b001d00 	bleq	b9e4 <__module_entries_end+0x3940>
    45e0:	00000035 	andeq	r0, r0, r5, lsr r0
    45e4:	00000816 	andeq	r0, r0, r6, lsl r8
    45e8:	0000350c 	andeq	r3, r0, ip, lsl #10
    45ec:	1c001d00 	stcne	13, cr1, [r0], {-0}
    45f0:	027e05f0 	rsbseq	r0, lr, #240, 10	; 0x3c000000
    45f4:	00000838 	andeq	r0, r0, r8, lsr r8
    45f8:	0009471d 	andeq	r4, r9, sp, lsl r7
    45fc:	02950500 	addseq	r0, r5, #0, 10
    4600:	000006a1 	andeq	r0, r0, r1, lsr #13
    4604:	000a501d 	andeq	r5, sl, sp, lsl r0
    4608:	029e0500 	addseq	r0, lr, #0, 10
    460c:	000007d2 	ldrdeq	r0, [r0], -r2
    4610:	012d0b00 			; <UNDEFINED> instruction: 0x012d0b00
    4614:	08480000 	stmdaeq	r8, {}^	; <UNPREDICTABLE>
    4618:	350c0000 	strcc	r0, [ip, #-0]
    461c:	18000000 	stmdane	r0, {}	; <UNPREDICTABLE>
    4620:	06560700 	ldrbeq	r0, [r6], -r0, lsl #14
    4624:	04060000 	streq	r0, [r6], #-0
    4628:	00000848 	andeq	r0, r0, r8, asr #16
    462c:	00085e1e 	andeq	r5, r8, lr, lsl lr
    4630:	04441600 	strbeq	r1, [r4], #-1536	; 0xfffffa00
    4634:	06000000 	streq	r0, [r0], -r0
    4638:	00085304 	andeq	r5, r8, r4, lsl #6
    463c:	97040600 	strls	r0, [r4, -r0, lsl #12]
    4640:	1e000001 	cdpne	0, 0, cr0, cr0, cr1, {0}
    4644:	00000875 	andeq	r0, r0, r5, ror r8
    4648:	00003c16 	andeq	r3, r0, r6, lsl ip
    464c:	04060000 	streq	r0, [r6], #-0
    4650:	0000087b 	andeq	r0, r0, fp, ror r8
    4654:	086a0406 	stmdaeq	sl!, {r1, r2, sl}^
    4658:	0f0b0000 	svceq	0x000b0000
    465c:	91000006 	tstls	r0, r6
    4660:	0c000008 	stceq	0, cr0, [r0], {8}
    4664:	00000035 	andeq	r0, r0, r5, lsr r0
    4668:	dd1f0002 	ldcle	0, cr0, [pc, #-8]	; 4668 <_start-0x3998>
    466c:	05000009 	streq	r0, [r0, #-9]
    4670:	0444032e 	strbeq	r0, [r4], #-814	; 0xfffffcd2
    4674:	d61f0000 	ldrle	r0, [pc], -r0
    4678:	05000009 	streq	r0, [r0, #-9]
    467c:	044a032f 	strbeq	r0, [sl], #-815	; 0xfffffcd1
    4680:	5e200000 	cdppl	0, 2, cr0, cr0, cr0, {0}
    4684:	06000008 	streq	r0, [r0], -r8
    4688:	00012763 	andeq	r2, r1, r3, ror #14
    468c:	178b2100 	strne	r2, [fp, r0, lsl #2]
    4690:	10000000 	andne	r0, r0, r0
    4694:	08d85c01 	ldmeq	r8, {r0, sl, fp, ip, lr}^
    4698:	c20a0000 	andgt	r0, sl, #0
    469c:	01000017 	tsteq	r0, r7, lsl r0
    46a0:	0008df5f 	andeq	sp, r8, pc, asr pc
    46a4:	180a0a00 	stmdane	sl, {r9, fp}
    46a8:	63010000 	movwvs	r0, #4096	; 0x1000
    46ac:	000008e4 	andeq	r0, r0, r4, ror #17
    46b0:	04080400 	streq	r0, [r8], #-1024	; 0xfffffc00
    46b4:	00000152 	andeq	r0, r0, r2, asr r1
    46b8:	0008d822 	andeq	sp, r8, r2, lsr #16
    46bc:	00580b00 	subseq	r0, r8, r0, lsl #22
    46c0:	08f50000 	ldmeq	r5!, {}^	; <UNPREDICTABLE>
    46c4:	35230000 	strcc	r0, [r3, #-0]!
    46c8:	ff000000 			; <UNDEFINED> instruction: 0xff000000
    46cc:	f224000f 	vhadd.s32	d0, d4, d15
    46d0:	01000018 	tsteq	r0, r8, lsl r0
    46d4:	0008b464 	andeq	fp, r8, r4, ror #8
    46d8:	28030500 	stmdacs	r3, {r8, sl}
    46dc:	1000014b 	andne	r0, r0, fp, asr #2
    46e0:	00001875 	andeq	r1, r0, r5, ror r8
    46e4:	2b680108 	blcs	1a04b0c <__bss_end+0x19eefd4>
    46e8:	0e000009 	cdpeq	0, 0, cr0, cr0, cr9, {0}
    46ec:	00001773 	andeq	r1, r0, r3, ror r7
    46f0:	092b6a01 	stmdbeq	fp!, {r0, r9, fp, sp, lr}
    46f4:	0e000000 	cdpeq	0, 0, cr0, cr0, cr0, {0}
    46f8:	00001768 	andeq	r1, r0, r8, ror #14
    46fc:	00256b01 	eoreq	r6, r5, r1, lsl #22
    4700:	00040000 	andeq	r0, r4, r0
    4704:	09060406 	stmdbeq	r6, {r1, r2, sl}
    4708:	d1020000 	mrsle	r0, (UNDEF: 2)
    470c:	01000018 	tsteq	r0, r8, lsl r0
    4710:	0009066c 	andeq	r0, r9, ip, ror #12
    4714:	18ad2400 	stmiane	sp!, {sl, sp}
    4718:	82010000 	andhi	r0, r1, #0
    471c:	0000006d 	andeq	r0, r0, sp, rrx
    4720:	442c0305 	strtmi	r0, [ip], #-773	; 0xfffffcfb
    4724:	59240001 	stmdbpl	r4!, {r0}
    4728:	01000017 	tsteq	r0, r7, lsl r0
    472c:	00003085 	andeq	r3, r0, r5, lsl #1
    4730:	30030500 	andcc	r0, r3, r0, lsl #10
    4734:	24000144 	strcs	r0, [r0], #-324	; 0xfffffebc
    4738:	00001796 	muleq	r0, r6, r7
    473c:	09318801 	ldmdbeq	r1!, {r0, fp, pc}
    4740:	03050000 	movweq	r0, #20480	; 0x5000
    4744:	00015b28 	andeq	r5, r1, r8, lsr #22
    4748:	0018dc24 	andseq	sp, r8, r4, lsr #24
    474c:	80880100 	addhi	r0, r8, r0, lsl #2
    4750:	05000009 	streq	r0, [r0, #-9]
    4754:	015b3003 	cmpeq	fp, r3
    4758:	31040600 	tstcc	r4, r0, lsl #12
    475c:	24000009 	strcs	r0, [r0], #-9
    4760:	000017f6 	strdeq	r1, [r0], -r6
    4764:	00258c01 	eoreq	r8, r5, r1, lsl #24
    4768:	03050000 	movweq	r0, #20480	; 0x5000
    476c:	00014750 	andeq	r4, r1, r0, asr r7
    4770:	0018c725 	andseq	ip, r8, r5, lsr #14
    4774:	25910100 	ldrcs	r0, [r1, #256]	; 0x100
    4778:	05000000 	streq	r0, [r0, #-0]
    477c:	015b3403 	cmpeq	fp, r3, lsl #8
    4780:	17d42600 	ldrbne	r2, [r4, r0, lsl #12]
    4784:	34010000 	strcc	r0, [r1], #-0
    4788:	01419401 	cmpeq	r1, r1, lsl #8
    478c:	00015400 	andeq	r5, r1, r0, lsl #8
    4790:	ec9c0100 	ldfs	f0, [ip], {0}
    4794:	27000009 	strcs	r0, [r0, -r9]
    4798:	000018e2 	andeq	r1, r0, r2, ror #17
    479c:	80013401 	andhi	r3, r1, r1, lsl #8
    47a0:	02000009 	andeq	r0, r0, #9
    47a4:	b6286c91 			; <UNDEFINED> instruction: 0xb6286c91
    47a8:	01000009 	tsteq	r0, r9
    47ac:	09800136 	stmibeq	r0, {r1, r2, r4, r5, r8}
    47b0:	91020000 	mrsls	r0, (UNDEF: 2)
    47b4:	75702974 	ldrbvc	r2, [r0, #-2420]!	; 0xfffff68c
    47b8:	37010063 	strcc	r0, [r1, -r3, rrx]
    47bc:	0002f601 	andeq	pc, r2, r1, lsl #12
    47c0:	70910200 	addsvc	r0, r1, r0, lsl #4
    47c4:	17aa2600 	strne	r2, [sl, r0, lsl #12]!
    47c8:	13010000 	movwne	r0, #4096	; 0x1000
    47cc:	0140bc01 	cmpeq	r0, r1, lsl #24
    47d0:	0000d800 	andeq	sp, r0, r0, lsl #16
    47d4:	219c0100 	orrscs	r0, ip, r0, lsl #2
    47d8:	2800000a 	stmdacs	r0, {r1, r3}
    47dc:	00001811 	andeq	r1, r0, r1, lsl r8
    47e0:	80011501 	andhi	r1, r1, r1, lsl #10
    47e4:	02000009 	andeq	r0, r0, #9
    47e8:	c9287091 	stmdbgt	r8!, {r0, r4, r7, ip, sp, lr}
    47ec:	01000017 	tsteq	r0, r7, lsl r0
    47f0:	02f60116 	rscseq	r0, r6, #-2147483643	; 0x80000005
    47f4:	91020000 	mrsls	r0, (UNDEF: 2)
    47f8:	972a0074 			; <UNDEFINED> instruction: 0x972a0074
    47fc:	01000018 	tsteq	r0, r8, lsl r0
    4800:	40a4010d 	adcmi	r0, r4, sp, lsl #2
    4804:	00180001 	andseq	r0, r8, r1
    4808:	9c010000 	stcls	0, cr0, [r1], {-0}
    480c:	0018822b 	andseq	r8, r8, fp, lsr #4
    4810:	01070100 	mrseq	r0, (UNDEF: 23)
    4814:	00000025 	andeq	r0, r0, r5, lsr #32
    4818:	00014080 	andeq	r4, r1, r0, lsl #1
    481c:	00000024 	andeq	r0, r0, r4, lsr #32
    4820:	bd2c9c01 	stclt	12, cr9, [ip, #-4]!
    4824:	01000018 	tsteq	r0, r8, lsl r0
    4828:	014004ee 	smlaltteq	r0, r0, lr, r4	; <UNPREDICTABLE>
    482c:	00007c00 	andeq	r7, r0, r0, lsl #24
    4830:	889c0100 	ldmhi	ip, {r8}
    4834:	2d00000a 	stccs	0, cr0, [r0, #-40]	; 0xffffffd8
    4838:	01007670 	tsteq	r0, r0, ror r6
    483c:	000125ee 	andeq	r2, r1, lr, ror #11
    4840:	6c910200 	lfmvs	f0, 4, [r1], {0}
    4844:	6375702e 	cmnvs	r5, #46	; 0x2e
    4848:	f6f00100 			; <UNDEFINED> instruction: 0xf6f00100
    484c:	02000002 	andeq	r0, r0, #2
    4850:	ef247491 	svc	0x00247491
    4854:	01000017 	tsteq	r0, r7, lsl r0
    4858:	000980f1 	strdeq	r8, [r9], -r1
    485c:	70910200 	addsvc	r0, r1, r0, lsl #4
    4860:	179d2f00 	ldrne	r2, [sp, r0, lsl #30]
    4864:	92010000 	andls	r0, r1, #0
    4868:	00000125 	andeq	r0, r0, r5, lsr #2
    486c:	00013e3c 	andeq	r3, r1, ip, lsr lr
    4870:	000001c8 	andeq	r0, r0, r8, asr #3
    4874:	b6309c01 	ldrtlt	r9, [r0], -r1, lsl #24
    4878:	01000017 	tsteq	r0, r7, lsl r0
    487c:	00002592 	muleq	r0, r2, r5
    4880:	64910200 	ldrvs	r0, [r1], #512	; 0x200
    4884:	00178324 	andseq	r8, r7, r4, lsr #6
    4888:	80940100 	addshi	r0, r4, r0, lsl #2
    488c:	02000009 	andeq	r0, r0, #9
    4890:	49247491 	stmdbmi	r4!, {r0, r4, r7, sl, ip, sp, lr}
    4894:	01000017 	tsteq	r0, r7, lsl r0
    4898:	00098094 	muleq	r9, r4, r0
    489c:	70910200 	addsvc	r0, r1, r0, lsl #4
    48a0:	00182224 	andseq	r2, r8, r4, lsr #4
    48a4:	80940100 	addshi	r0, r4, r0, lsl #2
    48a8:	02000009 	andeq	r0, r0, #9
    48ac:	31246891 			; <UNDEFINED> instruction: 0x31246891
    48b0:	01000018 	tsteq	r0, r8, lsl r0
    48b4:	00012595 	muleq	r1, r5, r5
    48b8:	6c910200 	lfmvs	f0, 4, [r1], {0}
    48bc:	00d00000 	sbcseq	r0, r0, r0
    48c0:	00040000 	andeq	r0, r4, r0
    48c4:	00000fac 	andeq	r0, r0, ip, lsr #31
    48c8:	009a0104 	addseq	r0, sl, r4, lsl #2
    48cc:	f80c0000 			; <UNDEFINED> instruction: 0xf80c0000
    48d0:	0c000018 	stceq	0, cr0, [r0], {24}
    48d4:	00000000 	andeq	r0, r0, r0
    48d8:	18000143 	stmdane	r0, {r0, r1, r6, r8}
    48dc:	31000001 	tstcc	r0, r1
    48e0:	02000011 	andeq	r0, r0, #17
    48e4:	6e690504 	cdpvs	5, 6, cr0, cr9, cr4, {0}
    48e8:	04030074 	streq	r0, [r3], #-116	; 0xffffff8c
    48ec:	00064007 	andeq	r4, r6, r7
    48f0:	05080300 	streq	r0, [r8, #-768]	; 0xfffffd00
    48f4:	0000011f 	andeq	r0, r0, pc, lsl r1
    48f8:	4d040803 	stcmi	8, cr0, [r4, #-12]
    48fc:	04000001 	streq	r0, [r0], #-1
    4900:	07040304 	streq	r0, [r4, -r4, lsl #6]
    4904:	0000063b 	andeq	r0, r0, fp, lsr r6
    4908:	24050403 	strcs	r0, [r5], #-1027	; 0xfffffbfd
    490c:	03000001 	movweq	r0, #1
    4910:	08940601 	ldmeq	r4, {r0, r9, sl}
    4914:	02030000 	andeq	r0, r3, #0
    4918:	00006907 	andeq	r6, r0, r7, lsl #18
    491c:	08010300 	stmdaeq	r1, {r8, r9}
    4920:	00000892 	muleq	r0, r2, r8
    4924:	00191a05 	andseq	r1, r9, r5, lsl #20
    4928:	80660100 	rsbhi	r0, r6, r0, lsl #2
    492c:	98000143 	stmdals	r0, {r0, r1, r6, r8}
    4930:	01000000 	mrseq	r0, (UNDEF: 0)
    4934:	1914069c 	ldmdbne	r4, {r2, r3, r4, r7, r9, sl}
    4938:	54010000 	strpl	r0, [r1], #-0
    493c:	0001433c 	andeq	r4, r1, ip, lsr r3
    4940:	00000044 	andeq	r0, r0, r4, asr #32
    4944:	00a79c01 	adceq	r9, r7, r1, lsl #24
    4948:	40070000 	andmi	r0, r7, r0
    494c:	01000000 	mrseq	r0, (UNDEF: 0)
    4950:	00004154 	andeq	r4, r0, r4, asr r1
    4954:	6c910200 	lfmvs	f0, 4, [r1], {0}
    4958:	01006908 	tsteq	r0, r8, lsl #18
    495c:	00002556 	andeq	r2, r0, r6, asr r5
    4960:	74910200 	ldrvc	r0, [r1], #512	; 0x200
    4964:	191f0900 	ldmdbne	pc, {r8, fp}	; <UNPREDICTABLE>
    4968:	4a010000 	bmi	44970 <__bss_end+0x2ee38>
    496c:	00014300 	andeq	r4, r1, r0, lsl #6
    4970:	0000003c 	andeq	r0, r0, ip, lsr r0
    4974:	40079c01 	andmi	r9, r7, r1, lsl #24
    4978:	01000000 	mrseq	r0, (UNDEF: 0)
    497c:	0000414a 	andeq	r4, r0, sl, asr #2
    4980:	6c910200 	lfmvs	f0, 4, [r1], {0}
    4984:	01006908 	tsteq	r0, r8, lsl #18
    4988:	0000254c 	andeq	r2, r0, ip, asr #10
    498c:	74910200 	ldrvc	r0, [r1], #512	; 0x200
	...

Disassembly of section .debug_abbrev:

00000000 <.debug_abbrev>:
       0:	25011101 	strcs	r1, [r1, #-257]	; 0xfffffeff
       4:	030b130e 	movweq	r1, #45838	; 0xb30e
       8:	110e1b0e 	tstne	lr, lr, lsl #22
       c:	10061201 	andne	r1, r6, r1, lsl #4
      10:	02000017 	andeq	r0, r0, #23
      14:	0b0b0024 	bleq	2c00ac <__bss_end+0x2aa574>
      18:	08030b3e 	stmdaeq	r3, {r1, r2, r3, r4, r5, r8, r9, fp}
      1c:	24030000 	strcs	r0, [r3], #-0
      20:	3e0b0b00 	vmlacc.f64	d0, d11, d0
      24:	000e030b 	andeq	r0, lr, fp, lsl #6
      28:	00160400 	andseq	r0, r6, r0, lsl #8
      2c:	0b3a0e03 	bleq	e83840 <__bss_end+0xe6dd08>
      30:	13490b3b 	movtne	r0, #39739	; 0x9b3b
      34:	0f050000 	svceq	0x00050000
      38:	490b0b00 	stmdbmi	fp, {r8, r9, fp}
      3c:	06000013 			; <UNDEFINED> instruction: 0x06000013
      40:	19270115 	stmdbne	r7!, {r0, r2, r4, r8}
      44:	00001301 	andeq	r1, r0, r1, lsl #6
      48:	49000507 	stmdbmi	r0, {r0, r1, r2, r8, sl}
      4c:	08000013 	stmdaeq	r0, {r0, r1, r4}
      50:	0b0b000f 	bleq	2c0094 <__bss_end+0x2aa55c>
      54:	13090000 	movwne	r0, #36864	; 0x9000
      58:	0b0e0301 	bleq	380c64 <__bss_end+0x36b12c>
      5c:	3b0b3a0b 	blcc	2ce890 <__bss_end+0x2b8d58>
      60:	0013010b 	andseq	r0, r3, fp, lsl #2
      64:	000d0a00 	andeq	r0, sp, r0, lsl #20
      68:	0b3a0803 	bleq	e8207c <__bss_end+0xe6c544>
      6c:	13490b3b 	movtne	r0, #39739	; 0x9b3b
      70:	00000b38 	andeq	r0, r0, r8, lsr fp
      74:	4900350b 	stmdbmi	r0, {r0, r1, r3, r8, sl, ip, sp}
      78:	0c000013 	stceq	0, cr0, [r0], {19}
      7c:	0e030034 	mcreq	0, 0, r0, cr3, cr4, {1}
      80:	0b3b0b3a 	bleq	ec2d70 <__bss_end+0xead238>
      84:	18021349 	stmdane	r2, {r0, r3, r6, r8, r9, ip}
      88:	260d0000 	strcs	r0, [sp], -r0
      8c:	00134900 	andseq	r4, r3, r0, lsl #18
      90:	012e0e00 			; <UNDEFINED> instruction: 0x012e0e00
      94:	0b3a0e03 	bleq	e838a8 <__bss_end+0xe6dd70>
      98:	19270b3b 	stmdbne	r7!, {r0, r1, r3, r4, r5, r8, r9, fp}
      9c:	06120111 			; <UNDEFINED> instruction: 0x06120111
      a0:	42961840 	addsmi	r1, r6, #64, 16	; 0x400000
      a4:	00130119 	andseq	r0, r3, r9, lsl r1
      a8:	012e0f00 			; <UNDEFINED> instruction: 0x012e0f00
      ac:	0e03193f 			; <UNDEFINED> instruction: 0x0e03193f
      b0:	0b3b0b3a 	bleq	ec2da0 <__bss_end+0xead268>
      b4:	01111927 	tsteq	r1, r7, lsr #18
      b8:	18400612 	stmdane	r0, {r1, r4, r9, sl}^
      bc:	01194296 			; <UNDEFINED> instruction: 0x01194296
      c0:	10000013 	andne	r0, r0, r3, lsl r0
      c4:	0e030005 	cdpeq	0, 0, cr0, cr3, cr5, {0}
      c8:	0b3b0b3a 	bleq	ec2db8 <__bss_end+0xead280>
      cc:	18021349 	stmdane	r2, {r0, r3, r6, r8, r9, ip}
      d0:	2e110000 	cdpcs	0, 1, cr0, cr1, cr0, {0}
      d4:	03193f00 	tsteq	r9, #0, 30
      d8:	3b0b3a0e 	blcc	2ce918 <__bss_end+0x2b8de0>
      dc:	1119270b 	tstne	r9, fp, lsl #14
      e0:	40061201 	andmi	r1, r6, r1, lsl #4
      e4:	19429718 	stmdbne	r2, {r3, r4, r8, r9, sl, ip, pc}^
      e8:	2e120000 	cdpcs	0, 1, cr0, cr2, cr0, {0}
      ec:	03193f00 	tsteq	r9, #0, 30
      f0:	3b0b3a0e 	blcc	2ce930 <__bss_end+0x2b8df8>
      f4:	4919270b 	ldmdbmi	r9, {r0, r1, r3, r8, r9, sl, sp}
      f8:	12011113 	andne	r1, r1, #-1073741820	; 0xc0000004
      fc:	96184006 	ldrls	r4, [r8], -r6
     100:	00001942 	andeq	r1, r0, r2, asr #18
     104:	3f012e13 	svccc	0x00012e13
     108:	3a0e0319 	bcc	380d74 <__bss_end+0x36b23c>
     10c:	270b3b0b 	strcs	r3, [fp, -fp, lsl #22]
     110:	11134919 	tstne	r3, r9, lsl r9
     114:	40061201 	andmi	r1, r6, r1, lsl #4
     118:	19429718 	stmdbne	r2, {r3, r4, r8, r9, sl, ip, pc}^
     11c:	01000000 	mrseq	r0, (UNDEF: 0)
     120:	0e250111 	mcreq	1, 1, r0, cr5, cr1, {0}
     124:	0e030b13 	vmoveq.32	d3[0], r0
     128:	01110e1b 	tsteq	r1, fp, lsl lr
     12c:	17100612 			; <UNDEFINED> instruction: 0x17100612
     130:	24020000 	strcs	r0, [r2], #-0
     134:	3e0b0b00 	vmlacc.f64	d0, d11, d0
     138:	0008030b 	andeq	r0, r8, fp, lsl #6
     13c:	00240300 	eoreq	r0, r4, r0, lsl #6
     140:	0b3e0b0b 	bleq	f82d74 <__bss_end+0xf6d23c>
     144:	00000e03 	andeq	r0, r0, r3, lsl #28
     148:	49003504 	stmdbmi	r0, {r2, r8, sl, ip, sp}
     14c:	05000013 	streq	r0, [r0, #-19]	; 0xffffffed
     150:	0e030034 	mcreq	0, 0, r0, cr3, cr4, {1}
     154:	0b3b0b3a 	bleq	ec2e44 <__bss_end+0xead30c>
     158:	193f1349 	ldmdbne	pc!, {r0, r3, r6, r8, r9, ip}	; <UNPREDICTABLE>
     15c:	00001802 	andeq	r1, r0, r2, lsl #16
     160:	3f002e06 	svccc	0x00002e06
     164:	3a0e0319 	bcc	380dd0 <__bss_end+0x36b298>
     168:	270b3b0b 	strcs	r3, [fp, -fp, lsl #22]
     16c:	12011119 	andne	r1, r1, #1073741830	; 0x40000006
     170:	97184006 	ldrls	r4, [r8, -r6]
     174:	00001942 	andeq	r1, r0, r2, asr #18
     178:	3f012e07 	svccc	0x00012e07
     17c:	3a0e0319 	bcc	380de8 <__bss_end+0x36b2b0>
     180:	270b3b0b 	strcs	r3, [fp, -fp, lsl #22]
     184:	12011119 	andne	r1, r1, #1073741830	; 0x40000006
     188:	96184006 	ldrls	r4, [r8], -r6
     18c:	13011942 	movwne	r1, #6466	; 0x1942
     190:	0b080000 	bleq	200198 <__bss_end+0x1ea660>
     194:	12011101 	andne	r1, r1, #1073741824	; 0x40000000
     198:	00130106 	andseq	r0, r3, r6, lsl #2
     19c:	00340900 	eorseq	r0, r4, r0, lsl #18
     1a0:	0b3a0e03 	bleq	e839b4 <__bss_end+0xe6de7c>
     1a4:	13490b3b 	movtne	r0, #39739	; 0x9b3b
     1a8:	193c193f 	ldmdbne	ip!, {r0, r1, r2, r3, r4, r5, r8, fp, ip}
     1ac:	0b0a0000 	bleq	2801b4 <__bss_end+0x26a67c>
     1b0:	12011101 	andne	r1, r1, #1073741824	; 0x40000000
     1b4:	0b000006 	bleq	1d4 <_start-0x7e2c>
     1b8:	0b0b000f 	bleq	2c01fc <__bss_end+0x2aa6c4>
     1bc:	00001349 	andeq	r1, r0, r9, asr #6
     1c0:	0000350c 	andeq	r3, r0, ip, lsl #10
     1c4:	012e0d00 			; <UNDEFINED> instruction: 0x012e0d00
     1c8:	0e03193f 			; <UNDEFINED> instruction: 0x0e03193f
     1cc:	0b3b0b3a 	bleq	ec2ebc <__bss_end+0xead384>
     1d0:	01111927 	tsteq	r1, r7, lsr #18
     1d4:	18400612 	stmdane	r0, {r1, r4, r9, sl}^
     1d8:	01194297 			; <UNDEFINED> instruction: 0x01194297
     1dc:	0e000013 	mcreq	0, 0, r0, cr0, cr3, {0}
     1e0:	193f012e 	ldmdbne	pc!, {r1, r2, r3, r5, r8}	; <UNPREDICTABLE>
     1e4:	0b3a0e03 	bleq	e839f8 <__bss_end+0xe6dec0>
     1e8:	19270b3b 	stmdbne	r7!, {r0, r1, r3, r4, r5, r8, r9, fp}
     1ec:	06120111 			; <UNDEFINED> instruction: 0x06120111
     1f0:	42971840 	addsmi	r1, r7, #64, 16	; 0x400000
     1f4:	00000019 	andeq	r0, r0, r9, lsl r0
     1f8:	25011101 	strcs	r1, [r1, #-257]	; 0xfffffeff
     1fc:	030b130e 	movweq	r1, #45838	; 0xb30e
     200:	110e1b0e 	tstne	lr, lr, lsl #22
     204:	10061201 	andne	r1, r6, r1, lsl #4
     208:	02000017 	andeq	r0, r0, #23
     20c:	0b0b0024 	bleq	2c02a4 <__bss_end+0x2aa76c>
     210:	08030b3e 	stmdaeq	r3, {r1, r2, r3, r4, r5, r8, r9, fp}
     214:	24030000 	strcs	r0, [r3], #-0
     218:	3e0b0b00 	vmlacc.f64	d0, d11, d0
     21c:	000e030b 	andeq	r0, lr, fp, lsl #6
     220:	000f0400 	andeq	r0, pc, r0, lsl #8
     224:	00000b0b 	andeq	r0, r0, fp, lsl #22
     228:	03001605 	movweq	r1, #1541	; 0x605
     22c:	3b0b3a0e 	blcc	2cea6c <__bss_end+0x2b8f34>
     230:	0013490b 	andseq	r4, r3, fp, lsl #18
     234:	00350600 	eorseq	r0, r5, r0, lsl #12
     238:	00001349 	andeq	r1, r0, r9, asr #6
     23c:	03011307 	movweq	r1, #4871	; 0x1307
     240:	3a0b0b0e 	bcc	2c2e80 <__bss_end+0x2ad348>
     244:	010b3b0b 	tsteq	fp, fp, lsl #22
     248:	08000013 	stmdaeq	r0, {r0, r1, r4}
     24c:	0e03000d 	cdpeq	0, 0, cr0, cr3, cr13, {0}
     250:	0b3b0b3a 	bleq	ec2f40 <__bss_end+0xead408>
     254:	0b381349 	bleq	e04f80 <__bss_end+0xdef448>
     258:	0f090000 	svceq	0x00090000
     25c:	490b0b00 	stmdbmi	fp, {r8, r9, fp}
     260:	0a000013 	beq	2b4 <_start-0x7d4c>
     264:	13490026 	movtne	r0, #36902	; 0x9026
     268:	150b0000 	strne	r0, [fp, #-0]
     26c:	01192701 	tsteq	r9, r1, lsl #14
     270:	0c000013 	stceq	0, cr0, [r0], {19}
     274:	13490005 	movtne	r0, #36869	; 0x9005
     278:	010d0000 	mrseq	r0, (UNDEF: 13)
     27c:	01134901 	tsteq	r3, r1, lsl #18
     280:	0e000013 	mcreq	0, 0, r0, cr0, cr3, {0}
     284:	13490021 	movtne	r0, #36897	; 0x9021
     288:	00000b2f 	andeq	r0, r0, pc, lsr #22
     28c:	0300340f 	movweq	r3, #1039	; 0x40f
     290:	3b0b3a0e 	blcc	2cead0 <__bss_end+0x2b8f98>
     294:	0213490b 	andseq	r4, r3, #180224	; 0x2c000
     298:	10000018 	andne	r0, r0, r8, lsl r0
     29c:	0e030034 	mcreq	0, 0, r0, cr3, cr4, {1}
     2a0:	0b3b0b3a 	bleq	ec2f90 <__bss_end+0xead458>
     2a4:	193f1349 	ldmdbne	pc!, {r0, r3, r6, r8, r9, ip}	; <UNPREDICTABLE>
     2a8:	00001802 	andeq	r1, r0, r2, lsl #16
     2ac:	3f012e11 	svccc	0x00012e11
     2b0:	3a0e0319 	bcc	380f1c <__bss_end+0x36b3e4>
     2b4:	27053b0b 	strcs	r3, [r5, -fp, lsl #22]
     2b8:	11134919 	tstne	r3, r9, lsl r9
     2bc:	40061201 	andmi	r1, r6, r1, lsl #4
     2c0:	19429618 	stmdbne	r2, {r3, r4, r9, sl, ip, pc}^
     2c4:	00001301 	andeq	r1, r0, r1, lsl #6
     2c8:	03000512 	movweq	r0, #1298	; 0x512
     2cc:	3b0b3a0e 	blcc	2ceb0c <__bss_end+0x2b8fd4>
     2d0:	02134905 	andseq	r4, r3, #81920	; 0x14000
     2d4:	13000018 	movwne	r0, #24
     2d8:	0e030034 	mcreq	0, 0, r0, cr3, cr4, {1}
     2dc:	053b0b3a 	ldreq	r0, [fp, #-2874]!	; 0xfffff4c6
     2e0:	18021349 	stmdane	r2, {r0, r3, r6, r8, r9, ip}
     2e4:	2e140000 	cdpcs	0, 1, cr0, cr4, cr0, {0}
     2e8:	3a0e0301 	bcc	380ef4 <__bss_end+0x36b3bc>
     2ec:	27053b0b 	strcs	r3, [r5, -fp, lsl #22]
     2f0:	12011119 	andne	r1, r1, #1073741830	; 0x40000006
     2f4:	96184006 	ldrls	r4, [r8], -r6
     2f8:	13011942 	movwne	r1, #6466	; 0x1942
     2fc:	2e150000 	cdpcs	0, 1, cr0, cr5, cr0, {0}
     300:	03193f01 	tsteq	r9, #1, 30
     304:	3b0b3a0e 	blcc	2ceb44 <__bss_end+0x2b900c>
     308:	11192705 	tstne	r9, r5, lsl #14
     30c:	40061201 	andmi	r1, r6, r1, lsl #4
     310:	19429618 	stmdbne	r2, {r3, r4, r9, sl, ip, pc}^
     314:	00001301 	andeq	r1, r0, r1, lsl #6
     318:	11010b16 	tstne	r1, r6, lsl fp
     31c:	00061201 	andeq	r1, r6, r1, lsl #4
     320:	012e1700 			; <UNDEFINED> instruction: 0x012e1700
     324:	0b3a0e03 	bleq	e83b38 <__bss_end+0xe6e000>
     328:	19270b3b 	stmdbne	r7!, {r0, r1, r3, r4, r5, r8, r9, fp}
     32c:	06120111 			; <UNDEFINED> instruction: 0x06120111
     330:	42961840 	addsmi	r1, r6, #64, 16	; 0x400000
     334:	00130119 	andseq	r0, r3, r9, lsl r1
     338:	012e1800 			; <UNDEFINED> instruction: 0x012e1800
     33c:	0e03193f 			; <UNDEFINED> instruction: 0x0e03193f
     340:	0b3b0b3a 	bleq	ec3030 <__bss_end+0xead4f8>
     344:	01111927 	tsteq	r1, r7, lsr #18
     348:	18400612 	stmdane	r0, {r1, r4, r9, sl}^
     34c:	01194296 			; <UNDEFINED> instruction: 0x01194296
     350:	19000013 	stmdbne	r0, {r0, r1, r4}
     354:	0e030005 	cdpeq	0, 0, cr0, cr3, cr5, {0}
     358:	0b3b0b3a 	bleq	ec3048 <__bss_end+0xead510>
     35c:	18021349 	stmdane	r2, {r0, r3, r6, r8, r9, ip}
     360:	2e1a0000 	cdpcs	0, 1, cr0, cr10, cr0, {0}
     364:	03193f01 	tsteq	r9, #1, 30
     368:	3b0b3a0e 	blcc	2ceba8 <__bss_end+0x2b9070>
     36c:	4919270b 	ldmdbmi	r9, {r0, r1, r3, r8, r9, sl, sp}
     370:	12011113 	andne	r1, r1, #-1073741820	; 0xc0000004
     374:	96184006 	ldrls	r4, [r8], -r6
     378:	00001942 	andeq	r1, r0, r2, asr #18
     37c:	01110100 	tsteq	r1, r0, lsl #2
     380:	0b130e25 	bleq	4c3c1c <__bss_end+0x4ae0e4>
     384:	0e1b0e03 	cdpeq	14, 1, cr0, cr11, cr3, {0}
     388:	06120111 			; <UNDEFINED> instruction: 0x06120111
     38c:	00001710 	andeq	r1, r0, r0, lsl r7
     390:	0b002402 	bleq	93a0 <__module_entries_end+0x12fc>
     394:	030b3e0b 	movweq	r3, #48651	; 0xbe0b
     398:	0300000e 	movweq	r0, #14
     39c:	0b0b0024 	bleq	2c0434 <__bss_end+0x2aa8fc>
     3a0:	08030b3e 	stmdaeq	r3, {r1, r2, r3, r4, r5, r8, r9, fp}
     3a4:	35040000 	strcc	r0, [r4, #-0]
     3a8:	00134900 	andseq	r4, r3, r0, lsl #18
     3ac:	00160500 	andseq	r0, r6, r0, lsl #10
     3b0:	0b3a0e03 	bleq	e83bc4 <__bss_end+0xe6e08c>
     3b4:	13490b3b 	movtne	r0, #39739	; 0x9b3b
     3b8:	0f060000 	svceq	0x00060000
     3bc:	490b0b00 	stmdbmi	fp, {r8, r9, fp}
     3c0:	07000013 	smladeq	r0, r3, r0, r0
     3c4:	0e030013 	mcreq	0, 0, r0, cr3, cr3, {0}
     3c8:	0000193c 	andeq	r1, r0, ip, lsr r9
     3cc:	03001608 	movweq	r1, #1544	; 0x608
     3d0:	3b0b3a0e 	blcc	2cec10 <__bss_end+0x2b90d8>
     3d4:	00134905 	andseq	r4, r3, r5, lsl #18
     3d8:	01170900 	tsteq	r7, r0, lsl #18
     3dc:	0b3a0b0b 	bleq	e83010 <__bss_end+0xe6d4d8>
     3e0:	13010b3b 	movwne	r0, #6971	; 0x1b3b
     3e4:	0d0a0000 	stceq	0, cr0, [sl, #-0]
     3e8:	3a0e0300 	bcc	380ff0 <__bss_end+0x36b4b8>
     3ec:	490b3b0b 	stmdbmi	fp, {r0, r1, r3, r8, r9, fp, ip, sp}
     3f0:	0b000013 	bleq	444 <_start-0x7bbc>
     3f4:	13490101 	movtne	r0, #37121	; 0x9101
     3f8:	00001301 	andeq	r1, r0, r1, lsl #6
     3fc:	4900210c 	stmdbmi	r0, {r2, r3, r8, sp}
     400:	000b2f13 	andeq	r2, fp, r3, lsl pc
     404:	01130d00 	tsteq	r3, r0, lsl #26
     408:	0b3a0b0b 	bleq	e8303c <__bss_end+0xe6d504>
     40c:	13010b3b 	movwne	r0, #6971	; 0x1b3b
     410:	0d0e0000 	stceq	0, cr0, [lr, #-0]
     414:	3a0e0300 	bcc	38101c <__bss_end+0x36b4e4>
     418:	490b3b0b 	stmdbmi	fp, {r0, r1, r3, r8, r9, fp, ip, sp}
     41c:	000b3813 	andeq	r3, fp, r3, lsl r8
     420:	000f0f00 	andeq	r0, pc, r0, lsl #30
     424:	00000b0b 	andeq	r0, r0, fp, lsl #22
     428:	49002610 	stmdbmi	r0, {r4, r9, sl, sp}
     42c:	11000013 	tstne	r0, r3, lsl r0
     430:	0e030113 	mcreq	1, 0, r0, cr3, cr3, {0}
     434:	0b3a0b0b 	bleq	e83068 <__bss_end+0xe6d530>
     438:	13010b3b 	movwne	r0, #6971	; 0x1b3b
     43c:	0d120000 	ldceq	0, cr0, [r2, #-0]
     440:	3a080300 	bcc	201048 <__bss_end+0x1eb510>
     444:	490b3b0b 	stmdbmi	fp, {r0, r1, r3, r8, r9, fp, ip, sp}
     448:	000b3813 	andeq	r3, fp, r3, lsl r8
     44c:	01131300 	tsteq	r3, r0, lsl #6
     450:	050b0e03 	streq	r0, [fp, #-3587]	; 0xfffff1fd
     454:	0b3b0b3a 	bleq	ec3144 <__bss_end+0xead60c>
     458:	00001301 	andeq	r1, r0, r1, lsl #6
     45c:	03000d14 	movweq	r0, #3348	; 0xd14
     460:	3b0b3a0e 	blcc	2ceca0 <__bss_end+0x2b9168>
     464:	3813490b 	ldmdacc	r3, {r0, r1, r3, r8, fp, lr}
     468:	15000005 	strne	r0, [r0, #-5]
     46c:	19270015 	stmdbne	r7!, {r0, r2, r4}
     470:	15160000 	ldrne	r0, [r6, #-0]
     474:	49192701 	ldmdbmi	r9, {r0, r8, r9, sl, sp}
     478:	00130113 	andseq	r0, r3, r3, lsl r1
     47c:	00051700 	andeq	r1, r5, r0, lsl #14
     480:	00001349 	andeq	r1, r0, r9, asr #6
     484:	03011318 	movweq	r1, #4888	; 0x1318
     488:	3a050b0e 	bcc	1430c8 <__bss_end+0x12d590>
     48c:	01053b0b 	tsteq	r5, fp, lsl #22
     490:	19000013 	stmdbne	r0, {r0, r1, r4}
     494:	0e03000d 	cdpeq	0, 0, cr0, cr3, cr13, {0}
     498:	053b0b3a 	ldreq	r0, [fp, #-2874]!	; 0xfffff4c6
     49c:	0b381349 	bleq	e051c8 <__bss_end+0xdef690>
     4a0:	0d1a0000 	ldceq	0, cr0, [sl, #-0]
     4a4:	3a0e0300 	bcc	3810ac <__bss_end+0x36b574>
     4a8:	49053b0b 	stmdbmi	r5, {r0, r1, r3, r8, r9, fp, ip, sp}
     4ac:	00053813 	andeq	r3, r5, r3, lsl r8
     4b0:	01131b00 	tsteq	r3, r0, lsl #22
     4b4:	0b0b0e03 	bleq	2c3cc8 <__bss_end+0x2ae190>
     4b8:	053b0b3a 	ldreq	r0, [fp, #-2874]!	; 0xfffff4c6
     4bc:	00001301 	andeq	r1, r0, r1, lsl #6
     4c0:	0b01131c 	bleq	45138 <__bss_end+0x2f600>
     4c4:	3b0b3a0b 	blcc	2cecf8 <__bss_end+0x2b91c0>
     4c8:	00130105 	andseq	r0, r3, r5, lsl #2
     4cc:	01171d00 	tsteq	r7, r0, lsl #26
     4d0:	0b3a0b0b 	bleq	e83104 <__bss_end+0xe6d5cc>
     4d4:	1301053b 	movwne	r0, #5435	; 0x153b
     4d8:	0d1e0000 	ldceq	0, cr0, [lr, #-0]
     4dc:	3a0e0300 	bcc	3810e4 <__bss_end+0x36b5ac>
     4e0:	49053b0b 	stmdbmi	r5, {r0, r1, r3, r8, r9, fp, ip, sp}
     4e4:	1f000013 	svcne	0x00000013
     4e8:	19270115 	stmdbne	r7!, {r0, r2, r4, r8}
     4ec:	00001301 	andeq	r1, r0, r1, lsl #6
     4f0:	03003420 	movweq	r3, #1056	; 0x420
     4f4:	3b0b3a0e 	blcc	2ced34 <__bss_end+0x2b91fc>
     4f8:	3f134905 	svccc	0x00134905
     4fc:	00193c19 	andseq	r3, r9, r9, lsl ip
     500:	00342100 	eorseq	r2, r4, r0, lsl #2
     504:	0b3a0e03 	bleq	e83d18 <__bss_end+0xe6e1e0>
     508:	13490b3b 	movtne	r0, #39739	; 0x9b3b
     50c:	193c193f 	ldmdbne	ip!, {r0, r1, r2, r3, r4, r5, r8, fp, ip}
     510:	2e220000 	cdpcs	0, 2, cr0, cr2, cr0, {0}
     514:	03193f01 	tsteq	r9, #1, 30
     518:	3b0b3a0e 	blcc	2ced58 <__bss_end+0x2b9220>
     51c:	1119270b 	tstne	r9, fp, lsl #14
     520:	40061201 	andmi	r1, r6, r1, lsl #4
     524:	19429718 	stmdbne	r2, {r3, r4, r8, r9, sl, ip, pc}^
     528:	00001301 	andeq	r1, r0, r1, lsl #6
     52c:	03000523 	movweq	r0, #1315	; 0x523
     530:	3b0b3a0e 	blcc	2ced70 <__bss_end+0x2b9238>
     534:	0213490b 	andseq	r4, r3, #180224	; 0x2c000
     538:	24000018 	strcs	r0, [r0], #-24	; 0xffffffe8
     53c:	0e030034 	mcreq	0, 0, r0, cr3, cr4, {1}
     540:	0b3b0b3a 	bleq	ec3230 <__bss_end+0xead6f8>
     544:	18021349 	stmdane	r2, {r0, r3, r6, r8, r9, ip}
     548:	2e250000 	cdpcs	0, 2, cr0, cr5, cr0, {0}
     54c:	03193f01 	tsteq	r9, #1, 30
     550:	3b0b3a0e 	blcc	2ced90 <__bss_end+0x2b9258>
     554:	1119270b 	tstne	r9, fp, lsl #14
     558:	40061201 	andmi	r1, r6, r1, lsl #4
     55c:	19429718 	stmdbne	r2, {r3, r4, r8, r9, sl, ip, pc}^
     560:	01000000 	mrseq	r0, (UNDEF: 0)
     564:	0e250111 	mcreq	1, 1, r0, cr5, cr1, {0}
     568:	0e030b13 	vmoveq.32	d3[0], r0
     56c:	01110e1b 	tsteq	r1, fp, lsl lr
     570:	17100612 			; <UNDEFINED> instruction: 0x17100612
     574:	16020000 	strne	r0, [r2], -r0
     578:	3a0e0300 	bcc	381180 <__bss_end+0x36b648>
     57c:	490b3b0b 	stmdbmi	fp, {r0, r1, r3, r8, r9, fp, ip, sp}
     580:	03000013 	movweq	r0, #19
     584:	0b0b0024 	bleq	2c061c <__bss_end+0x2aaae4>
     588:	0e030b3e 	vmoveq.16	d3[0], r0
     58c:	24040000 	strcs	r0, [r4], #-0
     590:	3e0b0b00 	vmlacc.f64	d0, d11, d0
     594:	0008030b 	andeq	r0, r8, fp, lsl #6
     598:	00350500 	eorseq	r0, r5, r0, lsl #10
     59c:	00001349 	andeq	r1, r0, r9, asr #6
     5a0:	0b000f06 	bleq	41c0 <_start-0x3e40>
     5a4:	0013490b 	andseq	r4, r3, fp, lsl #18
     5a8:	00130700 	andseq	r0, r3, r0, lsl #14
     5ac:	193c0e03 	ldmdbne	ip!, {r0, r1, r9, sl, fp}
     5b0:	16080000 	strne	r0, [r8], -r0
     5b4:	3a0e0300 	bcc	3811bc <__bss_end+0x36b684>
     5b8:	49053b0b 	stmdbmi	r5, {r0, r1, r3, r8, r9, fp, ip, sp}
     5bc:	09000013 	stmdbeq	r0, {r0, r1, r4}
     5c0:	0b0b0117 	bleq	2c0a24 <__bss_end+0x2aaeec>
     5c4:	0b3b0b3a 	bleq	ec32b4 <__bss_end+0xead77c>
     5c8:	00001301 	andeq	r1, r0, r1, lsl #6
     5cc:	03000d0a 	movweq	r0, #3338	; 0xd0a
     5d0:	3b0b3a0e 	blcc	2cee10 <__bss_end+0x2b92d8>
     5d4:	0013490b 	andseq	r4, r3, fp, lsl #18
     5d8:	01010b00 	tsteq	r1, r0, lsl #22
     5dc:	13011349 	movwne	r1, #4937	; 0x1349
     5e0:	210c0000 	mrscs	r0, (UNDEF: 12)
     5e4:	2f134900 	svccs	0x00134900
     5e8:	0d00000b 	stceq	0, cr0, [r0, #-44]	; 0xffffffd4
     5ec:	0b0b0113 	bleq	2c0a40 <__bss_end+0x2aaf08>
     5f0:	0b3b0b3a 	bleq	ec32e0 <__bss_end+0xead7a8>
     5f4:	00001301 	andeq	r1, r0, r1, lsl #6
     5f8:	03000d0e 	movweq	r0, #3342	; 0xd0e
     5fc:	3b0b3a0e 	blcc	2cee3c <__bss_end+0x2b9304>
     600:	3813490b 	ldmdacc	r3, {r0, r1, r3, r8, fp, lr}
     604:	0f00000b 	svceq	0x0000000b
     608:	0b0b000f 	bleq	2c064c <__bss_end+0x2aab14>
     60c:	26100000 	ldrcs	r0, [r0], -r0
     610:	00134900 	andseq	r4, r3, r0, lsl #18
     614:	01131100 	tsteq	r3, r0, lsl #2
     618:	0b0b0e03 	bleq	2c3e2c <__bss_end+0x2ae2f4>
     61c:	0b3b0b3a 	bleq	ec330c <__bss_end+0xead7d4>
     620:	00001301 	andeq	r1, r0, r1, lsl #6
     624:	03000d12 	movweq	r0, #3346	; 0xd12
     628:	3b0b3a08 	blcc	2cee50 <__bss_end+0x2b9318>
     62c:	3813490b 	ldmdacc	r3, {r0, r1, r3, r8, fp, lr}
     630:	1300000b 	movwne	r0, #11
     634:	0e030113 	mcreq	1, 0, r0, cr3, cr3, {0}
     638:	0b3a050b 	bleq	e81a6c <__bss_end+0xe6bf34>
     63c:	13010b3b 	movwne	r0, #6971	; 0x1b3b
     640:	0d140000 	ldceq	0, cr0, [r4, #-0]
     644:	3a0e0300 	bcc	38124c <__bss_end+0x36b714>
     648:	490b3b0b 	stmdbmi	fp, {r0, r1, r3, r8, r9, fp, ip, sp}
     64c:	00053813 	andeq	r3, r5, r3, lsl r8
     650:	00151500 	andseq	r1, r5, r0, lsl #10
     654:	00001927 	andeq	r1, r0, r7, lsr #18
     658:	27011516 	smladcs	r1, r6, r5, r1
     65c:	01134919 	tsteq	r3, r9, lsl r9
     660:	17000013 	smladne	r0, r3, r0, r0
     664:	13490005 	movtne	r0, #36869	; 0x9005
     668:	13180000 	tstne	r8, #0
     66c:	0b0e0301 	bleq	381278 <__bss_end+0x36b740>
     670:	3b0b3a05 	blcc	2cee8c <__bss_end+0x2b9354>
     674:	00130105 	andseq	r0, r3, r5, lsl #2
     678:	000d1900 	andeq	r1, sp, r0, lsl #18
     67c:	0b3a0e03 	bleq	e83e90 <__bss_end+0xe6e358>
     680:	1349053b 	movtne	r0, #38203	; 0x953b
     684:	00000b38 	andeq	r0, r0, r8, lsr fp
     688:	03000d1a 	movweq	r0, #3354	; 0xd1a
     68c:	3b0b3a0e 	blcc	2ceecc <__bss_end+0x2b9394>
     690:	38134905 	ldmdacc	r3, {r0, r2, r8, fp, lr}
     694:	1b000005 	blne	6b0 <_start-0x7950>
     698:	0e030113 	mcreq	1, 0, r0, cr3, cr3, {0}
     69c:	0b3a0b0b 	bleq	e832d0 <__bss_end+0xe6d798>
     6a0:	1301053b 	movwne	r0, #5435	; 0x153b
     6a4:	131c0000 	tstne	ip, #0
     6a8:	3a0b0b01 	bcc	2c32b4 <__bss_end+0x2ad77c>
     6ac:	01053b0b 	tsteq	r5, fp, lsl #22
     6b0:	1d000013 	stcne	0, cr0, [r0, #-76]	; 0xffffffb4
     6b4:	0b0b0117 	bleq	2c0b18 <__bss_end+0x2aafe0>
     6b8:	053b0b3a 	ldreq	r0, [fp, #-2874]!	; 0xfffff4c6
     6bc:	00001301 	andeq	r1, r0, r1, lsl #6
     6c0:	03000d1e 	movweq	r0, #3358	; 0xd1e
     6c4:	3b0b3a0e 	blcc	2cef04 <__bss_end+0x2b93cc>
     6c8:	00134905 	andseq	r4, r3, r5, lsl #18
     6cc:	01151f00 	tsteq	r5, r0, lsl #30
     6d0:	13011927 	movwne	r1, #6439	; 0x1927
     6d4:	34200000 	strtcc	r0, [r0], #-0
     6d8:	3a0e0300 	bcc	3812e0 <__bss_end+0x36b7a8>
     6dc:	49053b0b 	stmdbmi	r5, {r0, r1, r3, r8, r9, fp, ip, sp}
     6e0:	3c193f13 	ldccc	15, cr3, [r9], {19}
     6e4:	21000019 	tstcs	r0, r9, lsl r0
     6e8:	00000026 	andeq	r0, r0, r6, lsr #32
     6ec:	03003422 	movweq	r3, #1058	; 0x422
     6f0:	3b0b3a0e 	blcc	2cef30 <__bss_end+0x2b93f8>
     6f4:	3f13490b 	svccc	0x0013490b
     6f8:	00193c19 	andseq	r3, r9, r9, lsl ip
     6fc:	012e2300 			; <UNDEFINED> instruction: 0x012e2300
     700:	0e03193f 			; <UNDEFINED> instruction: 0x0e03193f
     704:	053b0b3a 	ldreq	r0, [fp, #-2874]!	; 0xfffff4c6
     708:	13491927 	movtne	r1, #39207	; 0x9927
     70c:	06120111 			; <UNDEFINED> instruction: 0x06120111
     710:	42971840 	addsmi	r1, r7, #64, 16	; 0x400000
     714:	00130119 	andseq	r0, r3, r9, lsl r1
     718:	00052400 	andeq	r2, r5, r0, lsl #8
     71c:	0b3a0e03 	bleq	e83f30 <__bss_end+0xe6e3f8>
     720:	1349053b 	movtne	r0, #38203	; 0x953b
     724:	00001802 	andeq	r1, r0, r2, lsl #16
     728:	03003425 	movweq	r3, #1061	; 0x425
     72c:	3b0b3a0e 	blcc	2cef6c <__bss_end+0x2b9434>
     730:	02134905 	andseq	r4, r3, #81920	; 0x14000
     734:	26000018 			; <UNDEFINED> instruction: 0x26000018
     738:	0e03012e 	adfeqsp	f0, f3, #0.5
     73c:	053b0b3a 	ldreq	r0, [fp, #-2874]!	; 0xfffff4c6
     740:	13491927 	movtne	r1, #39207	; 0x9927
     744:	06120111 			; <UNDEFINED> instruction: 0x06120111
     748:	42961840 	addsmi	r1, r6, #64, 16	; 0x400000
     74c:	00130119 	andseq	r0, r3, r9, lsl r1
     750:	012e2700 			; <UNDEFINED> instruction: 0x012e2700
     754:	0b3a0e03 	bleq	e83f68 <__bss_end+0xe6e430>
     758:	1927053b 	stmdbne	r7!, {r0, r1, r3, r4, r5, r8, sl}
     75c:	06120111 			; <UNDEFINED> instruction: 0x06120111
     760:	42961840 	addsmi	r1, r6, #64, 16	; 0x400000
     764:	00130119 	andseq	r0, r3, r9, lsl r1
     768:	012e2800 			; <UNDEFINED> instruction: 0x012e2800
     76c:	0e03193f 			; <UNDEFINED> instruction: 0x0e03193f
     770:	053b0b3a 	ldreq	r0, [fp, #-2874]!	; 0xfffff4c6
     774:	01111927 	tsteq	r1, r7, lsr #18
     778:	18400612 	stmdane	r0, {r1, r4, r9, sl}^
     77c:	01194296 			; <UNDEFINED> instruction: 0x01194296
     780:	29000013 	stmdbcs	r0, {r0, r1, r4}
     784:	193f012e 	ldmdbne	pc!, {r1, r2, r3, r5, r8}	; <UNPREDICTABLE>
     788:	0b3a0e03 	bleq	e83f9c <__bss_end+0xe6e464>
     78c:	1927053b 	stmdbne	r7!, {r0, r1, r3, r4, r5, r8, sl}
     790:	01111349 	tsteq	r1, r9, asr #6
     794:	18400612 	stmdane	r0, {r1, r4, r9, sl}^
     798:	01194296 			; <UNDEFINED> instruction: 0x01194296
     79c:	2a000013 	bcs	7f0 <_start-0x7810>
     7a0:	193f012e 	ldmdbne	pc!, {r1, r2, r3, r5, r8}	; <UNPREDICTABLE>
     7a4:	0b3a0e03 	bleq	e83fb8 <__bss_end+0xe6e480>
     7a8:	1927053b 	stmdbne	r7!, {r0, r1, r3, r4, r5, r8, sl}
     7ac:	01111349 	tsteq	r1, r9, asr #6
     7b0:	18400612 	stmdane	r0, {r1, r4, r9, sl}^
     7b4:	00194296 	mulseq	r9, r6, r2
     7b8:	11010000 	mrsne	r0, (UNDEF: 1)
     7bc:	130e2501 	movwne	r2, #58625	; 0xe501
     7c0:	1b0e030b 	blne	3813f4 <__bss_end+0x36b8bc>
     7c4:	1201110e 	andne	r1, r1, #-2147483645	; 0x80000003
     7c8:	00171006 	andseq	r1, r7, r6
     7cc:	00240200 	eoreq	r0, r4, r0, lsl #4
     7d0:	0b3e0b0b 	bleq	f83404 <__bss_end+0xf6d8cc>
     7d4:	00000e03 	andeq	r0, r0, r3, lsl #28
     7d8:	49002603 	stmdbmi	r0, {r0, r1, r9, sl, sp}
     7dc:	04000013 	streq	r0, [r0], #-19	; 0xffffffed
     7e0:	13490035 	movtne	r0, #36917	; 0x9035
     7e4:	24050000 	strcs	r0, [r5], #-0
     7e8:	3e0b0b00 	vmlacc.f64	d0, d11, d0
     7ec:	0008030b 	andeq	r0, r8, fp, lsl #6
     7f0:	00160600 	andseq	r0, r6, r0, lsl #12
     7f4:	0b3a0e03 	bleq	e84008 <__bss_end+0xe6e4d0>
     7f8:	13490b3b 	movtne	r0, #39739	; 0x9b3b
     7fc:	0f070000 	svceq	0x00070000
     800:	000b0b00 	andeq	r0, fp, r0, lsl #22
     804:	000f0800 	andeq	r0, pc, r0, lsl #16
     808:	13490b0b 	movtne	r0, #39691	; 0x9b0b
     80c:	13090000 	movwne	r0, #36864	; 0x9000
     810:	3c0e0300 	stccc	3, cr0, [lr], {-0}
     814:	0a000019 	beq	880 <_start-0x7780>
     818:	0e030016 	mcreq	0, 0, r0, cr3, cr6, {0}
     81c:	053b0b3a 	ldreq	r0, [fp, #-2874]!	; 0xfffff4c6
     820:	00001349 	andeq	r1, r0, r9, asr #6
     824:	0b01170b 	bleq	46458 <__bss_end+0x30920>
     828:	3b0b3a0b 	blcc	2cf05c <__bss_end+0x2b9524>
     82c:	0013010b 	andseq	r0, r3, fp, lsl #2
     830:	000d0c00 	andeq	r0, sp, r0, lsl #24
     834:	0b3a0e03 	bleq	e84048 <__bss_end+0xe6e510>
     838:	13490b3b 	movtne	r0, #39739	; 0x9b3b
     83c:	010d0000 	mrseq	r0, (UNDEF: 13)
     840:	01134901 	tsteq	r3, r1, lsl #18
     844:	0e000013 	mcreq	0, 0, r0, cr0, cr3, {0}
     848:	13490021 	movtne	r0, #36897	; 0x9021
     84c:	00000b2f 	andeq	r0, r0, pc, lsr #22
     850:	0b01130f 	bleq	45494 <__bss_end+0x2f95c>
     854:	3b0b3a0b 	blcc	2cf088 <__bss_end+0x2b9550>
     858:	0013010b 	andseq	r0, r3, fp, lsl #2
     85c:	000d1000 	andeq	r1, sp, r0
     860:	0b3a0e03 	bleq	e84074 <__bss_end+0xe6e53c>
     864:	13490b3b 	movtne	r0, #39739	; 0x9b3b
     868:	00000b38 	andeq	r0, r0, r8, lsr fp
     86c:	03011311 	movweq	r1, #4881	; 0x1311
     870:	3a0b0b0e 	bcc	2c34b0 <__bss_end+0x2ad978>
     874:	010b3b0b 	tsteq	fp, fp, lsl #22
     878:	12000013 	andne	r0, r0, #19
     87c:	0803000d 	stmdaeq	r3, {r0, r2, r3}
     880:	0b3b0b3a 	bleq	ec3570 <__bss_end+0xeada38>
     884:	0b381349 	bleq	e055b0 <__bss_end+0xdefa78>
     888:	13130000 	tstne	r3, #0
     88c:	0b0e0301 	bleq	381498 <__bss_end+0x36b960>
     890:	3b0b3a05 	blcc	2cf0ac <__bss_end+0x2b9574>
     894:	0013010b 	andseq	r0, r3, fp, lsl #2
     898:	000d1400 	andeq	r1, sp, r0, lsl #8
     89c:	0b3a0e03 	bleq	e840b0 <__bss_end+0xe6e578>
     8a0:	13490b3b 	movtne	r0, #39739	; 0x9b3b
     8a4:	00000538 	andeq	r0, r0, r8, lsr r5
     8a8:	27001515 	smladcs	r0, r5, r5, r1
     8ac:	16000019 			; <UNDEFINED> instruction: 0x16000019
     8b0:	19270115 	stmdbne	r7!, {r0, r2, r4, r8}
     8b4:	13011349 	movwne	r1, #4937	; 0x1349
     8b8:	05170000 	ldreq	r0, [r7, #-0]
     8bc:	00134900 	andseq	r4, r3, r0, lsl #18
     8c0:	01131800 	tsteq	r3, r0, lsl #16
     8c4:	050b0e03 	streq	r0, [fp, #-3587]	; 0xfffff1fd
     8c8:	053b0b3a 	ldreq	r0, [fp, #-2874]!	; 0xfffff4c6
     8cc:	00001301 	andeq	r1, r0, r1, lsl #6
     8d0:	03000d19 	movweq	r0, #3353	; 0xd19
     8d4:	3b0b3a0e 	blcc	2cf114 <__bss_end+0x2b95dc>
     8d8:	38134905 	ldmdacc	r3, {r0, r2, r8, fp, lr}
     8dc:	1a00000b 	bne	910 <_start-0x76f0>
     8e0:	0e03000d 	cdpeq	0, 0, cr0, cr3, cr13, {0}
     8e4:	053b0b3a 	ldreq	r0, [fp, #-2874]!	; 0xfffff4c6
     8e8:	05381349 	ldreq	r1, [r8, #-841]!	; 0xfffffcb7
     8ec:	131b0000 	tstne	fp, #0
     8f0:	0b0e0301 	bleq	3814fc <__bss_end+0x36b9c4>
     8f4:	3b0b3a0b 	blcc	2cf128 <__bss_end+0x2b95f0>
     8f8:	00130105 	andseq	r0, r3, r5, lsl #2
     8fc:	01131c00 	tsteq	r3, r0, lsl #24
     900:	0b3a0b0b 	bleq	e83534 <__bss_end+0xe6d9fc>
     904:	1301053b 	movwne	r0, #5435	; 0x153b
     908:	171d0000 	ldrne	r0, [sp, -r0]
     90c:	3a0b0b01 	bcc	2c3518 <__bss_end+0x2ad9e0>
     910:	01053b0b 	tsteq	r5, fp, lsl #22
     914:	1e000013 	mcrne	0, 0, r0, cr0, cr3, {0}
     918:	0e03000d 	cdpeq	0, 0, cr0, cr3, cr13, {0}
     91c:	053b0b3a 	ldreq	r0, [fp, #-2874]!	; 0xfffff4c6
     920:	00001349 	andeq	r1, r0, r9, asr #6
     924:	2701151f 	smladcs	r1, pc, r5, r1	; <UNPREDICTABLE>
     928:	00130119 	andseq	r0, r3, r9, lsl r1
     92c:	00342000 	eorseq	r2, r4, r0
     930:	0b3a0e03 	bleq	e84144 <__bss_end+0xe6e60c>
     934:	1349053b 	movtne	r0, #38203	; 0x953b
     938:	193c193f 	ldmdbne	ip!, {r0, r1, r2, r3, r4, r5, r8, fp, ip}
     93c:	34210000 	strtcc	r0, [r1], #-0
     940:	3a0e0300 	bcc	381548 <__bss_end+0x36ba10>
     944:	490b3b0b 	stmdbmi	fp, {r0, r1, r3, r8, r9, fp, ip, sp}
     948:	3c193f13 	ldccc	15, cr3, [r9], {19}
     94c:	22000019 	andcs	r0, r0, #25
     950:	0e030034 	mcreq	0, 0, r0, cr3, cr4, {1}
     954:	0b3b0b3a 	bleq	ec3644 <__bss_end+0xeadb0c>
     958:	193f1349 	ldmdbne	pc!, {r0, r3, r6, r8, r9, ip}	; <UNPREDICTABLE>
     95c:	00001802 	andeq	r1, r0, r2, lsl #16
     960:	03003423 	movweq	r3, #1059	; 0x423
     964:	3b0b3a0e 	blcc	2cf1a4 <__bss_end+0x2b966c>
     968:	0213490b 	andseq	r4, r3, #180224	; 0x2c000
     96c:	24000018 	strcs	r0, [r0], #-24	; 0xffffffe8
     970:	0e03012e 	adfeqsp	f0, f3, #0.5
     974:	053b0b3a 	ldreq	r0, [fp, #-2874]!	; 0xfffff4c6
     978:	01111927 	tsteq	r1, r7, lsr #18
     97c:	18400612 	stmdane	r0, {r1, r4, r9, sl}^
     980:	01194296 			; <UNDEFINED> instruction: 0x01194296
     984:	25000013 	strcs	r0, [r0, #-19]	; 0xffffffed
     988:	0e030005 	cdpeq	0, 0, cr0, cr3, cr5, {0}
     98c:	053b0b3a 	ldreq	r0, [fp, #-2874]!	; 0xfffff4c6
     990:	18021349 	stmdane	r2, {r0, r3, r6, r8, r9, ip}
     994:	2e260000 	cdpcs	0, 2, cr0, cr6, cr0, {0}
     998:	3a0e0301 	bcc	3815a4 <__bss_end+0x36ba6c>
     99c:	27053b0b 	strcs	r3, [r5, -fp, lsl #22]
     9a0:	11134919 	tstne	r3, r9, lsl r9
     9a4:	40061201 	andmi	r1, r6, r1, lsl #4
     9a8:	19429618 	stmdbne	r2, {r3, r4, r9, sl, ip, pc}^
     9ac:	00001301 	andeq	r1, r0, r1, lsl #6
     9b0:	03003427 	movweq	r3, #1063	; 0x427
     9b4:	3b0b3a0e 	blcc	2cf1f4 <__bss_end+0x2b96bc>
     9b8:	02134905 	andseq	r4, r3, #81920	; 0x14000
     9bc:	28000018 	stmdacs	r0, {r3, r4}
     9c0:	0111010b 	tsteq	r1, fp, lsl #2
     9c4:	00000612 	andeq	r0, r0, r2, lsl r6
     9c8:	3f002e29 	svccc	0x00002e29
     9cc:	3a0e0319 	bcc	381638 <__bss_end+0x36bb00>
     9d0:	27053b0b 	strcs	r3, [r5, -fp, lsl #22]
     9d4:	12011119 	andne	r1, r1, #1073741830	; 0x40000006
     9d8:	97184006 	ldrls	r4, [r8, -r6]
     9dc:	00001942 	andeq	r1, r0, r2, asr #18
     9e0:	3f012e2a 	svccc	0x00012e2a
     9e4:	3a0e0319 	bcc	381650 <__bss_end+0x36bb18>
     9e8:	27053b0b 	strcs	r3, [r5, -fp, lsl #22]
     9ec:	11134919 	tstne	r3, r9, lsl r9
     9f0:	40061201 	andmi	r1, r6, r1, lsl #4
     9f4:	19429618 	stmdbne	r2, {r3, r4, r9, sl, ip, pc}^
     9f8:	00001301 	andeq	r1, r0, r1, lsl #6
     9fc:	3f012e2b 	svccc	0x00012e2b
     a00:	3a0e0319 	bcc	38166c <__bss_end+0x36bb34>
     a04:	27053b0b 	strcs	r3, [r5, -fp, lsl #22]
     a08:	12011119 	andne	r1, r1, #1073741830	; 0x40000006
     a0c:	97184006 	ldrls	r4, [r8, -r6]
     a10:	13011942 	movwne	r1, #6466	; 0x1942
     a14:	2e2c0000 	cdpcs	0, 2, cr0, cr12, cr0, {0}
     a18:	03193f01 	tsteq	r9, #1, 30
     a1c:	3b0b3a0e 	blcc	2cf25c <__bss_end+0x2b9724>
     a20:	11192705 	tstne	r9, r5, lsl #14
     a24:	40061201 	andmi	r1, r6, r1, lsl #4
     a28:	19429618 	stmdbne	r2, {r3, r4, r9, sl, ip, pc}^
     a2c:	00001301 	andeq	r1, r0, r1, lsl #6
     a30:	11010b2d 	tstne	r1, sp, lsr #22
     a34:	01061201 	tsteq	r6, r1, lsl #4
     a38:	2e000013 	mcrcs	0, 0, r0, cr0, cr3, {0}
     a3c:	193f002e 	ldmdbne	pc!, {r1, r2, r3, r5}	; <UNPREDICTABLE>
     a40:	0b3a0e03 	bleq	e84254 <__bss_end+0xe6e71c>
     a44:	1927053b 	stmdbne	r7!, {r0, r1, r3, r4, r5, r8, sl}
     a48:	01111349 	tsteq	r1, r9, asr #6
     a4c:	18400612 	stmdane	r0, {r1, r4, r9, sl}^
     a50:	00194297 	mulseq	r9, r7, r2
     a54:	012e2f00 			; <UNDEFINED> instruction: 0x012e2f00
     a58:	0e03193f 			; <UNDEFINED> instruction: 0x0e03193f
     a5c:	053b0b3a 	ldreq	r0, [fp, #-2874]!	; 0xfffff4c6
     a60:	13491927 	movtne	r1, #39207	; 0x9927
     a64:	06120111 			; <UNDEFINED> instruction: 0x06120111
     a68:	42971840 	addsmi	r1, r7, #64, 16	; 0x400000
     a6c:	00130119 	andseq	r0, r3, r9, lsl r1
     a70:	002e3000 	eoreq	r3, lr, r0
     a74:	0e03193f 			; <UNDEFINED> instruction: 0x0e03193f
     a78:	053b0b3a 	ldreq	r0, [fp, #-2874]!	; 0xfffff4c6
     a7c:	01111927 	tsteq	r1, r7, lsr #18
     a80:	18400612 	stmdane	r0, {r1, r4, r9, sl}^
     a84:	00194296 	mulseq	r9, r6, r2
     a88:	11010000 	mrsne	r0, (UNDEF: 1)
     a8c:	130e2501 	movwne	r2, #58625	; 0xe501
     a90:	1b0e030b 	blne	3816c4 <__bss_end+0x36bb8c>
     a94:	1201110e 	andne	r1, r1, #-2147483645	; 0x80000003
     a98:	00171006 	andseq	r1, r7, r6
     a9c:	00160200 	andseq	r0, r6, r0, lsl #4
     aa0:	0b3a0e03 	bleq	e842b4 <__bss_end+0xe6e77c>
     aa4:	13490b3b 	movtne	r0, #39739	; 0x9b3b
     aa8:	0f030000 	svceq	0x00030000
     aac:	490b0b00 	stmdbmi	fp, {r8, r9, fp}
     ab0:	04000013 	streq	r0, [r0], #-19	; 0xffffffed
     ab4:	19270115 	stmdbne	r7!, {r0, r2, r4, r8}
     ab8:	00001301 	andeq	r1, r0, r1, lsl #6
     abc:	49000505 	stmdbmi	r0, {r0, r2, r8, sl}
     ac0:	06000013 			; <UNDEFINED> instruction: 0x06000013
     ac4:	0b0b0024 	bleq	2c0b5c <__bss_end+0x2ab024>
     ac8:	0e030b3e 	vmoveq.16	d3[0], r0
     acc:	26070000 	strcs	r0, [r7], -r0
     ad0:	00134900 	andseq	r4, r3, r0, lsl #18
     ad4:	000f0800 	andeq	r0, pc, r0, lsl #16
     ad8:	00000b0b 	andeq	r0, r0, fp, lsl #22
     adc:	0b011309 	bleq	45708 <__bss_end+0x2fbd0>
     ae0:	3b0b3a0b 	blcc	2cf314 <__bss_end+0x2b97dc>
     ae4:	0013010b 	andseq	r0, r3, fp, lsl #2
     ae8:	000d0a00 	andeq	r0, sp, r0, lsl #20
     aec:	0b3a0e03 	bleq	e84300 <__bss_end+0xe6e7c8>
     af0:	13490b3b 	movtne	r0, #39739	; 0x9b3b
     af4:	00000b38 	andeq	r0, r0, r8, lsr fp
     af8:	4901010b 	stmdbmi	r1, {r0, r1, r3, r8}
     afc:	00130113 	andseq	r0, r3, r3, lsl r1
     b00:	00210c00 	eoreq	r0, r1, r0, lsl #24
     b04:	0b2f1349 	bleq	bc5830 <__bss_end+0xbafcf8>
     b08:	340d0000 	strcc	r0, [sp], #-0
     b0c:	3a0e0300 	bcc	381714 <__bss_end+0x36bbdc>
     b10:	490b3b0b 	stmdbmi	fp, {r0, r1, r3, r8, r9, fp, ip, sp}
     b14:	00180213 	andseq	r0, r8, r3, lsl r2
     b18:	00350e00 	eorseq	r0, r5, r0, lsl #28
     b1c:	00001349 	andeq	r1, r0, r9, asr #6
     b20:	3f012e0f 	svccc	0x00012e0f
     b24:	3a0e0319 	bcc	381790 <__bss_end+0x36bc58>
     b28:	270b3b0b 	strcs	r3, [fp, -fp, lsl #22]
     b2c:	12011119 	andne	r1, r1, #1073741830	; 0x40000006
     b30:	97184006 	ldrls	r4, [r8, -r6]
     b34:	13011942 	movwne	r1, #6466	; 0x1942
     b38:	05100000 	ldreq	r0, [r0, #-0]
     b3c:	3a080300 	bcc	201744 <__bss_end+0x1ebc0c>
     b40:	490b3b0b 	stmdbmi	fp, {r0, r1, r3, r8, r9, fp, ip, sp}
     b44:	00180213 	andseq	r0, r8, r3, lsl r2
     b48:	012e1100 			; <UNDEFINED> instruction: 0x012e1100
     b4c:	0e03193f 			; <UNDEFINED> instruction: 0x0e03193f
     b50:	0b3b0b3a 	bleq	ec3840 <__bss_end+0xeadd08>
     b54:	01111927 	tsteq	r1, r7, lsr #18
     b58:	18400612 	stmdane	r0, {r1, r4, r9, sl}^
     b5c:	01194296 			; <UNDEFINED> instruction: 0x01194296
     b60:	12000013 	andne	r0, r0, #19
     b64:	0e030005 	cdpeq	0, 0, cr0, cr3, cr5, {0}
     b68:	0b3b0b3a 	bleq	ec3858 <__bss_end+0xeadd20>
     b6c:	18021349 	stmdane	r2, {r0, r3, r6, r8, r9, ip}
     b70:	2e130000 	cdpcs	0, 1, cr0, cr3, cr0, {0}
     b74:	03193f00 	tsteq	r9, #0, 30
     b78:	3b0b3a0e 	blcc	2cf3b8 <__bss_end+0x2b9880>
     b7c:	1119270b 	tstne	r9, fp, lsl #14
     b80:	40061201 	andmi	r1, r6, r1, lsl #4
     b84:	19429718 	stmdbne	r2, {r3, r4, r8, r9, sl, ip, pc}^
     b88:	2e140000 	cdpcs	0, 1, cr0, cr4, cr0, {0}
     b8c:	3a0e0301 	bcc	381798 <__bss_end+0x36bc60>
     b90:	270b3b0b 	strcs	r3, [fp, -fp, lsl #22]
     b94:	12011119 	andne	r1, r1, #1073741830	; 0x40000006
     b98:	96184006 	ldrls	r4, [r8], -r6
     b9c:	00001942 	andeq	r1, r0, r2, asr #18
     ba0:	11010b15 	tstne	r1, r5, lsl fp
     ba4:	00061201 	andeq	r1, r6, r1, lsl #4
     ba8:	00341600 	eorseq	r1, r4, r0, lsl #12
     bac:	0b3a0803 	bleq	e82bc0 <__bss_end+0xe6d088>
     bb0:	13490b3b 	movtne	r0, #39739	; 0x9b3b
     bb4:	00001802 	andeq	r1, r0, r2, lsl #16
     bb8:	01110100 	tsteq	r1, r0, lsl #2
     bbc:	0b130e25 	bleq	4c4458 <__bss_end+0x4ae920>
     bc0:	0e1b0e03 	cdpeq	14, 1, cr0, cr11, cr3, {0}
     bc4:	06120111 			; <UNDEFINED> instruction: 0x06120111
     bc8:	00001710 	andeq	r1, r0, r0, lsl r7
     bcc:	03010402 	movweq	r0, #5122	; 0x1402
     bd0:	0b0b3e0e 	bleq	2d0410 <__bss_end+0x2ba8d8>
     bd4:	3a13490b 	bcc	4d3008 <__bss_end+0x4bd4d0>
     bd8:	010b3b0b 	tsteq	fp, fp, lsl #22
     bdc:	03000013 	movweq	r0, #19
     be0:	0e030028 	cdpeq	0, 0, cr0, cr3, cr8, {1}
     be4:	00000b1c 	andeq	r0, r0, ip, lsl fp
     be8:	0b002404 	bleq	9c00 <__module_entries_end+0x1b5c>
     bec:	030b3e0b 	movweq	r3, #48651	; 0xbe0b
     bf0:	0500000e 	streq	r0, [r0, #-14]
     bf4:	0b0b0113 	bleq	2c1048 <__bss_end+0x2ab510>
     bf8:	0b3b0b3a 	bleq	ec38e8 <__bss_end+0xeaddb0>
     bfc:	00001301 	andeq	r1, r0, r1, lsl #6
     c00:	03000d06 	movweq	r0, #3334	; 0xd06
     c04:	3b0b3a0e 	blcc	2cf444 <__bss_end+0x2b990c>
     c08:	3813490b 	ldmdacc	r3, {r0, r1, r3, r8, fp, lr}
     c0c:	0700000b 	streq	r0, [r0, -fp]
     c10:	13490101 	movtne	r0, #37121	; 0x9101
     c14:	00001301 	andeq	r1, r0, r1, lsl #6
     c18:	49002108 	stmdbmi	r0, {r3, r8, sp}
     c1c:	000b2f13 	andeq	r2, fp, r3, lsl pc
     c20:	00160900 	andseq	r0, r6, r0, lsl #18
     c24:	0b3a0e03 	bleq	e84438 <__bss_end+0xe6e900>
     c28:	13490b3b 	movtne	r0, #39739	; 0x9b3b
     c2c:	350a0000 	strcc	r0, [sl, #-0]
     c30:	00134900 	andseq	r4, r3, r0, lsl #18
     c34:	00340b00 	eorseq	r0, r4, r0, lsl #22
     c38:	0b3a0e03 	bleq	e8444c <__bss_end+0xe6e914>
     c3c:	13490b3b 	movtne	r0, #39739	; 0x9b3b
     c40:	1802193f 	stmdane	r2, {r0, r1, r2, r3, r4, r5, r8, fp, ip}
     c44:	0f0c0000 	svceq	0x000c0000
     c48:	490b0b00 	stmdbmi	fp, {r8, r9, fp}
     c4c:	0d000013 	stceq	0, cr0, [r0, #-76]	; 0xffffffb4
     c50:	13490026 	movtne	r0, #36902	; 0x9026
     c54:	2e0e0000 	cdpcs	0, 0, cr0, cr14, cr0, {0}
     c58:	03193f01 	tsteq	r9, #1, 30
     c5c:	3b0b3a0e 	blcc	2cf49c <__bss_end+0x2b9964>
     c60:	1119270b 	tstne	r9, fp, lsl #14
     c64:	40061201 	andmi	r1, r6, r1, lsl #4
     c68:	19429718 	stmdbne	r2, {r3, r4, r8, r9, sl, ip, pc}^
     c6c:	00001301 	andeq	r1, r0, r1, lsl #6
     c70:	0300050f 	movweq	r0, #1295	; 0x50f
     c74:	3b0b3a0e 	blcc	2cf4b4 <__bss_end+0x2b997c>
     c78:	0213490b 	andseq	r4, r3, #180224	; 0x2c000
     c7c:	10000018 	andne	r0, r0, r8, lsl r0
     c80:	0e030034 	mcreq	0, 0, r0, cr3, cr4, {1}
     c84:	0b3b0b3a 	bleq	ec3974 <__bss_end+0xeade3c>
     c88:	18021349 	stmdane	r2, {r0, r3, r6, r8, r9, ip}
     c8c:	2e110000 	cdpcs	0, 1, cr0, cr1, cr0, {0}
     c90:	03193f01 	tsteq	r9, #1, 30
     c94:	3b0b3a0e 	blcc	2cf4d4 <__bss_end+0x2b999c>
     c98:	4919270b 	ldmdbmi	r9, {r0, r1, r3, r8, r9, sl, sp}
     c9c:	12011113 	andne	r1, r1, #-1073741820	; 0xc0000004
     ca0:	97184006 	ldrls	r4, [r8, -r6]
     ca4:	13011942 	movwne	r1, #6466	; 0x1942
     ca8:	24120000 	ldrcs	r0, [r2], #-0
     cac:	3e0b0b00 	vmlacc.f64	d0, d11, d0
     cb0:	0008030b 	andeq	r0, r8, fp, lsl #6
     cb4:	012e1300 			; <UNDEFINED> instruction: 0x012e1300
     cb8:	0e03193f 			; <UNDEFINED> instruction: 0x0e03193f
     cbc:	0b3b0b3a 	bleq	ec39ac <__bss_end+0xeade74>
     cc0:	01111927 	tsteq	r1, r7, lsr #18
     cc4:	18400612 	stmdane	r0, {r1, r4, r9, sl}^
     cc8:	01194296 			; <UNDEFINED> instruction: 0x01194296
     ccc:	14000013 	strne	r0, [r0], #-19	; 0xffffffed
     cd0:	08030005 	stmdaeq	r3, {r0, r2}
     cd4:	0b3b0b3a 	bleq	ec39c4 <__bss_end+0xeade8c>
     cd8:	18021349 	stmdane	r2, {r0, r3, r6, r8, r9, ip}
     cdc:	2e150000 	cdpcs	0, 1, cr0, cr5, cr0, {0}
     ce0:	03193f01 	tsteq	r9, #1, 30
     ce4:	3b0b3a0e 	blcc	2cf524 <__bss_end+0x2b99ec>
     ce8:	1119270b 	tstne	r9, fp, lsl #14
     cec:	40061201 	andmi	r1, r6, r1, lsl #4
     cf0:	19429718 	stmdbne	r2, {r3, r4, r8, r9, sl, ip, pc}^
     cf4:	34160000 	ldrcc	r0, [r6], #-0
     cf8:	3a080300 	bcc	201900 <__bss_end+0x1ebdc8>
     cfc:	490b3b0b 	stmdbmi	fp, {r0, r1, r3, r8, r9, fp, ip, sp}
     d00:	00180213 	andseq	r0, r8, r3, lsl r2
     d04:	11010000 	mrsne	r0, (UNDEF: 1)
     d08:	130e2501 	movwne	r2, #58625	; 0xe501
     d0c:	1b0e030b 	blne	381940 <__bss_end+0x36be08>
     d10:	1201110e 	andne	r1, r1, #-2147483645	; 0x80000003
     d14:	00171006 	andseq	r1, r7, r6
     d18:	00160200 	andseq	r0, r6, r0, lsl #4
     d1c:	0b3a0e03 	bleq	e84530 <__bss_end+0xe6e9f8>
     d20:	13490b3b 	movtne	r0, #39739	; 0x9b3b
     d24:	26030000 	strcs	r0, [r3], -r0
     d28:	00134900 	andseq	r4, r3, r0, lsl #18
     d2c:	00240400 	eoreq	r0, r4, r0, lsl #8
     d30:	0b3e0b0b 	bleq	f83964 <__bss_end+0xf6de2c>
     d34:	00000e03 	andeq	r0, r0, r3, lsl #28
     d38:	0b002405 	bleq	9d54 <__module_entries_end+0x1cb0>
     d3c:	030b3e0b 	movweq	r3, #48651	; 0xbe0b
     d40:	06000008 	streq	r0, [r0], -r8
     d44:	0b0b000f 	bleq	2c0d88 <__bss_end+0x2ab250>
     d48:	00001349 	andeq	r1, r0, r9, asr #6
     d4c:	03001307 	movweq	r1, #775	; 0x307
     d50:	00193c0e 	andseq	r3, r9, lr, lsl #24
     d54:	00160800 	andseq	r0, r6, r0, lsl #16
     d58:	0b3a0e03 	bleq	e8456c <__bss_end+0xe6ea34>
     d5c:	1349053b 	movtne	r0, #38203	; 0x953b
     d60:	17090000 	strne	r0, [r9, -r0]
     d64:	3a0b0b01 	bcc	2c3970 <__bss_end+0x2ade38>
     d68:	010b3b0b 	tsteq	fp, fp, lsl #22
     d6c:	0a000013 	beq	dc0 <_start-0x7240>
     d70:	0e03000d 	cdpeq	0, 0, cr0, cr3, cr13, {0}
     d74:	0b3b0b3a 	bleq	ec3a64 <__bss_end+0xeadf2c>
     d78:	00001349 	andeq	r1, r0, r9, asr #6
     d7c:	4901010b 	stmdbmi	r1, {r0, r1, r3, r8}
     d80:	00130113 	andseq	r0, r3, r3, lsl r1
     d84:	00210c00 	eoreq	r0, r1, r0, lsl #24
     d88:	0b2f1349 	bleq	bc5ab4 <__bss_end+0xbaff7c>
     d8c:	130d0000 	movwne	r0, #53248	; 0xd000
     d90:	3a0b0b01 	bcc	2c399c <__bss_end+0x2ade64>
     d94:	010b3b0b 	tsteq	fp, fp, lsl #22
     d98:	0e000013 	mcreq	0, 0, r0, cr0, cr3, {0}
     d9c:	0e03000d 	cdpeq	0, 0, cr0, cr3, cr13, {0}
     da0:	0b3b0b3a 	bleq	ec3a90 <__bss_end+0xeadf58>
     da4:	0b381349 	bleq	e05ad0 <__bss_end+0xdeff98>
     da8:	0f0f0000 	svceq	0x000f0000
     dac:	000b0b00 	andeq	r0, fp, r0, lsl #22
     db0:	01131000 	tsteq	r3, r0
     db4:	0b0b0e03 	bleq	2c45c8 <__bss_end+0x2aea90>
     db8:	0b3b0b3a 	bleq	ec3aa8 <__bss_end+0xeadf70>
     dbc:	00001301 	andeq	r1, r0, r1, lsl #6
     dc0:	03000d11 	movweq	r0, #3345	; 0xd11
     dc4:	3b0b3a08 	blcc	2cf5ec <__bss_end+0x2b9ab4>
     dc8:	3813490b 	ldmdacc	r3, {r0, r1, r3, r8, fp, lr}
     dcc:	1200000b 	andne	r0, r0, #11
     dd0:	0e030113 	mcreq	1, 0, r0, cr3, cr3, {0}
     dd4:	0b3a050b 	bleq	e82208 <__bss_end+0xe6c6d0>
     dd8:	13010b3b 	movwne	r0, #6971	; 0x1b3b
     ddc:	0d130000 	ldceq	0, cr0, [r3, #-0]
     de0:	3a0e0300 	bcc	3819e8 <__bss_end+0x36beb0>
     de4:	490b3b0b 	stmdbmi	fp, {r0, r1, r3, r8, r9, fp, ip, sp}
     de8:	00053813 	andeq	r3, r5, r3, lsl r8
     dec:	00151400 	andseq	r1, r5, r0, lsl #8
     df0:	00001927 	andeq	r1, r0, r7, lsr #18
     df4:	27011515 	smladcs	r1, r5, r5, r1
     df8:	01134919 	tsteq	r3, r9, lsl r9
     dfc:	16000013 			; <UNDEFINED> instruction: 0x16000013
     e00:	13490005 	movtne	r0, #36869	; 0x9005
     e04:	13170000 	tstne	r7, #0
     e08:	0b0e0301 	bleq	381a14 <__bss_end+0x36bedc>
     e0c:	3b0b3a05 	blcc	2cf628 <__bss_end+0x2b9af0>
     e10:	00130105 	andseq	r0, r3, r5, lsl #2
     e14:	000d1800 	andeq	r1, sp, r0, lsl #16
     e18:	0b3a0e03 	bleq	e8462c <__bss_end+0xe6eaf4>
     e1c:	1349053b 	movtne	r0, #38203	; 0x953b
     e20:	00000b38 	andeq	r0, r0, r8, lsr fp
     e24:	03000d19 	movweq	r0, #3353	; 0xd19
     e28:	3b0b3a0e 	blcc	2cf668 <__bss_end+0x2b9b30>
     e2c:	38134905 	ldmdacc	r3, {r0, r2, r8, fp, lr}
     e30:	1a000005 	bne	e4c <_start-0x71b4>
     e34:	0e030113 	mcreq	1, 0, r0, cr3, cr3, {0}
     e38:	0b3a0b0b 	bleq	e83a6c <__bss_end+0xe6df34>
     e3c:	1301053b 	movwne	r0, #5435	; 0x153b
     e40:	131b0000 	tstne	fp, #0
     e44:	3a0b0b01 	bcc	2c3a50 <__bss_end+0x2adf18>
     e48:	01053b0b 	tsteq	r5, fp, lsl #22
     e4c:	1c000013 	stcne	0, cr0, [r0], {19}
     e50:	0b0b0117 	bleq	2c12b4 <__bss_end+0x2ab77c>
     e54:	053b0b3a 	ldreq	r0, [fp, #-2874]!	; 0xfffff4c6
     e58:	00001301 	andeq	r1, r0, r1, lsl #6
     e5c:	03000d1d 	movweq	r0, #3357	; 0xd1d
     e60:	3b0b3a0e 	blcc	2cf6a0 <__bss_end+0x2b9b68>
     e64:	00134905 	andseq	r4, r3, r5, lsl #18
     e68:	01151e00 	tsteq	r5, r0, lsl #28
     e6c:	13011927 	movwne	r1, #6439	; 0x1927
     e70:	341f0000 	ldrcc	r0, [pc], #-0	; e78 <_start-0x7188>
     e74:	3a0e0300 	bcc	381a7c <__bss_end+0x36bf44>
     e78:	49053b0b 	stmdbmi	r5, {r0, r1, r3, r8, r9, fp, ip, sp}
     e7c:	3c193f13 	ldccc	15, cr3, [r9], {19}
     e80:	20000019 	andcs	r0, r0, r9, lsl r0
     e84:	0e030034 	mcreq	0, 0, r0, cr3, cr4, {1}
     e88:	0b3b0b3a 	bleq	ec3b78 <__bss_end+0xeae040>
     e8c:	193f1349 	ldmdbne	pc!, {r0, r3, r6, r8, r9, ip}	; <UNPREDICTABLE>
     e90:	0000193c 	andeq	r1, r0, ip, lsr r9
     e94:	03011721 	movweq	r1, #5921	; 0x1721
     e98:	3a050b0e 	bcc	143ad8 <__bss_end+0x12dfa0>
     e9c:	010b3b0b 	tsteq	fp, fp, lsl #22
     ea0:	22000013 	andcs	r0, r0, #19
     ea4:	13490035 	movtne	r0, #36917	; 0x9035
     ea8:	21230000 			; <UNDEFINED> instruction: 0x21230000
     eac:	2f134900 	svccs	0x00134900
     eb0:	24000005 	strcs	r0, [r0], #-5
     eb4:	0e030034 	mcreq	0, 0, r0, cr3, cr4, {1}
     eb8:	0b3b0b3a 	bleq	ec3ba8 <__bss_end+0xeae070>
     ebc:	18021349 	stmdane	r2, {r0, r3, r6, r8, r9, ip}
     ec0:	34250000 	strtcc	r0, [r5], #-0
     ec4:	3a0e0300 	bcc	381acc <__bss_end+0x36bf94>
     ec8:	490b3b0b 	stmdbmi	fp, {r0, r1, r3, r8, r9, fp, ip, sp}
     ecc:	02193f13 	andseq	r3, r9, #19, 30	; 0x4c
     ed0:	26000018 			; <UNDEFINED> instruction: 0x26000018
     ed4:	0e03012e 	adfeqsp	f0, f3, #0.5
     ed8:	053b0b3a 	ldreq	r0, [fp, #-2874]!	; 0xfffff4c6
     edc:	01111927 	tsteq	r1, r7, lsr #18
     ee0:	18400612 	stmdane	r0, {r1, r4, r9, sl}^
     ee4:	01194297 			; <UNDEFINED> instruction: 0x01194297
     ee8:	27000013 	smladcs	r0, r3, r0, r0
     eec:	0e030005 	cdpeq	0, 0, cr0, cr3, cr5, {0}
     ef0:	053b0b3a 	ldreq	r0, [fp, #-2874]!	; 0xfffff4c6
     ef4:	18021349 	stmdane	r2, {r0, r3, r6, r8, r9, ip}
     ef8:	34280000 	strtcc	r0, [r8], #-0
     efc:	3a0e0300 	bcc	381b04 <__bss_end+0x36bfcc>
     f00:	49053b0b 	stmdbmi	r5, {r0, r1, r3, r8, r9, fp, ip, sp}
     f04:	00180213 	andseq	r0, r8, r3, lsl r2
     f08:	00342900 	eorseq	r2, r4, r0, lsl #18
     f0c:	0b3a0803 	bleq	e82f20 <__bss_end+0xe6d3e8>
     f10:	1349053b 	movtne	r0, #38203	; 0x953b
     f14:	00001802 	andeq	r1, r0, r2, lsl #16
     f18:	3f002e2a 	svccc	0x00002e2a
     f1c:	3a0e0319 	bcc	381b88 <__bss_end+0x36c050>
     f20:	27053b0b 	strcs	r3, [r5, -fp, lsl #22]
     f24:	12011119 	andne	r1, r1, #1073741830	; 0x40000006
     f28:	97184006 	ldrls	r4, [r8, -r6]
     f2c:	00001942 	andeq	r1, r0, r2, asr #18
     f30:	3f002e2b 	svccc	0x00002e2b
     f34:	3a0e0319 	bcc	381ba0 <__bss_end+0x36c068>
     f38:	27053b0b 	strcs	r3, [r5, -fp, lsl #22]
     f3c:	11134919 	tstne	r3, r9, lsl r9
     f40:	40061201 	andmi	r1, r6, r1, lsl #4
     f44:	19429718 	stmdbne	r2, {r3, r4, r8, r9, sl, ip, pc}^
     f48:	2e2c0000 	cdpcs	0, 2, cr0, cr12, cr0, {0}
     f4c:	03193f01 	tsteq	r9, #1, 30
     f50:	3b0b3a0e 	blcc	2cf790 <__bss_end+0x2b9c58>
     f54:	1119270b 	tstne	r9, fp, lsl #14
     f58:	40061201 	andmi	r1, r6, r1, lsl #4
     f5c:	19429618 	stmdbne	r2, {r3, r4, r9, sl, ip, pc}^
     f60:	00001301 	andeq	r1, r0, r1, lsl #6
     f64:	0300052d 	movweq	r0, #1325	; 0x52d
     f68:	3b0b3a08 	blcc	2cf790 <__bss_end+0x2b9c58>
     f6c:	0213490b 	andseq	r4, r3, #180224	; 0x2c000
     f70:	2e000018 	mcrcs	0, 0, r0, cr0, cr8, {0}
     f74:	08030034 	stmdaeq	r3, {r2, r4, r5}
     f78:	0b3b0b3a 	bleq	ec3c68 <__bss_end+0xeae130>
     f7c:	18021349 	stmdane	r2, {r0, r3, r6, r8, r9, ip}
     f80:	2e2f0000 	cdpcs	0, 2, cr0, cr15, cr0, {0}
     f84:	03193f01 	tsteq	r9, #1, 30
     f88:	3b0b3a0e 	blcc	2cf7c8 <__bss_end+0x2b9c90>
     f8c:	4919270b 	ldmdbmi	r9, {r0, r1, r3, r8, r9, sl, sp}
     f90:	12011113 	andne	r1, r1, #-1073741820	; 0xc0000004
     f94:	96184006 	ldrls	r4, [r8], -r6
     f98:	00001942 	andeq	r1, r0, r2, asr #18
     f9c:	03000530 	movweq	r0, #1328	; 0x530
     fa0:	3b0b3a0e 	blcc	2cf7e0 <__bss_end+0x2b9ca8>
     fa4:	0213490b 	andseq	r4, r3, #180224	; 0x2c000
     fa8:	00000018 	andeq	r0, r0, r8, lsl r0
     fac:	25011101 	strcs	r1, [r1, #-257]	; 0xfffffeff
     fb0:	030b130e 	movweq	r1, #45838	; 0xb30e
     fb4:	110e1b0e 	tstne	lr, lr, lsl #22
     fb8:	10061201 	andne	r1, r6, r1, lsl #4
     fbc:	02000017 	andeq	r0, r0, #23
     fc0:	0b0b0024 	bleq	2c1058 <__bss_end+0x2ab520>
     fc4:	08030b3e 	stmdaeq	r3, {r1, r2, r3, r4, r5, r8, r9, fp}
     fc8:	24030000 	strcs	r0, [r3], #-0
     fcc:	3e0b0b00 	vmlacc.f64	d0, d11, d0
     fd0:	000e030b 	andeq	r0, lr, fp, lsl #6
     fd4:	000f0400 	andeq	r0, pc, r0, lsl #8
     fd8:	00000b0b 	andeq	r0, r0, fp, lsl #22
     fdc:	3f002e05 	svccc	0x00002e05
     fe0:	3a0e0319 	bcc	381c4c <__bss_end+0x36c114>
     fe4:	270b3b0b 	strcs	r3, [fp, -fp, lsl #22]
     fe8:	12011119 	andne	r1, r1, #1073741830	; 0x40000006
     fec:	96184006 	ldrls	r4, [r8], -r6
     ff0:	00001942 	andeq	r1, r0, r2, asr #18
     ff4:	3f012e06 	svccc	0x00012e06
     ff8:	3a0e0319 	bcc	381c64 <__bss_end+0x36c12c>
     ffc:	270b3b0b 	strcs	r3, [fp, -fp, lsl #22]
    1000:	12011119 	andne	r1, r1, #1073741830	; 0x40000006
    1004:	96184006 	ldrls	r4, [r8], -r6
    1008:	13011942 	movwne	r1, #6466	; 0x1942
    100c:	05070000 	streq	r0, [r7, #-0]
    1010:	3a0e0300 	bcc	381c18 <__bss_end+0x36c0e0>
    1014:	490b3b0b 	stmdbmi	fp, {r0, r1, r3, r8, r9, fp, ip, sp}
    1018:	00180213 	andseq	r0, r8, r3, lsl r2
    101c:	00340800 	eorseq	r0, r4, r0, lsl #16
    1020:	0b3a0803 	bleq	e83034 <__bss_end+0xe6d4fc>
    1024:	13490b3b 	movtne	r0, #39739	; 0x9b3b
    1028:	00001802 	andeq	r1, r0, r2, lsl #16
    102c:	3f012e09 	svccc	0x00012e09
    1030:	3a0e0319 	bcc	381c9c <__bss_end+0x36c164>
    1034:	270b3b0b 	strcs	r3, [fp, -fp, lsl #22]
    1038:	12011119 	andne	r1, r1, #1073741830	; 0x40000006
    103c:	96184006 	ldrls	r4, [r8], -r6
    1040:	00001942 	andeq	r1, r0, r2, asr #18
	...

Disassembly of section .debug_aranges:

00000000 <.debug_aranges>:
   0:	0000001c 	andeq	r0, r0, ip, lsl r0
   4:	00000002 	andeq	r0, r0, r2
   8:	00040000 	andeq	r0, r4, r0
   c:	00000000 	andeq	r0, r0, r0
  10:	00010000 	andeq	r0, r1, r0
  14:	00000344 	andeq	r0, r0, r4, asr #6
	...
  20:	0000001c 	andeq	r0, r0, ip, lsl r0
  24:	01fc0002 	mvnseq	r0, r2
  28:	00040000 	andeq	r0, r4, r0
  2c:	00000000 	andeq	r0, r0, r0
  30:	00010344 	andeq	r0, r1, r4, asr #6
  34:	000002a4 	andeq	r0, r0, r4, lsr #5
	...
  40:	0000001c 	andeq	r0, r0, ip, lsl r0
  44:	03870002 	orreq	r0, r7, #2
  48:	00040000 	andeq	r0, r4, r0
  4c:	00000000 	andeq	r0, r0, r0
  50:	000105f0 	strdeq	r0, [r1], -r0	; <UNPREDICTABLE>
  54:	00000764 	andeq	r0, r0, r4, ror #14
	...
  60:	0000001c 	andeq	r0, r0, ip, lsl r0
  64:	07f80002 	ldrbeq	r0, [r8, r2]!
  68:	00040000 	andeq	r0, r4, r0
  6c:	00000000 	andeq	r0, r0, r0
  70:	00010d54 	andeq	r0, r1, r4, asr sp
  74:	0000029c 	muleq	r0, ip, r2
	...
  80:	0000001c 	andeq	r0, r0, ip, lsl r0
  84:	129f0002 	addsne	r0, pc, #2
  88:	00040000 	andeq	r0, r4, r0
  8c:	00000000 	andeq	r0, r0, r0
  90:	00010ff0 	strdeq	r0, [r1], -r0	; <UNPREDICTABLE>
  94:	00000bb0 			; <UNDEFINED> instruction: 0x00000bb0
	...
  a0:	0000001c 	andeq	r0, r0, ip, lsl r0
  a4:	21e30002 	mvncs	r0, r2
  a8:	00040000 	andeq	r0, r4, r0
  ac:	00000000 	andeq	r0, r0, r0
  b0:	00011ba0 	andeq	r1, r1, r0, lsr #23
  b4:	00001924 	andeq	r1, r0, r4, lsr #18
	...
  c0:	0000001c 	andeq	r0, r0, ip, lsl r0
  c4:	37280002 	strcc	r0, [r8, -r2]!
  c8:	00040000 	andeq	r0, r4, r0
  cc:	00000000 	andeq	r0, r0, r0
  d0:	000134c4 	andeq	r3, r1, r4, asr #9
  d4:	000003a0 	andeq	r0, r0, r0, lsr #7
	...
  e0:	0000001c 	andeq	r0, r0, ip, lsl r0
  e4:	39dc0002 	ldmibcc	ip, {r1}^
  e8:	00040000 	andeq	r0, r4, r0
  ec:	00000000 	andeq	r0, r0, r0
  f0:	00013864 	andeq	r3, r1, r4, ror #16
  f4:	000005d8 	ldrdeq	r0, [r0], -r8
	...
 100:	0000001c 	andeq	r0, r0, ip, lsl r0
 104:	3dd90002 	ldclcc	0, cr0, [r9, #8]
 108:	00040000 	andeq	r0, r4, r0
 10c:	00000000 	andeq	r0, r0, r0
 110:	00013e3c 	andeq	r3, r1, ip, lsr lr
 114:	000004ac 	andeq	r0, r0, ip, lsr #9
	...
 120:	0000001c 	andeq	r0, r0, ip, lsl r0
 124:	48be0002 	ldmmi	lr!, {r1}
 128:	00040000 	andeq	r0, r4, r0
 12c:	00000000 	andeq	r0, r0, r0
 130:	00014300 	andeq	r4, r1, r0, lsl #6
 134:	00000118 	andeq	r0, r0, r8, lsl r1
	...

Disassembly of section .debug_line:

00000000 <.debug_line>:
       0:	000000f9 	strdeq	r0, [r0], -r9
       4:	009b0002 	addseq	r0, fp, r2
       8:	01020000 	mrseq	r0, (UNDEF: 2)
       c:	000d0efb 	strdeq	r0, [sp], -fp
      10:	01010101 	tsteq	r1, r1, lsl #2
      14:	01000000 	mrseq	r0, (UNDEF: 0)
      18:	2f010000 	svccs	0x00010000
      1c:	2f726176 	svccs	0x00726176
      20:	61636f6c 	cmnvs	r3, ip, ror #30
      24:	74722f6c 	ldrbtvc	r2, [r2], #-3948	; 0xfffff094
      28:	462f736f 	strtmi	r7, [pc], -pc, ror #6
      2c:	52656572 	rsbpl	r6, r5, #478150656	; 0x1c800000
      30:	2f534f54 	svccs	0x00534f54
      34:	72756f53 	rsbsvc	r6, r5, #332	; 0x14c
      38:	702f6563 	eorvc	r6, pc, r3, ror #10
      3c:	6174726f 	cmnvs	r4, pc, ror #4
      40:	2f656c62 	svccs	0x00656c62
      44:	2f434347 	svccs	0x00434347
      48:	70736152 	rsbsvc	r6, r3, r2, asr r1
      4c:	72726562 	rsbsvc	r6, r2, #411041792	; 0x18800000
      50:	00695079 	rsbeq	r5, r9, r9, ror r0
      54:	7261762f 	rsbvc	r7, r1, #49283072	; 0x2f00000
      58:	636f6c2f 	cmnvs	pc, #12032	; 0x2f00
      5c:	722f6c61 	eorvc	r6, pc, #24832	; 0x6100
      60:	2f736f74 	svccs	0x00736f74
      64:	65657246 	strbvs	r7, [r5, #-582]!	; 0xfffffdba
      68:	534f5452 	movtpl	r5, #62546	; 0xf452
      6c:	756f532f 	strbvc	r5, [pc, #-815]!	; fffffd45 <_estack+0xf7fefd45>
      70:	2f656372 	svccs	0x00656372
      74:	6c636e69 	stclvs	14, cr6, [r3], #-420	; 0xfffffe5c
      78:	00656475 	rsbeq	r6, r5, r5, ror r4
      7c:	726f7000 	rsbvc	r7, pc, #0
      80:	00632e74 	rsbeq	r2, r3, r4, ror lr
      84:	70000001 	andvc	r0, r0, r1
      88:	646a6f72 	strbtvs	r6, [sl], #-3954	; 0xfffff08e
      8c:	2e736665 	cdpcs	6, 7, cr6, cr3, cr5, {3}
      90:	00020068 	andeq	r0, r2, r8, rrx
      94:	726f7000 	rsbvc	r7, pc, #0
      98:	63616d74 	cmnvs	r1, #116, 26	; 0x1d00
      9c:	682e6f72 	stmdavs	lr!, {r1, r4, r5, r6, r8, r9, sl, fp, sp, lr}
      a0:	00000100 	andeq	r0, r0, r0, lsl #2
      a4:	02050000 	andeq	r0, r5, #0
      a8:	00010000 	andeq	r0, r1, r0
      ac:	0100f703 	tsteq	r0, r3, lsl #14	; <UNPREDICTABLE>
      b0:	836e4ebd 	cmnhi	lr, #3024	; 0xbd0
      b4:	67676768 	strbvs	r6, [r7, -r8, ror #14]!
      b8:	67676767 	strbvs	r6, [r7, -r7, ror #14]!
      bc:	67676767 	strbvs	r6, [r7, -r7, ror #14]!
      c0:	67676767 	strbvs	r6, [r7, -r7, ror #14]!
      c4:	67676767 	strbvs	r6, [r7, -r7, ror #14]!
      c8:	67676767 	strbvs	r6, [r7, -r7, ror #14]!
      cc:	67676767 	strbvs	r6, [r7, -r7, ror #14]!
      d0:	686a676a 	stmdavs	sl!, {r1, r3, r5, r6, r8, r9, sl, sp, lr}^
      d4:	686ca185 	stmdavs	ip!, {r0, r2, r7, r8, sp, pc}^
      d8:	1622022f 	strtne	r0, [r2], -pc, lsr #4
      dc:	2f31314d 	svccs	0x0031314d
      e0:	0a034d4e 	beq	d3620 <__bss_end+0xbdae8>
      e4:	31319f82 	teqcc	r1, r2, lsl #31
      e8:	036b8867 	cmneq	fp, #6750208	; 0x670000
      ec:	67304a0a 	ldrvs	r4, [r0, -sl, lsl #20]!
      f0:	67676767 	strbvs	r6, [r7, -r7, ror #14]!
      f4:	2f4c8468 	svccs	0x004c8468
      f8:	01000e02 	tsteq	r0, r2, lsl #28
      fc:	00009d01 	andeq	r9, r0, r1, lsl #26
     100:	59000200 	stmdbpl	r0, {r9}
     104:	02000000 	andeq	r0, r0, #0
     108:	0d0efb01 	vstreq	d15, [lr, #-4]
     10c:	01010100 	mrseq	r0, (UNDEF: 17)
     110:	00000001 	andeq	r0, r0, r1
     114:	01000001 	tsteq	r0, r1
     118:	7261762f 	rsbvc	r7, r1, #49283072	; 0x2f00000
     11c:	636f6c2f 	cmnvs	pc, #12032	; 0x2f00
     120:	722f6c61 	eorvc	r6, pc, #24832	; 0x6100
     124:	2f736f74 	svccs	0x00736f74
     128:	65657246 	strbvs	r7, [r5, #-582]!	; 0xfffffdba
     12c:	534f5452 	movtpl	r5, #62546	; 0xf452
     130:	756f532f 	strbvc	r5, [pc, #-815]!	; fffffe09 <_estack+0xf7fefe09>
     134:	2f656372 	svccs	0x00656372
     138:	74726f70 	ldrbtvc	r6, [r2], #-3952	; 0xfffff090
     13c:	656c6261 	strbvs	r6, [ip, #-609]!	; 0xfffffd9f
     140:	4343472f 	movtmi	r4, #14127	; 0x372f
     144:	7361522f 	cmnvc	r1, #-268435454	; 0xf0000002
     148:	72656270 	rsbvc	r6, r5, #112, 4
     14c:	69507972 	ldmdbvs	r0, {r1, r4, r5, r6, r8, fp, ip, sp, lr}^
     150:	6f700000 	svcvs	0x00700000
     154:	73697472 	cmnvc	r9, #1912602624	; 0x72000000
     158:	00632e72 	rsbeq	r2, r3, r2, ror lr
     15c:	00000001 	andeq	r0, r0, r1
     160:	44020500 	strmi	r0, [r2], #-1280	; 0xfffffb00
     164:	03000103 	movweq	r0, #259	; 0x103
     168:	520100f5 	andpl	r0, r1, #245	; 0xf5
     16c:	342f2fa0 	strtcc	r2, [pc], #-4000	; 174 <_start-0x7e8c>
     170:	6c132402 	cfldrsvs	mvf2, [r3], {2}
     174:	16d60e03 	ldrbne	r0, [r6], r3, lsl #28
     178:	152c0231 	strne	r0, [ip, #-561]!	; 0xfffffdcf
     17c:	13240231 			; <UNDEFINED> instruction: 0x13240231
     180:	13661603 	cmnne	r6, #3145728	; 0x300000
     184:	2f132c02 	svccs	0x00132c02
     188:	03132402 	tsteq	r3, #33554432	; 0x2000000
     18c:	034c662a 	movteq	r6, #50730	; 0xc62a
     190:	a19f9e0a 	orrsge	r9, pc, sl, lsl #28
     194:	85a2854b 	strhi	r8, [r2, #1355]!	; 0x54b
     198:	000e02a6 	andeq	r0, lr, r6, lsr #5
     19c:	01a60101 			; <UNDEFINED> instruction: 0x01a60101
     1a0:	00020000 	andeq	r0, r2, r0
     1a4:	000000c9 	andeq	r0, r0, r9, asr #1
     1a8:	0efb0102 	cdpeq	1, 15, cr0, cr11, cr2, {0}
     1ac:	0101000d 	tsteq	r1, sp
     1b0:	00000101 	andeq	r0, r0, r1, lsl #2
     1b4:	00000100 	andeq	r0, r0, r0, lsl #2
     1b8:	61762f01 	cmnvs	r6, r1, lsl #30
     1bc:	6f6c2f72 	svcvs	0x006c2f72
     1c0:	2f6c6163 	svccs	0x006c6163
     1c4:	736f7472 	cmnvc	pc, #1912602624	; 0x72000000
     1c8:	6572462f 	ldrbvs	r4, [r2, #-1583]!	; 0xfffff9d1
     1cc:	4f545265 	svcmi	0x00545265
     1d0:	6f532f53 	svcvs	0x00532f53
     1d4:	65637275 	strbvs	r7, [r3, #-629]!	; 0xfffffd8b
     1d8:	61762f00 	cmnvs	r6, r0, lsl #30
     1dc:	6f6c2f72 	svcvs	0x006c2f72
     1e0:	2f6c6163 	svccs	0x006c6163
     1e4:	736f7472 	cmnvc	pc, #1912602624	; 0x72000000
     1e8:	6572462f 	ldrbvs	r4, [r2, #-1583]!	; 0xfffff9d1
     1ec:	4f545265 	svcmi	0x00545265
     1f0:	6f532f53 	svcvs	0x00532f53
     1f4:	65637275 	strbvs	r7, [r3, #-629]!	; 0xfffffd8b
     1f8:	636e692f 	cmnvs	lr, #770048	; 0xbc000
     1fc:	6564756c 	strbvs	r7, [r4, #-1388]!	; 0xfffffa94
     200:	61762f00 	cmnvs	r6, r0, lsl #30
     204:	6f6c2f72 	svcvs	0x006c2f72
     208:	2f6c6163 	svccs	0x006c6163
     20c:	736f7472 	cmnvc	pc, #1912602624	; 0x72000000
     210:	6572462f 	ldrbvs	r4, [r2, #-1583]!	; 0xfffff9d1
     214:	4f545265 	svcmi	0x00545265
     218:	6f532f53 	svcvs	0x00532f53
     21c:	65637275 	strbvs	r7, [r3, #-629]!	; 0xfffffd8b
     220:	726f702f 	rsbvc	r7, pc, #47	; 0x2f
     224:	6c626174 	stfvse	f6, [r2], #-464	; 0xfffffe30
     228:	43472f65 	movtmi	r2, #32613	; 0x7f65
     22c:	61522f43 	cmpvs	r2, r3, asr #30
     230:	65627073 	strbvs	r7, [r2, #-115]!	; 0xffffff8d
     234:	50797272 	rsbspl	r7, r9, r2, ror r2
     238:	63000069 	movwvs	r0, #105	; 0x69
     23c:	74756f72 	ldrbtvc	r6, [r5], #-3954	; 0xfffff08e
     240:	2e656e69 	cdpcs	14, 6, cr6, cr5, cr9, {3}
     244:	00010063 	andeq	r0, r1, r3, rrx
     248:	73696c00 	cmnvc	r9, #0, 24
     24c:	00682e74 	rsbeq	r2, r8, r4, ror lr
     250:	70000002 	andvc	r0, r0, r2
     254:	6d74726f 	lfmvs	f7, 2, [r4, #-444]!	; 0xfffffe44
     258:	6f726361 	svcvs	0x00726361
     25c:	0300682e 	movweq	r6, #2094	; 0x82e
     260:	72630000 	rsbvc	r0, r3, #0
     264:	6974756f 	ldmdbvs	r4!, {r0, r1, r2, r3, r5, r6, r8, sl, ip, sp, lr}^
     268:	682e656e 	stmdavs	lr!, {r1, r2, r3, r5, r6, r8, sl, sp, lr}
     26c:	00000200 	andeq	r0, r0, r0, lsl #4
     270:	02050000 	andeq	r0, r5, #0
     274:	000105f0 	strdeq	r0, [r1], -r0	; <UNPREDICTABLE>
     278:	01018a03 	tsteq	r1, r3, lsl #20
     27c:	846a67bf 	strbthi	r6, [sl], #-1983	; 0xfffff841
     280:	4e683267 	cdpmi	2, 6, cr3, cr8, cr7, {3}
     284:	69676767 	stmdbvs	r7!, {r0, r1, r2, r5, r6, r8, r9, sl, sp, lr}^
     288:	69678783 	stmdbvs	r7!, {r0, r1, r7, r8, r9, sl, pc}^
     28c:	04020086 	streq	r0, [r2], #-134	; 0xffffff7a
     290:	00ba0601 	adcseq	r0, sl, r1, lsl #12
     294:	82030402 	andhi	r0, r3, #33554432	; 0x2000000
     298:	03040200 	movweq	r0, #16896	; 0x4200
     29c:	6a920806 	bvs	fe4822bc <_estack+0xf64722bc>
     2a0:	a3be2f4d 			; <UNDEFINED> instruction: 0xa3be2f4d
     2a4:	a284a1a3 	addge	sl, r4, #-1073741784	; 0xc0000028
     2a8:	6af52608 	bvs	ffd49ad0 <_estack+0xf7d39ad0>
     2ac:	336adabc 	cmncc	sl, #188, 20	; 0xbc000
     2b0:	a08483a0 	addge	r8, r4, r0, lsr #7
     2b4:	04020083 	streq	r0, [r2], #-131	; 0xffffff7d
     2b8:	00ba0601 	adcseq	r0, sl, r1, lsl #12
     2bc:	82030402 	andhi	r0, r3, #33554432	; 0x2000000
     2c0:	08730306 	ldmdaeq	r3!, {r1, r2, r8, r9}^
     2c4:	820f0390 	andhi	r0, pc, #144, 6	; 0x40000002
     2c8:	30d769be 	ldrhcc	r6, [r7], #158	; 0x9e
     2cc:	6788a19f 			; <UNDEFINED> instruction: 0x6788a19f
     2d0:	a0306a83 	eorsge	r6, r0, r3, lsl #21
     2d4:	85a531bd 	strhi	r3, [r5, #445]!	; 0x1bd
     2d8:	00a08584 	adceq	r8, r0, r4, lsl #11
     2dc:	06010402 	streq	r0, [r1], -r2, lsl #8
     2e0:	040200ba 	streq	r0, [r2], #-186	; 0xffffff46
     2e4:	03068203 	movweq	r8, #25091	; 0x6203
     2e8:	03900865 	orrseq	r0, r0, #6619136	; 0x650000
     2ec:	31039e6e 	tstcc	r3, lr, ror #28
     2f0:	40088382 	andmi	r8, r8, r2, lsl #7
     2f4:	30313168 	eorscc	r3, r1, r8, ror #2
     2f8:	9e790387 	cdpls	3, 7, cr0, cr9, cr7, {4}
     2fc:	58080c03 	stmdapl	r8, {r0, r1, sl, fp}
     300:	01040200 	mrseq	r0, R12_usr
     304:	12280206 	eorne	r0, r8, #1610612736	; 0x60000000
     308:	03040200 	movweq	r0, #16896	; 0x4200
     30c:	0402009e 	streq	r0, [r2], #-158	; 0xffffff62
     310:	00a10603 	adceq	r0, r1, r3, lsl #12
     314:	08030402 	stmdaeq	r3, {r1, sl}
     318:	4a74033e 	bmi	1d01018 <__bss_end+0x1ceb4e0>
     31c:	a22e0d03 	eorge	r0, lr, #3, 26	; 0xc0
     320:	04020069 	streq	r0, [r2], #-105	; 0xffffff97
     324:	02006803 	andeq	r6, r0, #196608	; 0x30000
     328:	1e080304 	cdpne	3, 0, cr0, cr8, cr4, {0}
     32c:	01040200 	mrseq	r0, R12_usr
     330:	6b066606 	blvs	199b50 <__bss_end+0x184018>
     334:	674e4b4b 	strbvs	r4, [lr, -fp, asr #22]
     338:	89240867 	stmdbhi	r4!, {r0, r1, r2, r5, r6, fp}
     33c:	d8a08383 	stmiale	r0!, {r0, r1, r7, r8, r9, pc}
     340:	022f4d6a 	eoreq	r4, pc, #6784	; 0x1a80
     344:	0101000a 	tsteq	r1, sl
     348:	00000228 	andeq	r0, r0, r8, lsr #4
     34c:	01da0002 	bicseq	r0, sl, r2
     350:	01020000 	mrseq	r0, (UNDEF: 2)
     354:	000d0efb 	strdeq	r0, [sp], -fp
     358:	01010101 	tsteq	r1, r1, lsl #2
     35c:	01000000 	mrseq	r0, (UNDEF: 0)
     360:	2f010000 	svccs	0x00010000
     364:	2f726176 	svccs	0x00726176
     368:	61636f6c 	cmnvs	r3, ip, ror #30
     36c:	74722f6c 	ldrbtvc	r2, [r2], #-3948	; 0xfffff094
     370:	462f736f 	strtmi	r7, [pc], -pc, ror #6
     374:	52656572 	rsbpl	r6, r5, #478150656	; 0x1c800000
     378:	2f534f54 	svccs	0x00534f54
     37c:	72756f53 	rsbsvc	r6, r5, #332	; 0x14c
     380:	2f006563 	svccs	0x00006563
     384:	2f727375 	svccs	0x00727375
     388:	61636f6c 	cmnvs	r3, ip, ror #30
     38c:	69622f6c 	stmdbvs	r2!, {r2, r3, r5, r6, r8, r9, sl, fp, sp}^
     390:	63672f6e 	cmnvs	r7, #440	; 0x1b8
     394:	72612d63 	rsbvc	r2, r1, #6336	; 0x18c0
     398:	6f6e2d6d 	svcvs	0x006e2d6d
     39c:	652d656e 	strvs	r6, [sp, #-1390]!	; 0xfffffa92
     3a0:	2d696261 	sfmcs	f6, 2, [r9, #-388]!	; 0xfffffe7c
     3a4:	30322d37 	eorscc	r2, r2, r7, lsr sp
     3a8:	712d3831 			; <UNDEFINED> instruction: 0x712d3831
     3ac:	70752d32 	rsbsvc	r2, r5, r2, lsr sp
     3b0:	65746164 	ldrbvs	r6, [r4, #-356]!	; 0xfffffe9c
     3b4:	6d72612f 	ldfvse	f6, [r2, #-188]!	; 0xffffff44
     3b8:	6e6f6e2d 	cdpvs	14, 6, cr6, cr15, cr13, {1}
     3bc:	61652d65 	cmnvs	r5, r5, ror #26
     3c0:	692f6962 	stmdbvs	pc!, {r1, r5, r6, r8, fp, sp, lr}	; <UNPREDICTABLE>
     3c4:	756c636e 	strbvc	r6, [ip, #-878]!	; 0xfffffc92
     3c8:	732f6564 			; <UNDEFINED> instruction: 0x732f6564
     3cc:	2f007379 	svccs	0x00007379
     3d0:	2f727375 	svccs	0x00727375
     3d4:	61636f6c 	cmnvs	r3, ip, ror #30
     3d8:	69622f6c 	stmdbvs	r2!, {r2, r3, r5, r6, r8, r9, sl, fp, sp}^
     3dc:	63672f6e 	cmnvs	r7, #440	; 0x1b8
     3e0:	72612d63 	rsbvc	r2, r1, #6336	; 0x18c0
     3e4:	6f6e2d6d 	svcvs	0x006e2d6d
     3e8:	652d656e 	strvs	r6, [sp, #-1390]!	; 0xfffffa92
     3ec:	2d696261 	sfmcs	f6, 2, [r9, #-388]!	; 0xfffffe7c
     3f0:	30322d37 	eorscc	r2, r2, r7, lsr sp
     3f4:	712d3831 			; <UNDEFINED> instruction: 0x712d3831
     3f8:	70752d32 	rsbsvc	r2, r5, r2, lsr sp
     3fc:	65746164 	ldrbvs	r6, [r4, #-356]!	; 0xfffffe9c
     400:	62696c2f 	rsbvs	r6, r9, #12032	; 0x2f00
     404:	6363672f 	cmnvs	r3, #12320768	; 0xbc0000
     408:	6d72612f 	ldfvse	f6, [r2, #-188]!	; 0xffffff44
     40c:	6e6f6e2d 	cdpvs	14, 6, cr6, cr15, cr13, {1}
     410:	61652d65 	cmnvs	r5, r5, ror #26
     414:	372f6962 	strcc	r6, [pc, -r2, ror #18]!
     418:	312e332e 			; <UNDEFINED> instruction: 0x312e332e
     41c:	636e692f 	cmnvs	lr, #770048	; 0xbc000
     420:	6564756c 	strbvs	r7, [r4, #-1388]!	; 0xfffffa94
     424:	73752f00 	cmnvc	r5, #0, 30
     428:	6f6c2f72 	svcvs	0x006c2f72
     42c:	2f6c6163 	svccs	0x006c6163
     430:	2f6e6962 	svccs	0x006e6962
     434:	2d636367 	stclcs	3, cr6, [r3, #-412]!	; 0xfffffe64
     438:	2d6d7261 	sfmcs	f7, 2, [sp, #-388]!	; 0xfffffe7c
     43c:	656e6f6e 	strbvs	r6, [lr, #-3950]!	; 0xfffff092
     440:	6261652d 	rsbvs	r6, r1, #188743680	; 0xb400000
     444:	2d372d69 	ldccs	13, cr2, [r7, #-420]!	; 0xfffffe5c
     448:	38313032 	ldmdacc	r1!, {r1, r4, r5, ip, sp}
     44c:	2d32712d 	ldfcss	f7, [r2, #-180]!	; 0xffffff4c
     450:	61647075 	smcvs	18181	; 0x4705
     454:	612f6574 			; <UNDEFINED> instruction: 0x612f6574
     458:	6e2d6d72 	mcrvs	13, 1, r6, cr13, cr2, {3}
     45c:	2d656e6f 	stclcs	14, cr6, [r5, #-444]!	; 0xfffffe44
     460:	69626165 	stmdbvs	r2!, {r0, r2, r5, r6, r8, sp, lr}^
     464:	636e692f 	cmnvs	lr, #770048	; 0xbc000
     468:	6564756c 	strbvs	r7, [r4, #-1388]!	; 0xfffffa94
     46c:	61762f00 	cmnvs	r6, r0, lsl #30
     470:	6f6c2f72 	svcvs	0x006c2f72
     474:	2f6c6163 	svccs	0x006c6163
     478:	736f7472 	cmnvc	pc, #1912602624	; 0x72000000
     47c:	6572462f 	ldrbvs	r4, [r2, #-1583]!	; 0xfffff9d1
     480:	4f545265 	svcmi	0x00545265
     484:	6f532f53 	svcvs	0x00532f53
     488:	65637275 	strbvs	r7, [r3, #-629]!	; 0xfffffd8b
     48c:	726f702f 	rsbvc	r7, pc, #47	; 0x2f
     490:	6c626174 	stfvse	f6, [r2], #-464	; 0xfffffe30
     494:	43472f65 	movtmi	r2, #32613	; 0x7f65
     498:	61522f43 	cmpvs	r2, r3, asr #30
     49c:	65627073 	strbvs	r7, [r2, #-115]!	; 0xffffff8d
     4a0:	50797272 	rsbspl	r7, r9, r2, ror r2
     4a4:	762f0069 	strtvc	r0, [pc], -r9, rrx
     4a8:	6c2f7261 	sfmvs	f7, 4, [pc], #-388	; 32c <_start-0x7cd4>
     4ac:	6c61636f 	stclvs	3, cr6, [r1], #-444	; 0xfffffe44
     4b0:	6f74722f 	svcvs	0x0074722f
     4b4:	72462f73 	subvc	r2, r6, #460	; 0x1cc
     4b8:	54526565 	ldrbpl	r6, [r2], #-1381	; 0xfffffa9b
     4bc:	532f534f 			; <UNDEFINED> instruction: 0x532f534f
     4c0:	6372756f 	cmnvs	r2, #465567744	; 0x1bc00000
     4c4:	6e692f65 	cdpvs	15, 6, cr2, cr9, cr5, {3}
     4c8:	64756c63 	ldrbtvs	r6, [r5], #-3171	; 0xfffff39d
     4cc:	6c000065 	stcvs	0, cr0, [r0], {101}	; 0x65
     4d0:	2e747369 	cdpcs	3, 7, cr7, cr4, cr9, {3}
     4d4:	00010063 	andeq	r0, r1, r3, rrx
     4d8:	636f6c00 	cmnvs	pc, #0, 24
     4dc:	00682e6b 	rsbeq	r2, r8, fp, ror #28
     4e0:	5f000002 	svcpl	0x00000002
     4e4:	65707974 	ldrbvs	r7, [r0, #-2420]!	; 0xfffff68c
     4e8:	00682e73 	rsbeq	r2, r8, r3, ror lr
     4ec:	73000002 	movwvc	r0, #2
     4f0:	65646474 	strbvs	r6, [r4, #-1140]!	; 0xfffffb8c
     4f4:	00682e66 	rsbeq	r2, r8, r6, ror #28
     4f8:	72000003 	andvc	r0, r0, #3
     4fc:	746e6565 	strbtvc	r6, [lr], #-1381	; 0xfffffa9b
     500:	0200682e 	andeq	r6, r0, #3014656	; 0x2e0000
     504:	74730000 	ldrbtvc	r0, [r3], #-0
     508:	62696c64 	rsbvs	r6, r9, #100, 24	; 0x6400
     50c:	0400682e 	streq	r6, [r0], #-2094	; 0xfffff7d2
     510:	6f700000 	svcvs	0x00700000
     514:	616d7472 	smcvs	55106	; 0xd742
     518:	2e6f7263 	cdpcs	2, 6, cr7, cr15, cr3, {3}
     51c:	00050068 	andeq	r0, r5, r8, rrx
     520:	73696c00 	cmnvc	r9, #0, 24
     524:	00682e74 	rsbeq	r2, r8, r4, ror lr
     528:	00000006 	andeq	r0, r0, r6
     52c:	54020500 	strpl	r0, [r2], #-1280	; 0xfffffb00
     530:	0300010d 	movweq	r0, #269	; 0x10d
     534:	860100cc 	strhi	r0, [r1], -ip, asr #1
     538:	84836a86 	strhi	r6, [r3], #2694	; 0xa86
     53c:	67848667 	strvs	r8, [r4, r7, ror #12]
     540:	8368a586 	cmnhi	r8, #562036736	; 0x21800000
     544:	69678383 	stmdbvs	r7!, {r0, r1, r7, r8, r9, pc}^
     548:	a3869f68 	orrge	r9, r6, #104, 30	; 0x1a0
     54c:	68660903 	stmdavs	r6!, {r0, r1, r8, fp}^
     550:	00821403 	addeq	r1, r2, r3, lsl #8
     554:	06030402 	streq	r0, [r3], -r2, lsl #8
     558:	04020082 	streq	r0, [r2], #-130	; 0xffffff7e
     55c:	c1066601 	tstgt	r6, r1, lsl #12
     560:	6a678383 	bvs	19e1374 <__bss_end+0x19cb83c>
     564:	85869f68 	strhi	r9, [r6, #3944]	; 0xf68
     568:	a069a29f 	mlsge	r9, pc, r2, sl	; <UNPREDICTABLE>
     56c:	029f6785 	addseq	r6, pc, #34865152	; 0x2140000
     570:	01010008 	tsteq	r1, r8
     574:	0000032a 	andeq	r0, r0, sl, lsr #6
     578:	01e50002 	mvneq	r0, r2
     57c:	01020000 	mrseq	r0, (UNDEF: 2)
     580:	000d0efb 	strdeq	r0, [sp], -fp
     584:	01010101 	tsteq	r1, r1, lsl #2
     588:	01000000 	mrseq	r0, (UNDEF: 0)
     58c:	2f010000 	svccs	0x00010000
     590:	2f726176 	svccs	0x00726176
     594:	61636f6c 	cmnvs	r3, ip, ror #30
     598:	74722f6c 	ldrbtvc	r2, [r2], #-3948	; 0xfffff094
     59c:	462f736f 	strtmi	r7, [pc], -pc, ror #6
     5a0:	52656572 	rsbpl	r6, r5, #478150656	; 0x1c800000
     5a4:	2f534f54 	svccs	0x00534f54
     5a8:	72756f53 	rsbsvc	r6, r5, #332	; 0x14c
     5ac:	2f006563 	svccs	0x00006563
     5b0:	2f727375 	svccs	0x00727375
     5b4:	61636f6c 	cmnvs	r3, ip, ror #30
     5b8:	69622f6c 	stmdbvs	r2!, {r2, r3, r5, r6, r8, r9, sl, fp, sp}^
     5bc:	63672f6e 	cmnvs	r7, #440	; 0x1b8
     5c0:	72612d63 	rsbvc	r2, r1, #6336	; 0x18c0
     5c4:	6f6e2d6d 	svcvs	0x006e2d6d
     5c8:	652d656e 	strvs	r6, [sp, #-1390]!	; 0xfffffa92
     5cc:	2d696261 	sfmcs	f6, 2, [r9, #-388]!	; 0xfffffe7c
     5d0:	30322d37 	eorscc	r2, r2, r7, lsr sp
     5d4:	712d3831 			; <UNDEFINED> instruction: 0x712d3831
     5d8:	70752d32 	rsbsvc	r2, r5, r2, lsr sp
     5dc:	65746164 	ldrbvs	r6, [r4, #-356]!	; 0xfffffe9c
     5e0:	62696c2f 	rsbvs	r6, r9, #12032	; 0x2f00
     5e4:	6363672f 	cmnvs	r3, #12320768	; 0xbc0000
     5e8:	6d72612f 	ldfvse	f6, [r2, #-188]!	; 0xffffff44
     5ec:	6e6f6e2d 	cdpvs	14, 6, cr6, cr15, cr13, {1}
     5f0:	61652d65 	cmnvs	r5, r5, ror #26
     5f4:	372f6962 	strcc	r6, [pc, -r2, ror #18]!
     5f8:	312e332e 			; <UNDEFINED> instruction: 0x312e332e
     5fc:	636e692f 	cmnvs	lr, #770048	; 0xbc000
     600:	6564756c 	strbvs	r7, [r4, #-1388]!	; 0xfffffa94
     604:	73752f00 	cmnvc	r5, #0, 30
     608:	6f6c2f72 	svcvs	0x006c2f72
     60c:	2f6c6163 	svccs	0x006c6163
     610:	2f6e6962 	svccs	0x006e6962
     614:	2d636367 	stclcs	3, cr6, [r3, #-412]!	; 0xfffffe64
     618:	2d6d7261 	sfmcs	f7, 2, [sp, #-388]!	; 0xfffffe7c
     61c:	656e6f6e 	strbvs	r6, [lr, #-3950]!	; 0xfffff092
     620:	6261652d 	rsbvs	r6, r1, #188743680	; 0xb400000
     624:	2d372d69 	ldccs	13, cr2, [r7, #-420]!	; 0xfffffe5c
     628:	38313032 	ldmdacc	r1!, {r1, r4, r5, ip, sp}
     62c:	2d32712d 	ldfcss	f7, [r2, #-180]!	; 0xffffff4c
     630:	61647075 	smcvs	18181	; 0x4705
     634:	612f6574 			; <UNDEFINED> instruction: 0x612f6574
     638:	6e2d6d72 	mcrvs	13, 1, r6, cr13, cr2, {3}
     63c:	2d656e6f 	stclcs	14, cr6, [r5, #-444]!	; 0xfffffe44
     640:	69626165 	stmdbvs	r2!, {r0, r2, r5, r6, r8, sp, lr}^
     644:	636e692f 	cmnvs	lr, #770048	; 0xbc000
     648:	6564756c 	strbvs	r7, [r4, #-1388]!	; 0xfffffa94
     64c:	7379732f 	cmnvc	r9, #-1140850688	; 0xbc000000
     650:	73752f00 	cmnvc	r5, #0, 30
     654:	6f6c2f72 	svcvs	0x006c2f72
     658:	2f6c6163 	svccs	0x006c6163
     65c:	2f6e6962 	svccs	0x006e6962
     660:	2d636367 	stclcs	3, cr6, [r3, #-412]!	; 0xfffffe64
     664:	2d6d7261 	sfmcs	f7, 2, [sp, #-388]!	; 0xfffffe7c
     668:	656e6f6e 	strbvs	r6, [lr, #-3950]!	; 0xfffff092
     66c:	6261652d 	rsbvs	r6, r1, #188743680	; 0xb400000
     670:	2d372d69 	ldccs	13, cr2, [r7, #-420]!	; 0xfffffe5c
     674:	38313032 	ldmdacc	r1!, {r1, r4, r5, ip, sp}
     678:	2d32712d 	ldfcss	f7, [r2, #-180]!	; 0xffffff4c
     67c:	61647075 	smcvs	18181	; 0x4705
     680:	612f6574 			; <UNDEFINED> instruction: 0x612f6574
     684:	6e2d6d72 	mcrvs	13, 1, r6, cr13, cr2, {3}
     688:	2d656e6f 	stclcs	14, cr6, [r5, #-444]!	; 0xfffffe44
     68c:	69626165 	stmdbvs	r2!, {r0, r2, r5, r6, r8, sp, lr}^
     690:	636e692f 	cmnvs	lr, #770048	; 0xbc000
     694:	6564756c 	strbvs	r7, [r4, #-1388]!	; 0xfffffa94
     698:	61762f00 	cmnvs	r6, r0, lsl #30
     69c:	6f6c2f72 	svcvs	0x006c2f72
     6a0:	2f6c6163 	svccs	0x006c6163
     6a4:	736f7472 	cmnvc	pc, #1912602624	; 0x72000000
     6a8:	6572462f 	ldrbvs	r4, [r2, #-1583]!	; 0xfffff9d1
     6ac:	4f545265 	svcmi	0x00545265
     6b0:	6f532f53 	svcvs	0x00532f53
     6b4:	65637275 	strbvs	r7, [r3, #-629]!	; 0xfffffd8b
     6b8:	726f702f 	rsbvc	r7, pc, #47	; 0x2f
     6bc:	6c626174 	stfvse	f6, [r2], #-464	; 0xfffffe30
     6c0:	43472f65 	movtmi	r2, #32613	; 0x7f65
     6c4:	61522f43 	cmpvs	r2, r3, asr #30
     6c8:	65627073 	strbvs	r7, [r2, #-115]!	; 0xffffff8d
     6cc:	50797272 	rsbspl	r7, r9, r2, ror r2
     6d0:	762f0069 	strtvc	r0, [pc], -r9, rrx
     6d4:	6c2f7261 	sfmvs	f7, 4, [pc], #-388	; 558 <_start-0x7aa8>
     6d8:	6c61636f 	stclvs	3, cr6, [r1], #-444	; 0xfffffe44
     6dc:	6f74722f 	svcvs	0x0074722f
     6e0:	72462f73 	subvc	r2, r6, #460	; 0x1cc
     6e4:	54526565 	ldrbpl	r6, [r2], #-1381	; 0xfffffa9b
     6e8:	532f534f 			; <UNDEFINED> instruction: 0x532f534f
     6ec:	6372756f 	cmnvs	r2, #465567744	; 0x1bc00000
     6f0:	6e692f65 	cdpvs	15, 6, cr2, cr9, cr5, {3}
     6f4:	64756c63 	ldrbtvs	r6, [r5], #-3171	; 0xfffff39d
     6f8:	71000065 	tstvc	r0, r5, rrx
     6fc:	65756575 	ldrbvs	r6, [r5, #-1397]!	; 0xfffffa8b
     700:	0100632e 	tsteq	r0, lr, lsr #6
     704:	74730000 	ldrbtvc	r0, [r3], #-0
     708:	66656464 	strbtvs	r6, [r5], -r4, ror #8
     70c:	0200682e 	andeq	r6, r0, #3014656	; 0x2e0000
     710:	6f6c0000 	svcvs	0x006c0000
     714:	682e6b63 	stmdavs	lr!, {r0, r1, r5, r6, r8, r9, fp, sp, lr}
     718:	00000300 	andeq	r0, r0, r0, lsl #6
     71c:	7079745f 	rsbsvc	r7, r9, pc, asr r4
     720:	682e7365 	stmdavs	lr!, {r0, r2, r5, r6, r8, r9, ip, sp, lr}
     724:	00000300 	andeq	r0, r0, r0, lsl #6
     728:	6e656572 	mcrvs	5, 3, r6, cr5, cr2, {3}
     72c:	00682e74 	rsbeq	r2, r8, r4, ror lr
     730:	73000003 	movwvc	r0, #3
     734:	696c6474 	stmdbvs	ip!, {r2, r4, r5, r6, sl, sp, lr}^
     738:	00682e62 	rsbeq	r2, r8, r2, ror #28
     73c:	70000004 	andvc	r0, r0, r4
     740:	6d74726f 	lfmvs	f7, 2, [r4, #-444]!	; 0xfffffe44
     744:	6f726361 	svcvs	0x00726361
     748:	0500682e 	streq	r6, [r0, #-2094]	; 0xfffff7d2
     74c:	696c0000 	stmdbvs	ip!, {}^	; <UNPREDICTABLE>
     750:	682e7473 	stmdavs	lr!, {r0, r1, r4, r5, r6, sl, ip, sp, lr}
     754:	00000600 	andeq	r0, r0, r0, lsl #12
     758:	6b736174 	blvs	1cd8d30 <__bss_end+0x1cc31f8>
     75c:	0600682e 	streq	r6, [r0], -lr, lsr #16
     760:	00000000 	andeq	r0, r0, r0
     764:	0ff00205 	svceq	0x00f00205
     768:	97030001 	strls	r0, [r3, -r1]
     76c:	30a10102 	adccc	r0, r1, r2, lsl #2
     770:	83673d08 	cmnhi	r7, #8, 26	; 0x200
     774:	68675908 	stmdavs	r7!, {r3, r8, fp, ip, lr}^
     778:	51d8846d 	bicspl	r8, r8, sp, ror #8
     77c:	2f328583 	svccs	0x00328583
     780:	6851d96a 	ldmdavs	r1, {r1, r3, r5, r6, r8, fp, ip, lr, pc}^
     784:	9fa06a67 	svcls	0x00a06a67
     788:	6e676786 	cdpvs	7, 6, cr6, cr7, cr6, {4}
     78c:	032f516b 			; <UNDEFINED> instruction: 0x032f516b
     790:	d76601d0 			; <UNDEFINED> instruction: 0xd76601d0
     794:	324a0b03 	subcc	r0, sl, #3072	; 0xc00
     798:	dc8486bd 	stcle	6, cr8, [r4], {189}	; 0xbd
     79c:	6a4e3232 	bvs	138d06c <__bss_end+0x1377534>
     7a0:	676a4c33 			; <UNDEFINED> instruction: 0x676a4c33
     7a4:	002f334e 	eoreq	r3, pc, lr, asr #6
     7a8:	06010402 	streq	r0, [r1], -r2, lsl #8
     7ac:	0402009e 	streq	r0, [r2], #-158	; 0xffffff62
     7b0:	02006603 	andeq	r6, r0, #3145728	; 0x300000
     7b4:	00820404 	addeq	r0, r2, r4, lsl #8
     7b8:	66060402 	strvs	r0, [r6], -r2, lsl #8
     7bc:	06040200 	streq	r0, [r4], -r0, lsl #4
     7c0:	a1f43106 	mvnsge	r3, r6, lsl #2
     7c4:	508451c1 	addpl	r5, r4, r1, asr #3
     7c8:	334b504b 	movtcc	r5, #45131	; 0xb04b
     7cc:	03040200 	movweq	r0, #16896	; 0x4200
     7d0:	01d20331 	bicseq	r0, r2, r1, lsr r3
     7d4:	d60c0366 	strle	r0, [ip], -r6, ror #6
     7d8:	8486be4c 	strhi	fp, [r6], #3660	; 0xe4c
     7dc:	0368da84 	cmneq	r8, #132, 20	; 0x84000
     7e0:	6ba18209 	blvs	fe86100c <_estack+0xf685100c>
     7e4:	d76a2f4f 	strble	r2, [sl, -pc, asr #30]!
     7e8:	324a0d03 	subcc	r0, sl, #3, 26	; 0xc0
     7ec:	6b686885 	blvs	1a1aa08 <__bss_end+0x1a04ed0>
     7f0:	849e0d03 	ldrhi	r0, [lr], #3331	; 0xd03
     7f4:	4a0a03d8 	bmi	28175c <__bss_end+0x26bc24>
     7f8:	33d9866a 	bicscc	r8, r9, #111149056	; 0x6a00000
     7fc:	306a4e2f 	rsbcc	r4, sl, pc, lsr #28
     800:	4e676a4c 	vnmulmi.f32	s13, s14, s24
     804:	02002f33 	andeq	r2, r0, #51, 30	; 0xcc
     808:	9e060104 	adflss	f0, f6, f4
     80c:	03040200 	movweq	r0, #16896	; 0x4200
     810:	04020066 	streq	r0, [r2], #-102	; 0xffffff9a
     814:	02008204 	andeq	r8, r0, #4, 4	; 0x40000000
     818:	00660604 	rsbeq	r0, r6, r4, lsl #12
     81c:	06060402 	streq	r0, [r6], -r2, lsl #8
     820:	1103f431 	tstne	r3, r1, lsr r4	; <UNPREDICTABLE>
     824:	844bbb9e 	strbhi	fp, [fp], #-2974	; 0xfffff462
     828:	4b4f4b50 	blmi	13d3570 <__bss_end+0x13bda38>
     82c:	04020030 	streq	r0, [r2], #-48	; 0xffffffd0
     830:	c16a3103 	cmngt	sl, r3, lsl #2
     834:	a367864d 	cmnge	r7, #80740352	; 0x4d00000
     838:	68da8484 	ldmvs	sl, {r2, r7, sl, pc}^
     83c:	a1820903 	orrge	r0, r2, r3, lsl #18
     840:	6a2f506a 	bvs	bd49f0 <__bss_end+0xbbeeb8>
     844:	30672f87 	rsbcc	r2, r7, r7, lsl #31
     848:	68876a2f 	stmvs	r7, {r0, r1, r2, r3, r5, r9, fp, sp, lr}
     84c:	8387862f 	orrhi	r8, r7, #49283072	; 0x2f00000
     850:	6622034b 	strtvs	r0, [r2], -fp, asr #6
     854:	820d03bb 	andhi	r0, sp, #-335544318	; 0xec000002
     858:	bcd7d768 	ldcllt	7, cr13, [r7], {104}	; 0x68
     85c:	bcf3d7a3 	ldcllt	7, cr13, [r3], #652	; 0x28c
     860:	9f6a9ff6 	svcls	0x006a9ff6
     864:	84bcd784 	ldrthi	sp, [ip], #1924	; 0x784
     868:	31896ad8 	ldrdcc	r6, [r9, r8]
     86c:	31da8632 	bicscc	r8, sl, r2, lsr r6
     870:	039e7103 	orrseq	r7, lr, #-1073741824	; 0xc0000000
     874:	68329e13 	ldmdavs	r2!, {r0, r1, r4, r9, sl, fp, ip, pc}
     878:	84303031 	ldrthi	r3, [r0], #-49	; 0xffffffcf
     87c:	770331d8 			; <UNDEFINED> instruction: 0x770331d8
     880:	9e0d039e 	mcrls	3, 0, r0, cr13, cr14, {4}
     884:	6a2f6832 	bvs	bda954 <__bss_end+0xbc4e1c>
     888:	30d72f85 	sbcscc	r2, r7, r5, lsl #31
     88c:	d8866a2f 	stmle	r6, {r0, r1, r2, r3, r5, r9, fp, sp, lr}
     890:	2f85862f 	svccs	0x0085862f
     894:	2f302108 	svccs	0x00302108
     898:	2208866a 	andcs	r8, r8, #111149056	; 0x6a00000
     89c:	0008022f 	andeq	r0, r8, pc, lsr #4
     8a0:	05450101 	strbeq	r0, [r5, #-257]	; 0xfffffeff
     8a4:	00020000 	andeq	r0, r2, r0
     8a8:	00000201 	andeq	r0, r0, r1, lsl #4
     8ac:	0efb0102 	cdpeq	1, 15, cr0, cr11, cr2, {0}
     8b0:	0101000d 	tsteq	r1, sp
     8b4:	00000101 	andeq	r0, r0, r1, lsl #2
     8b8:	00000100 	andeq	r0, r0, r0, lsl #2
     8bc:	61762f01 	cmnvs	r6, r1, lsl #30
     8c0:	6f6c2f72 	svcvs	0x006c2f72
     8c4:	2f6c6163 	svccs	0x006c6163
     8c8:	736f7472 	cmnvc	pc, #1912602624	; 0x72000000
     8cc:	6572462f 	ldrbvs	r4, [r2, #-1583]!	; 0xfffff9d1
     8d0:	4f545265 	svcmi	0x00545265
     8d4:	6f532f53 	svcvs	0x00532f53
     8d8:	65637275 	strbvs	r7, [r3, #-629]!	; 0xfffffd8b
     8dc:	73752f00 	cmnvc	r5, #0, 30
     8e0:	6f6c2f72 	svcvs	0x006c2f72
     8e4:	2f6c6163 	svccs	0x006c6163
     8e8:	2f6e6962 	svccs	0x006e6962
     8ec:	2d636367 	stclcs	3, cr6, [r3, #-412]!	; 0xfffffe64
     8f0:	2d6d7261 	sfmcs	f7, 2, [sp, #-388]!	; 0xfffffe7c
     8f4:	656e6f6e 	strbvs	r6, [lr, #-3950]!	; 0xfffff092
     8f8:	6261652d 	rsbvs	r6, r1, #188743680	; 0xb400000
     8fc:	2d372d69 	ldccs	13, cr2, [r7, #-420]!	; 0xfffffe5c
     900:	38313032 	ldmdacc	r1!, {r1, r4, r5, ip, sp}
     904:	2d32712d 	ldfcss	f7, [r2, #-180]!	; 0xffffff4c
     908:	61647075 	smcvs	18181	; 0x4705
     90c:	6c2f6574 	cfstr32vs	mvfx6, [pc], #-464	; 744 <_start-0x78bc>
     910:	672f6269 	strvs	r6, [pc, -r9, ror #4]!
     914:	612f6363 			; <UNDEFINED> instruction: 0x612f6363
     918:	6e2d6d72 	mcrvs	13, 1, r6, cr13, cr2, {3}
     91c:	2d656e6f 	stclcs	14, cr6, [r5, #-444]!	; 0xfffffe44
     920:	69626165 	stmdbvs	r2!, {r0, r2, r5, r6, r8, sp, lr}^
     924:	332e372f 			; <UNDEFINED> instruction: 0x332e372f
     928:	692f312e 	stmdbvs	pc!, {r1, r2, r3, r5, r8, ip, sp}	; <UNPREDICTABLE>
     92c:	756c636e 	strbvc	r6, [ip, #-878]!	; 0xfffffc92
     930:	2f006564 	svccs	0x00006564
     934:	2f727375 	svccs	0x00727375
     938:	61636f6c 	cmnvs	r3, ip, ror #30
     93c:	69622f6c 	stmdbvs	r2!, {r2, r3, r5, r6, r8, r9, sl, fp, sp}^
     940:	63672f6e 	cmnvs	r7, #440	; 0x1b8
     944:	72612d63 	rsbvc	r2, r1, #6336	; 0x18c0
     948:	6f6e2d6d 	svcvs	0x006e2d6d
     94c:	652d656e 	strvs	r6, [sp, #-1390]!	; 0xfffffa92
     950:	2d696261 	sfmcs	f6, 2, [r9, #-388]!	; 0xfffffe7c
     954:	30322d37 	eorscc	r2, r2, r7, lsr sp
     958:	712d3831 			; <UNDEFINED> instruction: 0x712d3831
     95c:	70752d32 	rsbsvc	r2, r5, r2, lsr sp
     960:	65746164 	ldrbvs	r6, [r4, #-356]!	; 0xfffffe9c
     964:	6d72612f 	ldfvse	f6, [r2, #-188]!	; 0xffffff44
     968:	6e6f6e2d 	cdpvs	14, 6, cr6, cr15, cr13, {1}
     96c:	61652d65 	cmnvs	r5, r5, ror #26
     970:	692f6962 	stmdbvs	pc!, {r1, r5, r6, r8, fp, sp, lr}	; <UNPREDICTABLE>
     974:	756c636e 	strbvc	r6, [ip, #-878]!	; 0xfffffc92
     978:	732f6564 			; <UNDEFINED> instruction: 0x732f6564
     97c:	2f007379 	svccs	0x00007379
     980:	2f727375 	svccs	0x00727375
     984:	61636f6c 	cmnvs	r3, ip, ror #30
     988:	69622f6c 	stmdbvs	r2!, {r2, r3, r5, r6, r8, r9, sl, fp, sp}^
     98c:	63672f6e 	cmnvs	r7, #440	; 0x1b8
     990:	72612d63 	rsbvc	r2, r1, #6336	; 0x18c0
     994:	6f6e2d6d 	svcvs	0x006e2d6d
     998:	652d656e 	strvs	r6, [sp, #-1390]!	; 0xfffffa92
     99c:	2d696261 	sfmcs	f6, 2, [r9, #-388]!	; 0xfffffe7c
     9a0:	30322d37 	eorscc	r2, r2, r7, lsr sp
     9a4:	712d3831 			; <UNDEFINED> instruction: 0x712d3831
     9a8:	70752d32 	rsbsvc	r2, r5, r2, lsr sp
     9ac:	65746164 	ldrbvs	r6, [r4, #-356]!	; 0xfffffe9c
     9b0:	6d72612f 	ldfvse	f6, [r2, #-188]!	; 0xffffff44
     9b4:	6e6f6e2d 	cdpvs	14, 6, cr6, cr15, cr13, {1}
     9b8:	61652d65 	cmnvs	r5, r5, ror #26
     9bc:	692f6962 	stmdbvs	pc!, {r1, r5, r6, r8, fp, sp, lr}	; <UNPREDICTABLE>
     9c0:	756c636e 	strbvc	r6, [ip, #-878]!	; 0xfffffc92
     9c4:	2f006564 	svccs	0x00006564
     9c8:	2f726176 	svccs	0x00726176
     9cc:	61636f6c 	cmnvs	r3, ip, ror #30
     9d0:	74722f6c 	ldrbtvc	r2, [r2], #-3948	; 0xfffff094
     9d4:	462f736f 	strtmi	r7, [pc], -pc, ror #6
     9d8:	52656572 	rsbpl	r6, r5, #478150656	; 0x1c800000
     9dc:	2f534f54 	svccs	0x00534f54
     9e0:	72756f53 	rsbsvc	r6, r5, #332	; 0x14c
     9e4:	692f6563 	stmdbvs	pc!, {r0, r1, r5, r6, r8, sl, sp, lr}	; <UNPREDICTABLE>
     9e8:	756c636e 	strbvc	r6, [ip, #-878]!	; 0xfffffc92
     9ec:	2f006564 	svccs	0x00006564
     9f0:	2f726176 	svccs	0x00726176
     9f4:	61636f6c 	cmnvs	r3, ip, ror #30
     9f8:	74722f6c 	ldrbtvc	r2, [r2], #-3948	; 0xfffff094
     9fc:	462f736f 	strtmi	r7, [pc], -pc, ror #6
     a00:	52656572 	rsbpl	r6, r5, #478150656	; 0x1c800000
     a04:	2f534f54 	svccs	0x00534f54
     a08:	72756f53 	rsbsvc	r6, r5, #332	; 0x14c
     a0c:	702f6563 	eorvc	r6, pc, r3, ror #10
     a10:	6174726f 	cmnvs	r4, pc, ror #4
     a14:	2f656c62 	svccs	0x00656c62
     a18:	2f434347 	svccs	0x00434347
     a1c:	70736152 	rsbsvc	r6, r3, r2, asr r1
     a20:	72726562 	rsbsvc	r6, r2, #411041792	; 0x18800000
     a24:	00695079 	rsbeq	r5, r9, r9, ror r0
     a28:	73617400 	cmnvc	r1, #0, 8
     a2c:	632e736b 			; <UNDEFINED> instruction: 0x632e736b
     a30:	00000100 	andeq	r0, r0, r0, lsl #2
     a34:	64647473 	strbtvs	r7, [r4], #-1139	; 0xfffffb8d
     a38:	682e6665 	stmdavs	lr!, {r0, r2, r5, r6, r9, sl, sp, lr}
     a3c:	00000200 	andeq	r0, r0, r0, lsl #4
     a40:	6b636f6c 	blvs	18dc7f8 <__bss_end+0x18c6cc0>
     a44:	0300682e 	movweq	r6, #2094	; 0x82e
     a48:	745f0000 	ldrbvc	r0, [pc], #-0	; a50 <_start-0x75b0>
     a4c:	73657079 	cmnvc	r5, #121	; 0x79
     a50:	0300682e 	movweq	r6, #2094	; 0x82e
     a54:	65720000 	ldrbvs	r0, [r2, #-0]!
     a58:	2e746e65 	cdpcs	14, 7, cr6, cr4, cr5, {3}
     a5c:	00030068 	andeq	r0, r3, r8, rrx
     a60:	64747300 	ldrbtvs	r7, [r4], #-768	; 0xfffffd00
     a64:	2e62696c 	vnmulcs.f16	s13, s4, s25	; <UNPREDICTABLE>
     a68:	00040068 	andeq	r0, r4, r8, rrx
     a6c:	6f727000 	svcvs	0x00727000
     a70:	6665646a 	strbtvs	r6, [r5], -sl, ror #8
     a74:	00682e73 	rsbeq	r2, r8, r3, ror lr
     a78:	70000005 	andvc	r0, r0, r5
     a7c:	6d74726f 	lfmvs	f7, 2, [r4, #-444]!	; 0xfffffe44
     a80:	6f726361 	svcvs	0x00726361
     a84:	0600682e 	streq	r6, [r0], -lr, lsr #16
     a88:	72460000 	subvc	r0, r6, #0
     a8c:	54526565 	ldrbpl	r6, [r2], #-1381	; 0xfffffa9b
     a90:	682e534f 	stmdavs	lr!, {r0, r1, r2, r3, r6, r8, r9, ip, lr}
     a94:	00000500 	andeq	r0, r0, r0, lsl #10
     a98:	7473696c 	ldrbtvc	r6, [r3], #-2412	; 0xfffff694
     a9c:	0500682e 	streq	r6, [r0, #-2094]	; 0xfffff7d2
     aa0:	61740000 	cmnvs	r4, r0
     aa4:	682e6b73 	stmdavs	lr!, {r0, r1, r4, r5, r6, r8, r9, fp, sp, lr}
     aa8:	00000500 	andeq	r0, r0, r0, lsl #10
     aac:	02050000 	andeq	r0, r5, #0
     ab0:	00011ba0 	andeq	r1, r1, r0, lsr #23
     ab4:	01039b03 	tsteq	r3, r3, lsl #22
     ab8:	a0f20903 	rscsge	r0, r2, r3, lsl #18
     abc:	d7661803 	strble	r1, [r6, -r3, lsl #16]!
     ac0:	03661403 	cmneq	r6, #50331648	; 0x3000000
     ac4:	6bddd60c 	blvs	ff7762fc <_estack+0xf77662fc>
     ac8:	869f306b 	ldrhi	r3, [pc], fp, rrx
     acc:	84528768 	ldrbhi	r8, [r2], #-1896	; 0xfffff898
     ad0:	03bc6dbc 			; <UNDEFINED> instruction: 0x03bc6dbc
     ad4:	00a08209 	adceq	r8, r0, r9, lsl #4
     ad8:	06010402 	streq	r0, [r1], -r2, lsl #8
     adc:	040200ba 	streq	r0, [r2], #-186	; 0xffffff46
     ae0:	02008203 	andeq	r8, r0, #805306368	; 0x30000000
     ae4:	08060304 	stmdaeq	r6, {r2, r8, r9}
     ae8:	04020092 	streq	r0, [r2], #-146	; 0xffffff6e
     aec:	4e4e4e03 	cdpmi	14, 4, cr4, cr14, cr3, {0}
     af0:	33bc8668 			; <UNDEFINED> instruction: 0x33bc8668
     af4:	8542082f 	strbhi	r0, [r2, #-2095]	; 0xfffff7d1
     af8:	004ea032 	subeq	sl, lr, r2, lsr r0
     afc:	06010402 	streq	r0, [r1], -r2, lsl #8
     b00:	04020066 	streq	r0, [r2], #-102	; 0xffffff9a
     b04:	02006602 	andeq	r6, r0, #2097152	; 0x200000
     b08:	002e0404 	eoreq	r0, lr, r4, lsl #8
     b0c:	06040402 	streq	r0, [r4], -r2, lsl #8
     b10:	04020034 	streq	r0, [r2], #-52	; 0xffffffcc
     b14:	85848504 	strhi	r8, [r4, #1284]	; 0x504
     b18:	31a2a2a3 			; <UNDEFINED> instruction: 0x31a2a2a3
     b1c:	03316884 	teqeq	r1, #132, 16	; 0x840000
     b20:	4fa0f210 	svcmi	0x00a0f210
     b24:	00c1a031 	sbceq	sl, r1, r1, lsr r0
     b28:	06010402 	streq	r0, [r1], -r2, lsl #8
     b2c:	6ea0069e 	mcrvs	6, 5, r0, cr0, cr14, {4}
     b30:	01040200 	mrseq	r0, R12_usr
     b34:	a0069e06 	andge	r9, r6, r6, lsl #28
     b38:	9f6d684f 	svcls	0x006d684f
     b3c:	30684e4d 	rsbcc	r4, r8, sp, asr #28
     b40:	684d84a6 	stmdavs	sp, {r1, r2, r5, r7, sl, pc}^
     b44:	a32e0e03 			; <UNDEFINED> instruction: 0xa32e0e03
     b48:	684f4c9f 	stmdavs	pc, {r0, r1, r2, r3, r4, r7, sl, fp, lr}^	; <UNPREDICTABLE>
     b4c:	3286a630 	addcc	sl, r6, #48, 12	; 0x3000000
     b50:	01040200 	mrseq	r0, R12_usr
     b54:	02006606 	andeq	r6, r0, #6291456	; 0x600000
     b58:	00660204 	rsbeq	r0, r6, r4, lsl #4
     b5c:	2e040402 	cdpcs	4, 0, cr0, cr4, cr2, {0}
     b60:	04040200 	streq	r0, [r4], #-512	; 0xfffffe00
     b64:	02002f06 	andeq	r2, r0, #6, 30
     b68:	00680404 	rsbeq	r0, r8, r4, lsl #8
     b6c:	30040402 	andcc	r0, r4, r2, lsl #8
     b70:	04040200 	streq	r0, [r4], #-512	; 0xfffffe00
     b74:	4fa18a2f 	svcmi	0x00a18a2f
     b78:	a0304d68 	eorsge	r4, r0, r8, ror #26
     b7c:	0402004f 	streq	r0, [r2], #-79	; 0xffffffb1
     b80:	00660601 	rsbeq	r0, r6, r1, lsl #12
     b84:	66020402 	strvs	r0, [r2], -r2, lsl #8
     b88:	04040200 	streq	r0, [r4], #-512	; 0xfffffe00
     b8c:	0402002e 	streq	r0, [r2], #-46	; 0xffffffd2
     b90:	0a030604 	beq	c23a8 <__bss_end+0xac870>
     b94:	0402002e 	streq	r0, [r2], #-46	; 0xffffffd2
     b98:	84866a04 	strhi	r6, [r6], #2564	; 0xa04
     b9c:	036a696c 	cmneq	sl, #108, 18	; 0x1b0000
     ba0:	886a4a13 	stmdahi	sl!, {r0, r1, r4, r9, fp, lr}^
     ba4:	00835d08 	addeq	r5, r3, r8, lsl #26
     ba8:	06010402 	streq	r0, [r1], -r2, lsl #8
     bac:	040200ba 	streq	r0, [r2], #-186	; 0xffffff46
     bb0:	08068203 	stmdaeq	r6, {r0, r1, r9, pc}
     bb4:	2f326893 	svccs	0x00326893
     bb8:	a03285c2 	eorsge	r8, r2, r2, asr #11
     bbc:	0402004e 	streq	r0, [r2], #-78	; 0xffffffb2
     bc0:	00660601 	rsbeq	r0, r6, r1, lsl #12
     bc4:	66020402 	strvs	r0, [r2], -r2, lsl #8
     bc8:	04040200 	streq	r0, [r4], #-512	; 0xfffffe00
     bcc:	0402002e 	streq	r0, [r2], #-46	; 0xffffffd2
     bd0:	00330604 	eorseq	r0, r3, r4, lsl #12
     bd4:	85040402 	strhi	r0, [r4, #-1026]	; 0xfffffbfe
     bd8:	30a08584 	adccc	r8, r0, r4, lsl #11
     bdc:	15038568 	strne	r8, [r3, #-1384]	; 0xfffffa98
     be0:	2e72032e 	cdpcs	3, 7, cr0, cr2, cr14, {1}
     be4:	322a6ec0 	eorcc	r6, sl, #192, 28	; 0xc00
     be8:	514b83de 	ldrdpl	r8, [fp, #-62]	; 0xffffffc2
     bec:	4f84a4a1 	svcmi	0x0084a4a1
     bf0:	4e8ac22f 	cdpmi	2, 8, cr12, cr10, cr15, {1}
     bf4:	01040200 	mrseq	r0, R12_usr
     bf8:	a0066606 	andge	r6, r6, r6, lsl #12
     bfc:	0083a430 	addeq	sl, r3, r0, lsr r4
     c00:	06010402 	streq	r0, [r1], -r2, lsl #8
     c04:	040200ba 	streq	r0, [r2], #-186	; 0xffffff46
     c08:	02008203 	andeq	r8, r0, #805306368	; 0x30000000
     c0c:	08060304 	stmdaeq	r6, {r2, r8, r9}
     c10:	3032da93 	mlascc	r2, r3, sl, sp
     c14:	83ba0903 			; <UNDEFINED> instruction: 0x83ba0903
     c18:	a24c4c50 	subge	r4, ip, #80, 24	; 0x5000
     c1c:	833d0884 	teqhi	sp, #132, 16	; 0x840000
     c20:	01040200 	mrseq	r0, R12_usr
     c24:	0200ba06 	andeq	fp, r0, #24576	; 0x6000
     c28:	06820304 	streq	r0, [r2], r4, lsl #6
     c2c:	2fa4b308 	svccs	0x00a4b308
     c30:	03f20d03 	mvnseq	r0, #3, 26	; 0xc0
     c34:	0d03660d 	stceq	6, cr6, [r3, #-52]	; 0xffffffcc
     c38:	0a03ac08 	beq	ebc60 <__bss_end+0xd6128>
     c3c:	0367a066 	cmneq	r7, #102	; 0x66
     c40:	0d036609 	stceq	6, cr6, [r3, #-36]	; 0xffffffdc
     c44:	9f4eda2e 	svcls	0x004eda2e
     c48:	4d6a2f67 	stclmi	15, cr2, [sl, #-412]!	; 0xfffffe64
     c4c:	0368a29f 	cmneq	r8, #-268435447	; 0xf0000009
     c50:	a0304a0b 	eorsge	r4, r0, fp, lsl #20
     c54:	304e8484 	subcc	r8, lr, r4, lsl #9
     c58:	00676767 	rsbeq	r6, r7, r7, ror #14
     c5c:	06010402 	streq	r0, [r1], -r2, lsl #8
     c60:	0402009e 	streq	r0, [r2], #-158	; 0xffffff62
     c64:	02006603 	andeq	r6, r0, #3145728	; 0x300000
     c68:	08060304 	stmdaeq	r6, {r2, r8, r9}
     c6c:	7503bc5c 	strvc	fp, [r3, #-3164]	; 0xfffff3a4
     c70:	8212034a 	andshi	r0, r2, #671088641	; 0x28000001
     c74:	9b2f3084 	blls	bcce8c <__bss_end+0xbb7354>
     c78:	4f820b03 	svcmi	0x00820b03
     c7c:	01040200 	mrseq	r0, R12_usr
     c80:	84066606 	strhi	r6, [r6], #-1542	; 0xfffff9fa
     c84:	3033674b 	eorscc	r6, r3, fp, asr #14
     c88:	080e032f 	stmdaeq	lr, {r0, r1, r2, r3, r5, r8, r9}
     c8c:	68306a58 	ldmdavs	r0!, {r3, r4, r6, r9, fp, sp, lr}
     c90:	6a862f30 	bvs	fe18c958 <_estack+0xf617c958>
     c94:	a22f694b 	eorge	r6, pc, #1228800	; 0x12c000
     c98:	ae034b4d 	vmlsge.f64	d4, d3, d13
     c9c:	846c9e01 	strbthi	r9, [ip], #-3585	; 0xfffff1ff
     ca0:	8209039f 	andhi	r0, r9, #2080374786	; 0x7c000002
     ca4:	a0678367 	rsbge	r8, r7, r7, ror #6
     ca8:	879f8aa5 	ldrhi	r8, [pc, r5, lsr #21]
     cac:	0c040200 	sfmeq	f0, 4, [r4], {-0}
     cb0:	0200ba06 	andeq	fp, r0, #24576	; 0x6000
     cb4:	009e0204 	addseq	r0, lr, r4, lsl #4
     cb8:	82030402 	andhi	r0, r3, #33554432	; 0x2000000
     cbc:	04040200 	streq	r0, [r4], #-512	; 0xfffffe00
     cc0:	02009008 	andeq	r9, r0, #8
     cc4:	00820504 	addeq	r0, r2, r4, lsl #10
     cc8:	f2060402 	vshl.s8	d0, d2, d6
     ccc:	08040200 	stmdaeq	r4, {r9}
     cd0:	04020082 	streq	r0, [r2], #-130	; 0xffffff7e
     cd4:	0200ba09 	andeq	fp, r0, #36864	; 0x9000
     cd8:	06820b04 	streq	r0, [r2], r4, lsl #22
     cdc:	1703b008 	strne	fp, [r3, -r8]
     ce0:	a296089e 	addsge	r0, r6, #10354688	; 0x9e0000
     ce4:	2f4f8668 	svccs	0x004f8668
     ce8:	878a2f67 	strhi	r2, [sl, r7, ror #30]
     cec:	2f4f8668 	svccs	0x004f8668
     cf0:	8a2f3067 	bhi	bcce94 <__bss_end+0xbb735c>
     cf4:	4d8668a3 	stcmi	8, cr6, [r6, #652]	; 0x28c
     cf8:	2f4dbe84 	svccs	0x004dbe84
     cfc:	03866788 	orreq	r6, r6, #136, 14	; 0x2200000
     d00:	6e036633 	mcrvs	6, 0, r6, cr3, cr3, {1}
     d04:	0d039b2e 	vstreq	d9, [r3, #-184]	; 0xffffff48
     d08:	02005808 	andeq	r5, r0, #8, 16	; 0x80000
     d0c:	02060104 	andeq	r0, r6, #4, 2
     d10:	02001228 	andeq	r1, r0, #40, 4	; 0x80000002
     d14:	069e0304 	ldreq	r0, [lr], r4, lsl #6
     d18:	032408a6 			; <UNDEFINED> instruction: 0x032408a6
     d1c:	a3bf9e0b 			; <UNDEFINED> instruction: 0xa3bf9e0b
     d20:	ba12036b 	blt	481ad4 <__bss_end+0x46bf9c>
     d24:	9f2e7403 	svcls	0x002e7403
     d28:	034a0b03 	movteq	r0, #43779	; 0xab03
     d2c:	1103ba26 	tstne	r3, r6, lsr #20
     d30:	84848482 	strhi	r8, [r4], #1154	; 0x482
     d34:	04020083 	streq	r0, [r2], #-131	; 0xffffff7d
     d38:	00ba0601 	adcseq	r0, sl, r1, lsl #12
     d3c:	82030402 	andhi	r0, r3, #33554432	; 0x2000000
     d40:	a1b20806 			; <UNDEFINED> instruction: 0xa1b20806
     d44:	2f4d6adc 	svccs	0x004d6adc
     d48:	838384f6 	orrhi	r8, r3, #-167772160	; 0xf6000000
     d4c:	8434a4be 	ldrthi	sl, [r4], #-1214	; 0xfffffb42
     d50:	0402006b 	streq	r0, [r2], #-107	; 0xffffff95
     d54:	06ba0601 	ldrteq	r0, [sl], r1, lsl #12
     d58:	230868c0 	movwcs	r6, #35008	; 0x88c0
     d5c:	6a4b3d08 	bvs	12d0184 <__bss_end+0x12ba64c>
     d60:	a22f304d 	eorge	r3, pc, #77	; 0x4d
     d64:	3203674b 	andcc	r6, r3, #19660800	; 0x12c0000
     d68:	1703899e 			; <UNDEFINED> instruction: 0x1703899e
     d6c:	6703842e 	strvs	r8, [r3, -lr, lsr #8]
     d70:	4a3a032e 	bmi	e81a30 <__bss_end+0xe6bef8>
     d74:	686abddb 	stmdavs	sl!, {r0, r1, r3, r4, r6, r7, r8, sl, fp, ip, sp, pc}^
     d78:	86836d4d 	strhi	r6, [r3], sp, asr #26
     d7c:	0a038369 	beq	e1b28 <__bss_end+0xcbff0>
     d80:	66140366 	ldrvs	r0, [r4], -r6, ror #6
     d84:	69661703 	stmdbvs	r6!, {r0, r1, r8, r9, sl, ip}^
     d88:	03040200 	movweq	r0, #16896	; 0x4200
     d8c:	04020068 	streq	r0, [r2], #-104	; 0xffffff98
     d90:	001e0803 	andseq	r0, lr, r3, lsl #16
     d94:	06010402 	streq	r0, [r1], -r2, lsl #8
     d98:	4b6b0666 	blmi	1ac2738 <__bss_end+0x1aacc00>
     d9c:	50504e4b 	subspl	r4, r0, fp, asr #28
     da0:	5c086767 	stcpl	7, cr6, [r8], {103}	; 0x67
     da4:	d72f846d 	strle	r8, [pc, -sp, ror #8]!
     da8:	83306a30 	teqhi	r0, #48, 20	; 0x30000
     dac:	30a09f83 	adccc	r9, r0, r3, lsl #31
     db0:	8484be4f 	strhi	fp, [r4], #3663	; 0xe4f
     db4:	f20f03a1 	vcgt.s8	d0, d31, d17
     db8:	f72e7603 			; <UNDEFINED> instruction: 0xf72e7603
     dbc:	bff669a0 	svclt	0x00f669a0
     dc0:	02006b68 	andeq	r6, r0, #104, 22	; 0x1a000
     dc4:	66060104 	strvs	r0, [r6], -r4, lsl #2
     dc8:	02040200 	andeq	r0, r4, #0, 4
     dcc:	040200ba 	streq	r0, [r2], #-186	; 0xffffff46
     dd0:	02002e04 	andeq	r2, r0, #4, 28	; 0x40
     dd4:	4c060404 	cfstrsmi	mvf0, [r6], {4}
     dd8:	036b4b85 	cmneq	fp, #136192	; 0x21400
     ddc:	032fd60a 			; <UNDEFINED> instruction: 0x032fd60a
     de0:	8a66019d 	bhi	198145c <__bss_end+0x196b924>
     de4:	06024b83 	streq	r4, [r2], -r3, lsl #23
     de8:	9e010100 	adflss	f0, f1, f0
     dec:	02000000 	andeq	r0, r0, #0
     df0:	00004200 	andeq	r4, r0, r0, lsl #4
     df4:	fb010200 	blx	415fe <__bss_end+0x2bac6>
     df8:	01000d0e 	tsteq	r0, lr, lsl #26
     dfc:	00010101 	andeq	r0, r1, r1, lsl #2
     e00:	00010000 	andeq	r0, r1, r0
     e04:	762f0100 	strtvc	r0, [pc], -r0, lsl #2
     e08:	6c2f7261 	sfmvs	f7, 4, [pc], #-388	; c8c <_start-0x7374>
     e0c:	6c61636f 	stclvs	3, cr6, [r1], #-444	; 0xfffffe44
     e10:	6f74722f 	svcvs	0x0074722f
     e14:	65442f73 	strbvs	r2, [r4, #-3955]	; 0xfffff08d
     e18:	442f6f6d 	strtmi	r6, [pc], #-3949	; e20 <_start-0x71e0>
     e1c:	65766972 	ldrbvs	r6, [r6, #-2418]!	; 0xfffff68e
     e20:	00007372 	andeq	r7, r0, r2, ror r3
     e24:	2e717269 	cdpcs	2, 7, cr7, cr1, cr9, {3}
     e28:	00010063 	andeq	r0, r1, r3, rrx
     e2c:	71726900 	cmnvc	r2, r0, lsl #18
     e30:	0100682e 	tsteq	r0, lr, lsr #16
     e34:	00000000 	andeq	r0, r0, r0
     e38:	34c40205 	strbcc	r0, [r4], #517	; 0x205
     e3c:	1e030001 	cdpne	0, 0, cr0, cr3, cr1, {0}
     e40:	85319f01 	ldrhi	r9, [r1, #-3841]!	; 0xfffff0ff
     e44:	5b089f85 	blpl	228c60 <__bss_end+0x213128>
     e48:	03d67303 	bicseq	r7, r6, #201326592	; 0xc000000
     e4c:	4b8a660f 	blmi	fe29a690 <_estack+0xf628a690>
     e50:	67f5674d 	ldrbvs	r6, [r5, sp, asr #14]!
     e54:	85d767f5 	ldrbhi	r6, [r7, #2037]	; 0x7f5
     e58:	4b852f4b 	blmi	fe14cb8c <_estack+0xf613cb8c>
     e5c:	67bb852f 	ldrvs	r8, [fp, pc, lsr #10]!
     e60:	30bb832f 	adcscc	r8, fp, pc, lsr #6
     e64:	67a08385 	strvs	r8, [r0, r5, lsl #7]!
     e68:	ba0a0367 	blt	281c0c <__bss_end+0x26c0d4>
     e6c:	672e7803 	strvs	r7, [lr, -r3, lsl #16]!
     e70:	672ac067 	strvs	ip, [sl, -r7, rrx]!
     e74:	83bdbc67 			; <UNDEFINED> instruction: 0x83bdbc67
     e78:	036767a0 	cmneq	r7, #160, 14	; 0x2800000
     e7c:	7803d60a 	stmdavc	r3, {r1, r3, r9, sl, ip, lr, pc}
     e80:	dc67672e 	stclle	7, cr6, [r7], #-184	; 0xffffff48
     e84:	d867672a 	stmdale	r7!, {r1, r3, r5, r8, r9, sl, sp, lr}^
     e88:	01000c02 	tsteq	r0, r2, lsl #24
     e8c:	0000ac01 	andeq	sl, r0, r1, lsl #24
     e90:	44000200 	strmi	r0, [r0], #-512	; 0xfffffe00
     e94:	02000000 	andeq	r0, r0, #0
     e98:	0d0efb01 	vstreq	d15, [lr, #-4]
     e9c:	01010100 	mrseq	r0, (UNDEF: 17)
     ea0:	00000001 	andeq	r0, r0, r1
     ea4:	01000001 	tsteq	r0, r1
     ea8:	7261762f 	rsbvc	r7, r1, #49283072	; 0x2f00000
     eac:	636f6c2f 	cmnvs	pc, #12032	; 0x2f00
     eb0:	722f6c61 	eorvc	r6, pc, #24832	; 0x6100
     eb4:	2f736f74 	svccs	0x00736f74
     eb8:	6f6d6544 	svcvs	0x006d6544
     ebc:	6972442f 	ldmdbvs	r2!, {r0, r1, r2, r3, r5, sl, lr}^
     ec0:	73726576 	cmnvc	r2, #494927872	; 0x1d800000
     ec4:	70670000 	rsbvc	r0, r7, r0
     ec8:	632e6f69 			; <UNDEFINED> instruction: 0x632e6f69
     ecc:	00000100 	andeq	r0, r0, r0, lsl #2
     ed0:	6f697067 	svcvs	0x00697067
     ed4:	0100682e 	tsteq	r0, lr, lsr #16
     ed8:	00000000 	andeq	r0, r0, r0
     edc:	38640205 	stmdacc	r4!, {r0, r2, r9}^
     ee0:	e8030001 	stmda	r3, {r0}
     ee4:	a0a00100 	adcge	r0, r0, r0, lsl #2
     ee8:	083d0884 	ldmdaeq	sp!, {r2, r7, fp}
     eec:	833d0859 	teqhi	sp, #5832704	; 0x590000
     ef0:	6883bbbc 	stmvs	r3, {r2, r3, r4, r5, r7, r8, r9, fp, ip, sp, pc}
     ef4:	67a0679f 			; <UNDEFINED> instruction: 0x67a0679f
     ef8:	082cb008 	stmdaeq	ip!, {r3, ip, sp, pc}
     efc:	0883a03e 	stmeq	r3, {r1, r2, r3, r4, r5, sp, pc}
     f00:	83bba159 			; <UNDEFINED> instruction: 0x83bba159
     f04:	085a0868 	ldmdaeq	sl, {r3, r5, r6, fp}^
     f08:	3d0830ad 	stccc	0, cr3, [r8, #-692]	; 0xfffffd4c
     f0c:	30ad0830 	adccc	r0, sp, r0, lsr r8
     f10:	08303d08 	ldmdaeq	r0!, {r3, r8, sl, fp, ip, sp}
     f14:	3d0830ad 	stccc	0, cr3, [r8, #-692]	; 0xfffffd4c
     f18:	bba13030 	bllt	fe84cfe0 <_estack+0xf683cfe0>
     f1c:	5a0868bb 	bpl	21b210 <__bss_end+0x2056d8>
     f20:	0830ad08 	ldmdaeq	r0!, {r3, r8, sl, fp, sp, pc}
     f24:	ad08303d 	stcge	0, cr3, [r8, #-244]	; 0xffffff0c
     f28:	303d0830 	eorscc	r0, sp, r0, lsr r8
     f2c:	0830ad08 	ldmdaeq	r0!, {r3, r8, sl, fp, sp, pc}
     f30:	a130303d 	teqge	r0, sp, lsr r0
     f34:	9f689f83 	svcls	0x00689f83
     f38:	01000a02 	tsteq	r0, r2, lsl #20
     f3c:	0001f001 	andeq	pc, r1, r1
     f40:	74000200 	strvc	r0, [r0], #-512	; 0xfffffe00
     f44:	02000001 	andeq	r0, r0, #1
     f48:	0d0efb01 	vstreq	d15, [lr, #-4]
     f4c:	01010100 	mrseq	r0, (UNDEF: 17)
     f50:	00000001 	andeq	r0, r0, r1
     f54:	01000001 	tsteq	r0, r1
     f58:	7261762f 	rsbvc	r7, r1, #49283072	; 0x2f00000
     f5c:	636f6c2f 	cmnvs	pc, #12032	; 0x2f00
     f60:	722f6c61 	eorvc	r6, pc, #24832	; 0x6100
     f64:	2f736f74 	svccs	0x00736f74
     f68:	6572462f 	ldrbvs	r4, [r2, #-1583]!	; 0xfffff9d1
     f6c:	4f545265 	svcmi	0x00545265
     f70:	6f532f53 	svcvs	0x00532f53
     f74:	65637275 	strbvs	r7, [r3, #-629]!	; 0xfffffd8b
     f78:	726f702f 	rsbvc	r7, pc, #47	; 0x2f
     f7c:	6c626174 	stfvse	f6, [r2], #-464	; 0xfffffe30
     f80:	654d2f65 	strbvs	r2, [sp, #-3941]	; 0xfffff09b
     f84:	6e614d6d 	cdpvs	13, 6, cr4, cr1, cr13, {3}
     f88:	752f0067 	strvc	r0, [pc, #-103]!	; f29 <_start-0x70d7>
     f8c:	6c2f7273 	sfmvs	f7, 4, [pc], #-460	; dc8 <_start-0x7238>
     f90:	6c61636f 	stclvs	3, cr6, [r1], #-444	; 0xfffffe44
     f94:	6e69622f 	cdpvs	2, 6, cr6, cr9, cr15, {1}
     f98:	6363672f 	cmnvs	r3, #12320768	; 0xbc0000
     f9c:	6d72612d 	ldfvse	f6, [r2, #-180]!	; 0xffffff4c
     fa0:	6e6f6e2d 	cdpvs	14, 6, cr6, cr15, cr13, {1}
     fa4:	61652d65 	cmnvs	r5, r5, ror #26
     fa8:	372d6962 	strcc	r6, [sp, -r2, ror #18]!
     fac:	3130322d 	teqcc	r0, sp, lsr #4
     fb0:	32712d38 	rsbscc	r2, r1, #56, 26	; 0xe00
     fb4:	6470752d 	ldrbtvs	r7, [r0], #-1325	; 0xfffffad3
     fb8:	2f657461 	svccs	0x00657461
     fbc:	2f62696c 	svccs	0x0062696c
     fc0:	2f636367 	svccs	0x00636367
     fc4:	2d6d7261 	sfmcs	f7, 2, [sp, #-388]!	; 0xfffffe7c
     fc8:	656e6f6e 	strbvs	r6, [lr, #-3950]!	; 0xfffff092
     fcc:	6261652d 	rsbvs	r6, r1, #188743680	; 0xb400000
     fd0:	2e372f69 	cdpcs	15, 3, cr2, cr7, cr9, {3}
     fd4:	2f312e33 	svccs	0x00312e33
     fd8:	6c636e69 	stclvs	14, cr6, [r3], #-420	; 0xfffffe5c
     fdc:	00656475 	rsbeq	r6, r5, r5, ror r4
     fe0:	7273752f 	rsbsvc	r7, r3, #197132288	; 0xbc00000
     fe4:	636f6c2f 	cmnvs	pc, #12032	; 0x2f00
     fe8:	622f6c61 	eorvs	r6, pc, #24832	; 0x6100
     fec:	672f6e69 	strvs	r6, [pc, -r9, ror #28]!
     ff0:	612d6363 			; <UNDEFINED> instruction: 0x612d6363
     ff4:	6e2d6d72 	mcrvs	13, 1, r6, cr13, cr2, {3}
     ff8:	2d656e6f 	stclcs	14, cr6, [r5, #-444]!	; 0xfffffe44
     ffc:	69626165 	stmdbvs	r2!, {r0, r2, r5, r6, r8, sp, lr}^
    1000:	322d372d 	eorcc	r3, sp, #11796480	; 0xb40000
    1004:	2d383130 	ldfcss	f3, [r8, #-192]!	; 0xffffff40
    1008:	752d3271 	strvc	r3, [sp, #-625]!	; 0xfffffd8f
    100c:	74616470 	strbtvc	r6, [r1], #-1136	; 0xfffffb90
    1010:	72612f65 	rsbvc	r2, r1, #404	; 0x194
    1014:	6f6e2d6d 	svcvs	0x006e2d6d
    1018:	652d656e 	strvs	r6, [sp, #-1390]!	; 0xfffffa92
    101c:	2f696261 	svccs	0x00696261
    1020:	6c636e69 	stclvs	14, cr6, [r3], #-420	; 0xfffffe5c
    1024:	2f656475 	svccs	0x00656475
    1028:	00737973 	rsbseq	r7, r3, r3, ror r9
    102c:	7273752f 	rsbsvc	r7, r3, #197132288	; 0xbc00000
    1030:	636f6c2f 	cmnvs	pc, #12032	; 0x2f00
    1034:	622f6c61 	eorvs	r6, pc, #24832	; 0x6100
    1038:	672f6e69 	strvs	r6, [pc, -r9, ror #28]!
    103c:	612d6363 			; <UNDEFINED> instruction: 0x612d6363
    1040:	6e2d6d72 	mcrvs	13, 1, r6, cr13, cr2, {3}
    1044:	2d656e6f 	stclcs	14, cr6, [r5, #-444]!	; 0xfffffe44
    1048:	69626165 	stmdbvs	r2!, {r0, r2, r5, r6, r8, sp, lr}^
    104c:	322d372d 	eorcc	r3, sp, #11796480	; 0xb40000
    1050:	2d383130 	ldfcss	f3, [r8, #-192]!	; 0xffffff40
    1054:	752d3271 	strvc	r3, [sp, #-625]!	; 0xfffffd8f
    1058:	74616470 	strbtvc	r6, [r1], #-1136	; 0xfffffb90
    105c:	72612f65 	rsbvc	r2, r1, #404	; 0x194
    1060:	6f6e2d6d 	svcvs	0x006e2d6d
    1064:	652d656e 	strvs	r6, [sp, #-1390]!	; 0xfffffa92
    1068:	2f696261 	svccs	0x00696261
    106c:	6c636e69 	stclvs	14, cr6, [r3], #-420	; 0xfffffe5c
    1070:	00656475 	rsbeq	r6, r5, r5, ror r4
    1074:	61656800 	cmnvs	r5, r0, lsl #16
    1078:	2e345f70 	mrccs	15, 1, r5, cr4, cr0, {3}
    107c:	00010063 	andeq	r0, r1, r3, rrx
    1080:	64747300 	ldrbtvs	r7, [r4], #-768	; 0xfffffd00
    1084:	2e666564 	cdpcs	5, 6, cr6, cr6, cr4, {3}
    1088:	00020068 	andeq	r0, r2, r8, rrx
    108c:	636f6c00 	cmnvs	pc, #0, 24
    1090:	00682e6b 	rsbeq	r2, r8, fp, ror #28
    1094:	5f000003 	svcpl	0x00000003
    1098:	65707974 	ldrbvs	r7, [r0, #-2420]!	; 0xfffff68c
    109c:	00682e73 	rsbeq	r2, r8, r3, ror lr
    10a0:	72000003 	andvc	r0, r0, #3
    10a4:	746e6565 	strbtvc	r6, [lr], #-1381	; 0xfffffa9b
    10a8:	0300682e 	movweq	r6, #2094	; 0x82e
    10ac:	74730000 	ldrbtvc	r0, [r3], #-0
    10b0:	62696c64 	rsbvs	r6, r9, #100, 24	; 0x6400
    10b4:	0400682e 	streq	r6, [r0], #-2094	; 0xfffff7d2
    10b8:	00000000 	andeq	r0, r0, r0
    10bc:	3e3c0205 	cdpcc	2, 3, cr0, cr12, cr5, {0}
    10c0:	92030001 	andls	r0, r3, #1
    10c4:	4c840101 	stfmis	f0, [r4], {1}
    10c8:	68338432 	ldmdavs	r3!, {r1, r4, r5, sl, pc}
    10cc:	008685a2 	addeq	r8, r6, r2, lsr #11
    10d0:	06010402 	streq	r0, [r1], -r2, lsl #8
    10d4:	4b860666 	blmi	fe182a74 <_estack+0xf6172a74>
    10d8:	634b3067 	movtvs	r3, #45159	; 0xb067
    10dc:	01040200 	mrseq	r0, R12_usr
    10e0:	8a069e06 	bhi	1a8900 <__bss_end+0x192dc8>
    10e4:	f785a2a2 			; <UNDEFINED> instruction: 0xf785a2a2
    10e8:	4d69bb86 	vstmdbmi	r9!, {d27-d29}
    10ec:	2e0c03da 	mcrcs	3, 0, r0, cr12, cr10, {6}
    10f0:	83da2fbc 	bicshi	r2, sl, #188, 30	; 0x2f0
    10f4:	4ca16a4d 	vstmiami	r1!, {s12-s88}
    10f8:	304cd731 	subcc	sp, ip, r1, lsr r7
    10fc:	a24b4b86 	subge	r4, fp, #137216	; 0x21800
    1100:	0903864c 	stmdbeq	r3, {r2, r3, r6, r9, sl, pc}
    1104:	836a6766 	cmnhi	sl, #26738688	; 0x1980000
    1108:	8683689f 	pkhbthi	r6, r3, pc, lsl #17	; <UNPREDICTABLE>
    110c:	bb859f4b 	bllt	fe168e40 <_estack+0xf6158e40>
    1110:	020088f6 	andeq	r8, r0, #16121856	; 0xf60000
    1114:	66060304 	strvs	r0, [r6], -r4, lsl #6
    1118:	01040200 	mrseq	r0, R12_usr
    111c:	4ba50666 	blmi	fe942abc <_estack+0xf6932abc>
    1120:	4b4fd7d8 	blmi	13f7088 <__bss_end+0x13e1550>
    1124:	bef3bdf4 	mrclt	13, 7, fp, cr3, cr4, {7}
    1128:	688489a3 	stmvs	r4, {r0, r1, r5, r7, r8, fp, pc}
    112c:	01000c02 	tsteq	r0, r2, lsl #24
    1130:	00008601 	andeq	r8, r0, r1, lsl #12
    1134:	32000200 	andcc	r0, r0, #0, 4
    1138:	02000000 	andeq	r0, r0, #0
    113c:	0d0efb01 	vstreq	d15, [lr, #-4]
    1140:	01010100 	mrseq	r0, (UNDEF: 17)
    1144:	00000001 	andeq	r0, r0, r1
    1148:	01000001 	tsteq	r0, r1
    114c:	7261762f 	rsbvc	r7, r1, #49283072	; 0x2f00000
    1150:	636f6c2f 	cmnvs	pc, #12032	; 0x2f00
    1154:	722f6c61 	eorvc	r6, pc, #24832	; 0x6100
    1158:	2f736f74 	svccs	0x00736f74
    115c:	6f6d6544 	svcvs	0x006d6544
    1160:	616d0000 	cmnvs	sp, r0
    1164:	632e6e69 			; <UNDEFINED> instruction: 0x632e6e69
    1168:	00000100 	andeq	r0, r0, r0, lsl #2
    116c:	02050000 	andeq	r0, r5, #0
    1170:	00014300 	andeq	r4, r1, r0, lsl #6
    1174:	0100c903 	tsteq	r0, r3, lsl #18
    1178:	04020084 	streq	r0, [r2], #-132	; 0xffffff7c
    117c:	02004c01 	andeq	r4, r0, #256	; 0x100
    1180:	00670104 	rsbeq	r0, r7, r4, lsl #2
    1184:	67010402 	strvs	r0, [r1, -r2, lsl #8]
    1188:	01040200 	mrseq	r0, R12_usr
    118c:	00843448 	addeq	r3, r4, r8, asr #8
    1190:	4c010402 	cfstrsmi	mvf0, [r1], {2}
    1194:	01040200 	mrseq	r0, R12_usr
    1198:	04020067 	streq	r0, [r2], #-103	; 0xffffff99
    119c:	02004b01 	andeq	r4, r0, #1024	; 0x400
    11a0:	00670104 	rsbeq	r0, r7, r4, lsl #2
    11a4:	47010402 	strmi	r0, [r1, -r2, lsl #8]
    11a8:	672e0f03 	strvs	r0, [lr, -r3, lsl #30]!
    11ac:	08910868 	ldmeq	r1, {r3, r5, r6, fp}
    11b0:	04020092 	streq	r0, [r2], #-146	; 0xffffff6e
    11b4:	0a023401 	beq	8e1c0 <__bss_end+0x78688>
    11b8:	Address 0x00000000000011b8 is out of bounds.


Disassembly of section .debug_str:

00000000 <.debug_str>:
       0:	5152496e 	cmppl	r2, lr, ror #18
       4:	43787000 	cmnmi	r8, #0
       8:	0065646f 	rsbeq	r6, r5, pc, ror #8
       c:	7261762f 	rsbvc	r7, r1, #49283072	; 0x2f00000
      10:	636f6c2f 	cmnvs	pc, #12032	; 0x2f00
      14:	722f6c61 	eorvc	r6, pc, #24832	; 0x6100
      18:	00736f74 	rsbseq	r6, r3, r4, ror pc
      1c:	74726f70 	ldrbtvc	r6, [r2], #-3952	; 0xfffff090
      20:	6b636954 	blvs	18da578 <__bss_end+0x18c4a40>
      24:	65707954 	ldrbvs	r7, [r0, #-2388]!	; 0xfffff6ac
      28:	76727000 	ldrbtvc	r7, [r2], -r0
      2c:	75746553 	ldrbvc	r6, [r4, #-1363]!	; 0xfffffaad
      30:	6d695470 	cfstrdvs	mvd5, [r9, #-448]!	; 0xfffffe40
      34:	6e497265 	cdpvs	2, 4, cr7, cr9, cr5, {3}
      38:	72726574 	rsbsvc	r6, r2, #116, 10	; 0x1d000000
      3c:	00747075 	rsbseq	r7, r4, r5, ror r0
      40:	72615070 	rsbvc	r5, r1, #112	; 0x70
      44:	70006d61 	andvc	r6, r0, r1, ror #26
      48:	69724f78 	ldmdbvs	r2!, {r3, r4, r5, r6, r8, r9, sl, fp, lr}^
      4c:	616e6967 	cmnvs	lr, r7, ror #18
      50:	534f546c 	movtpl	r5, #62572	; 0xf46c
      54:	43425f00 	movtmi	r5, #12032	; 0x2f00
      58:	3338324d 	teqcc	r8, #-805306364	; 0xd0000004
      5c:	49545f35 	ldmdbmi	r4, {r0, r2, r4, r5, r8, r9, sl, fp, ip, lr}^
      60:	5f52454d 	svcpl	0x0052454d
      64:	53474552 	movtpl	r4, #30034	; 0x7552
      68:	6f687300 	svcvs	0x00687300
      6c:	75207472 	strvc	r7, [r0, #-1138]!	; 0xfffffb8e
      70:	6769736e 	strbvs	r7, [r9, -lr, ror #6]!
      74:	2064656e 	rsbcs	r6, r4, lr, ror #10
      78:	00746e69 	rsbseq	r6, r4, r9, ror #28
      7c:	41546470 	cmpmi	r4, r0, ror r4
      80:	435f4b53 	cmpmi	pc, #84992	; 0x14c00
      84:	0045444f 	subeq	r4, r5, pc, asr #8
      88:	726f5076 	rsbvc	r5, pc, #118	; 0x76
      8c:	646e4574 	strbtvs	r4, [lr], #-1396	; 0xfffffa8c
      90:	65686353 	strbvs	r6, [r8, #-851]!	; 0xfffffcad
      94:	656c7564 	strbvs	r7, [ip, #-1380]!	; 0xfffffa9c
      98:	4e470072 	mcrmi	0, 2, r0, cr7, cr2, {3}
      9c:	31432055 	qdaddcc	r2, r5, r3
      a0:	2e372031 	mrccs	0, 1, r2, cr7, cr1, {1}
      a4:	20312e33 	eorscs	r2, r1, r3, lsr lr
      a8:	38313032 	ldmdacc	r1!, {r1, r4, r5, ip, sp}
      ac:	32323630 	eorscc	r3, r2, #48, 12	; 0x3000000
      b0:	65722820 	ldrbvs	r2, [r2, #-2080]!	; 0xfffff7e0
      b4:	7361656c 	cmnvc	r1, #108, 10	; 0x1b000000
      b8:	5b202965 	blpl	80a654 <__bss_end+0x7f4b1c>
      bc:	2f4d5241 	svccs	0x004d5241
      c0:	65626d65 	strbvs	r6, [r2, #-3429]!	; 0xfffff29b
      c4:	64656464 	strbtvs	r6, [r5], #-1124	; 0xfffffb9c
      c8:	622d372d 	eorvs	r3, sp, #11796480	; 0xb40000
      cc:	636e6172 	cmnvs	lr, #-2147483620	; 0x8000001c
      d0:	65722068 	ldrbvs	r2, [r2, #-104]!	; 0xffffff98
      d4:	69736976 	ldmdbvs	r3!, {r1, r2, r4, r5, r6, r8, fp, sp, lr}^
      d8:	32206e6f 	eorcc	r6, r0, #1776	; 0x6f0
      dc:	30393136 	eorscc	r3, r9, r6, lsr r1
      e0:	2d205d37 	stccs	13, cr5, [r0, #-220]!	; 0xffffff24
      e4:	6372616d 	cmnvs	r2, #1073741851	; 0x4000001b
      e8:	72613d68 	rsbvc	r3, r1, #104, 26	; 0x1a00
      ec:	7a36766d 	bvc	d9daa8 <__bss_end+0xd87f70>
      f0:	616d2d20 	cmnvs	sp, r0, lsr #26
      f4:	3d686372 	stclcc	3, cr6, [r8, #-456]!	; 0xfffffe38
      f8:	766d7261 	strbtvc	r7, [sp], -r1, ror #4
      fc:	2d207a36 	vstmdbcs	r0!, {s14-s67}
     100:	6372616d 	cmnvs	r2, #1073741851	; 0x4000001b
     104:	72613d68 	rsbvc	r3, r1, #104, 26	; 0x1a00
     108:	7a36766d 	bvc	d9dac4 <__bss_end+0xd87f8c>
     10c:	20672d20 	rsbcs	r2, r7, r0, lsr #26
     110:	2d20672d 	stccs	7, cr6, [r0, #-180]!	; 0xffffff4c
     114:	54760067 	ldrbtpl	r0, [r6], #-103	; 0xffffff99
     118:	496b6369 	stmdbmi	fp!, {r0, r3, r5, r6, r8, r9, sp, lr}^
     11c:	6c005253 	sfmvs	f5, 4, [r0], {83}	; 0x53
     120:	20676e6f 	rsbcs	r6, r7, pc, ror #28
     124:	676e6f6c 	strbvs	r6, [lr, -ip, ror #30]!
     128:	746e6920 	strbtvc	r6, [lr], #-2336	; 0xfffff6e0
     12c:	50767000 	rsbspl	r7, r6, r0
     130:	6d617261 	sfmvs	f7, 2, [r1, #-388]!	; 0xfffffe7c
     134:	72657465 	rsbvc	r7, r5, #1694498816	; 0x65000000
     138:	52700073 	rsbspl	r0, r0, #115	; 0x73
     13c:	00736765 	rsbseq	r6, r3, r5, ror #14
     140:	6f547870 	svcvs	0x00547870
     144:	53664f70 	cmnpl	r6, #112, 30	; 0x1c0
     148:	6b636174 	blvs	18d8720 <__bss_end+0x18c2be8>
     14c:	6e6f6c00 	cdpvs	12, 6, cr6, cr15, cr0, {0}
     150:	6f642067 	svcvs	0x00642067
     154:	656c6275 	strbvs	r6, [ip, #-629]!	; 0xfffffd8b
     158:	6f507800 	svcvs	0x00507800
     15c:	74537472 	ldrbvc	r7, [r3], #-1138	; 0xfffffb8e
     160:	53747261 	cmnpl	r4, #268435462	; 0x10000006
     164:	64656863 	strbtvs	r6, [r5], #-2147	; 0xfffff79d
     168:	72656c75 	rsbvc	r6, r5, #29952	; 0x7500
     16c:	436c7500 	cmnmi	ip, #0, 10
     170:	61706d6f 	cmnvs	r0, pc, ror #26
     174:	614d6572 	hvcvs	54866	; 0xd652
     178:	00686374 	rsbeq	r6, r8, r4, ror r3
     17c:	6f507870 	svcvs	0x00507870
     180:	6e497472 	mcrvs	4, 2, r7, cr9, cr2, {3}
     184:	61697469 	cmnvs	r9, r9, ror #8
     188:	6573696c 	ldrbvs	r6, [r3, #-2412]!	; 0xfffff694
     18c:	63617453 	cmnvs	r1, #1392508928	; 0x53000000
     190:	762f006b 	strtvc	r0, [pc], -fp, rrx
     194:	6c2f7261 	sfmvs	f7, 4, [pc], #-388	; 18 <_start-0x7fe8>
     198:	6c61636f 	stclvs	3, cr6, [r1], #-444	; 0xfffffe44
     19c:	6f74722f 	svcvs	0x0074722f
     1a0:	72462f73 	subvc	r2, r6, #460	; 0x1cc
     1a4:	54526565 	ldrbpl	r6, [r2], #-1381	; 0xfffffa9b
     1a8:	532f534f 			; <UNDEFINED> instruction: 0x532f534f
     1ac:	6372756f 	cmnvs	r2, #465567744	; 0x1bc00000
     1b0:	6f702f65 	svcvs	0x00702f65
     1b4:	62617472 	rsbvs	r7, r1, #1912602624	; 0x72000000
     1b8:	472f656c 	strmi	r6, [pc, -ip, ror #10]!
     1bc:	522f4343 	eorpl	r4, pc, #201326593	; 0xc000001
     1c0:	62707361 	rsbsvs	r7, r0, #-2080374783	; 0x84000001
     1c4:	79727265 	ldmdbvc	r2!, {r0, r2, r5, r6, r9, ip, sp, lr}^
     1c8:	702f6950 	eorvc	r6, pc, r0, asr r9	; <UNPREDICTABLE>
     1cc:	2e74726f 	cdpcs	2, 7, cr7, cr4, cr15, {3}
     1d0:	50760063 	rsbspl	r0, r6, r3, rrx
     1d4:	4574726f 	ldrbmi	r7, [r4, #-623]!	; 0xfffffd91
     1d8:	7265746e 	rsbvc	r7, r5, #1845493760	; 0x6e000000
     1dc:	74697243 	strbtvc	r7, [r9], #-579	; 0xfffffdbd
     1e0:	6c616369 	stclvs	3, cr6, [r1], #-420	; 0xfffffe5c
     1e4:	436c7500 	cmnmi	ip, #0, 10
     1e8:	69746972 	ldmdbvs	r4!, {r1, r4, r5, r6, r8, fp, sp, lr}^
     1ec:	4e6c6163 	powmiez	f6, f4, f3
     1f0:	69747365 	ldmdbvs	r4!, {r0, r2, r5, r6, r8, r9, ip, sp, lr}^
     1f4:	7600676e 	strvc	r6, [r0], -lr, ror #14
     1f8:	74726f50 	ldrbtvc	r6, [r2], #-3920	; 0xfffff0b0
     1fc:	74697845 	strbtvc	r7, [r9], #-2117	; 0xfffff7bb
     200:	74697243 	strbtvc	r7, [r9], #-579	; 0xfffffdbd
     204:	6c616369 	stclvs	3, cr6, [r1], #-420	; 0xfffffe5c
     208:	6f507600 	svcvs	0x00507600
     20c:	53497472 	movtpl	r7, #38002	; 0x9472
     210:	61745352 	cmnvs	r4, r2, asr r3
     214:	69467472 	stmdbvs	r6, {r1, r4, r5, r6, sl, ip, sp, lr}^
     218:	54747372 	ldrbtpl	r7, [r4], #-882	; 0xfffffc8e
     21c:	006b7361 	rsbeq	r7, fp, r1, ror #6
     220:	726f5076 	rsbvc	r5, pc, #118	; 0x76
     224:	65695974 	strbvs	r5, [r9, #-2420]!	; 0xfffff68c
     228:	7250646c 	subsvc	r6, r0, #108, 8	; 0x6c000000
     22c:	7365636f 	cmnvc	r5, #-1140850687	; 0xbc000001
     230:	00726f73 	rsbseq	r6, r2, r3, ror pc
     234:	7261762f 	rsbvc	r7, r1, #49283072	; 0x2f00000
     238:	636f6c2f 	cmnvs	pc, #12032	; 0x2f00
     23c:	722f6c61 	eorvc	r6, pc, #24832	; 0x6100
     240:	2f736f74 	svccs	0x00736f74
     244:	65657246 	strbvs	r7, [r5, #-582]!	; 0xfffffdba
     248:	534f5452 	movtpl	r5, #62546	; 0xf452
     24c:	756f532f 	strbvc	r5, [pc, #-815]!	; ffffff25 <_estack+0xf7feff25>
     250:	2f656372 	svccs	0x00656372
     254:	74726f70 	ldrbtvc	r6, [r2], #-3952	; 0xfffff090
     258:	656c6261 	strbvs	r6, [ip, #-609]!	; 0xfffffd9f
     25c:	4343472f 	movtmi	r4, #14127	; 0x372f
     260:	7361522f 	cmnvc	r1, #-268435454	; 0xf0000002
     264:	72656270 	rsbvc	r6, r5, #112, 4
     268:	69507972 	ldmdbvs	r0, {r1, r4, r5, r6, r8, fp, ip, sp, lr}^
     26c:	726f702f 	rsbvc	r7, pc, #47	; 0x2f
     270:	72736974 	rsbsvc	r6, r3, #116, 18	; 0x1d0000
     274:	7600632e 	strvc	r6, [r0], -lr, lsr #6
     278:	65657246 	strbvs	r7, [r5, #-582]!	; 0xfffffdba
     27c:	534f5452 	movtpl	r5, #62546	; 0xf452
     280:	5253495f 	subspl	r4, r3, #1556480	; 0x17c000
     284:	625f6700 	subsvs	r6, pc, #0, 14
     288:	72617453 	rsbvc	r7, r1, #1392508928	; 0x53000000
     28c:	00646574 	rsbeq	r6, r4, r4, ror r5
     290:	75437870 	strbvc	r7, [r3, #-2160]	; 0xfffff790
     294:	6e657272 	mcrvs	2, 3, r7, cr5, cr2, {3}
     298:	42435474 	submi	r5, r3, #116, 8	; 0x74000000
     29c:	55787000 	ldrbpl	r7, [r8, #-0]!
     2a0:	6f6c626e 	svcvs	0x006c626e
     2a4:	64656b63 	strbtvs	r6, [r5], #-2915	; 0xfffff49d
     2a8:	42435243 	submi	r5, r3, #805306372	; 0x30000004
     2ac:	54787000 	ldrbtpl	r7, [r8], #-0
     2b0:	00706d65 	rsbseq	r6, r0, r5, ror #26
     2b4:	526f4376 	rsbpl	r4, pc, #-671088639	; 0xd8000001
     2b8:	6974756f 	ldmdbvs	r4!, {r0, r1, r2, r3, r5, r6, r8, sl, ip, sp, lr}^
     2bc:	6441656e 	strbvs	r6, [r1], #-1390	; 0xfffffa92
     2c0:	446f5464 	strbtmi	r5, [pc], #-1124	; 2c8 <_start-0x7d38>
     2c4:	79616c65 	stmdbvc	r1!, {r0, r2, r5, r6, sl, fp, sp, lr}^
     2c8:	694c6465 	stmdbvs	ip, {r0, r2, r5, r6, sl, sp, lr}^
     2cc:	70007473 	andvc	r7, r0, r3, ror r4
     2d0:	6e6f4376 	mcrvs	3, 3, r4, cr15, cr6, {3}
     2d4:	6e696174 	mcrvs	1, 3, r6, cr9, cr4, {3}
     2d8:	70007265 	andvc	r7, r0, r5, ror #4
     2dc:	526f4378 	rsbpl	r4, pc, #120, 6	; 0xe0000001
     2e0:	6974756f 	ldmdbvs	r4!, {r0, r1, r2, r3, r5, r6, r8, sl, ip, sp, lr}^
     2e4:	7546656e 	strbvc	r6, [r6, #-1390]	; 0xfffffa92
     2e8:	6974636e 	ldmdbvs	r4!, {r1, r2, r3, r5, r6, r8, r9, sp, lr}^
     2ec:	70006e6f 	andvc	r6, r0, pc, ror #28
     2f0:	646e4978 	strbtvs	r4, [lr], #-2424	; 0xfffff688
     2f4:	78007865 	stmdavc	r0, {r0, r2, r5, r6, fp, ip, sp, lr}
     2f8:	6d657449 	cfstrdvs	mvd7, [r5, #-292]!	; 0xfffffedc
     2fc:	756c6156 	strbvc	r6, [ip, #-342]!	; 0xfffffeaa
     300:	54780065 	ldrbtpl	r0, [r8], #-101	; 0xffffff9b
     304:	736b6369 	cmnvc	fp, #-1543503871	; 0xa4000001
     308:	65446f54 	strbvs	r6, [r4, #-3924]	; 0xfffff0ac
     30c:	0079616c 	rsbseq	r6, r9, ip, ror #2
     310:	73694c78 	cmnvc	r9, #120, 24	; 0x7800
     314:	646e4574 	strbtvs	r4, [lr], #-1396	; 0xfffffa8c
     318:	4f767000 	svcmi	0x00767000
     31c:	72656e77 	rsbvc	r6, r5, #1904	; 0x770
     320:	614c7800 	cmpvs	ip, r0, lsl #16
     324:	69547473 	ldmdbvs	r4, {r0, r1, r4, r5, r6, sl, ip, sp, lr}^
     328:	6f436b63 	svcvs	0x00436b63
     32c:	00746e75 	rsbseq	r6, r4, r5, ror lr
     330:	526f4378 	rsbpl	r4, pc, #120, 6	; 0xe0000001
     334:	6974756f 	ldmdbvs	r4!, {r0, r1, r2, r3, r5, r6, r8, sl, ip, sp, lr}^
     338:	6954656e 	ldmdbvs	r4, {r1, r2, r3, r5, r6, r8, sl, sp, lr}^
     33c:	6f436b63 	svcvs	0x00436b63
     340:	00746e75 	rsbseq	r6, r4, r5, ror lr
     344:	53494c78 	movtpl	r4, #40056	; 0x9c78
     348:	54495f54 	strbpl	r5, [r9], #-3924	; 0xfffff0ac
     34c:	70004d45 	andvc	r4, r0, r5, asr #26
     350:	6e6f4378 	mcrvs	3, 3, r4, cr15, cr8, {3}
     354:	694c7473 	stmdbvs	ip, {r0, r1, r4, r5, r6, sl, ip, sp, lr}^
     358:	70007473 	andvc	r7, r0, r3, ror r4
     35c:	65764578 	ldrbvs	r4, [r6, #-1400]!	; 0xfffffa88
     360:	694c746e 	stmdbvs	ip, {r1, r2, r3, r5, r6, sl, ip, sp, lr}^
     364:	75007473 	strvc	r7, [r0, #-1139]	; 0xfffffb8d
     368:	706f5478 	rsbvc	r5, pc, r8, ror r4	; <UNPREDICTABLE>
     36c:	6f526f43 	svcvs	0x00526f43
     370:	6e697475 	mcrvs	4, 3, r7, cr9, cr5, {3}
     374:	61655265 	cmnvs	r5, r5, ror #4
     378:	72507964 	subsvc	r7, r0, #100, 18	; 0x190000
     37c:	69726f69 	ldmdbvs	r2!, {r0, r3, r5, r6, r8, r9, sl, fp, sp, lr}^
     380:	78007974 	stmdavc	r0, {r2, r4, r5, r6, r8, fp, ip, sp, lr}
     384:	616c6544 	cmnvs	ip, r4, asr #10
     388:	43646579 	cmnmi	r4, #507510784	; 0x1e400000
     38c:	756f526f 	strbvc	r5, [pc, #-623]!	; 125 <_start-0x7edb>
     390:	656e6974 	strbvs	r6, [lr, #-2420]!	; 0xfffff68c
     394:	7473694c 	ldrbtvc	r6, [r3], #-2380	; 0xfffff6b4
     398:	44780031 	ldrbtmi	r0, [r8], #-49	; 0xffffffcf
     39c:	79616c65 	stmdbvc	r1!, {r0, r2, r5, r6, sl, fp, sp, lr}^
     3a0:	6f436465 	svcvs	0x00436465
     3a4:	74756f52 	ldrbtvc	r6, [r5], #-3922	; 0xfffff0ae
     3a8:	4c656e69 	stclmi	14, cr6, [r5], #-420	; 0xfffffe5c
     3ac:	32747369 	rsbscc	r7, r4, #-1543503871	; 0xa4000001
     3b0:	726f6300 	rsbvc	r6, pc, #0, 6
     3b4:	42435243 	submi	r5, r3, #805306372	; 0x30000004
     3b8:	43787000 	cmnmi	r8, #0
     3bc:	00424352 	subeq	r4, r2, r2, asr r3
     3c0:	72507870 	subsvc	r7, r0, #112, 16	; 0x700000
     3c4:	6f697665 	svcvs	0x00697665
     3c8:	70007375 	andvc	r7, r0, r5, ror r3
     3cc:	526f4378 	rsbpl	r4, pc, #120, 6	; 0xe0000001
     3d0:	6974756f 	ldmdbvs	r4!, {r0, r1, r2, r3, r5, r6, r8, sl, ip, sp, lr}^
     3d4:	6f43656e 	svcvs	0x0043656e
     3d8:	63006564 	movwvs	r6, #1380	; 0x564
     3dc:	6f43726f 	svcvs	0x0043726f
     3e0:	74756f52 	ldrbtvc	r6, [r5], #-3922	; 0xfffff0ae
     3e4:	43656e69 	cmnmi	r5, #1680	; 0x690
     3e8:	72746e6f 	rsbsvc	r6, r4, #1776	; 0x6f0
     3ec:	6c426c6f 	mcrrvs	12, 6, r6, r2, cr15
     3f0:	006b636f 	rsbeq	r6, fp, pc, ror #6
     3f4:	526f4378 	rsbpl	r4, pc, #120, 6	; 0xe0000001
     3f8:	6974756f 	ldmdbvs	r4!, {r0, r1, r2, r3, r5, r6, r8, sl, ip, sp, lr}^
     3fc:	6552656e 	ldrbvs	r6, [r2, #-1390]	; 0xfffffa92
     400:	65766f6d 	ldrbvs	r6, [r6, #-3949]!	; 0xfffff093
     404:	6d6f7246 	sfmvs	f7, 2, [pc, #-280]!	; 2f4 <_start-0x7d0c>
     408:	6e657645 	cdpvs	6, 6, cr7, cr5, cr5, {2}
     40c:	73694c74 	cmnvc	r9, #116, 24	; 0x7400
     410:	78700074 	ldmdavc	r0!, {r2, r4, r5, r6}^
     414:	64616552 	strbtvs	r6, [r1], #-1362	; 0xfffffaae
     418:	526f4379 	rsbpl	r4, pc, #-469762047	; 0xe4000001
     41c:	6974756f 	ldmdbvs	r4!, {r0, r1, r2, r3, r5, r6, r8, sl, ip, sp, lr}^
     420:	694c656e 	stmdbvs	ip, {r1, r2, r3, r5, r6, r8, sl, sp, lr}^
     424:	00737473 	rsbseq	r7, r3, r3, ror r4
     428:	6e497875 	mcrvs	8, 2, r7, cr9, cr5, {3}
     42c:	00786564 	rsbseq	r6, r8, r4, ror #10
     430:	6e694d78 	mcrvs	13, 3, r4, cr9, cr8, {3}
     434:	73694c69 	cmnvc	r9, #26880	; 0x6900
     438:	65744974 	ldrbvs	r4, [r4, #-2420]!	; 0xfffff68c
     43c:	4378006d 	cmnmi	r8, #109	; 0x6d
     440:	756f526f 	strbvc	r5, [pc, #-623]!	; 1d9 <_start-0x7e27>
     444:	656e6974 	strbvs	r6, [lr, #-2420]!	; 0xfffff68c
     448:	61657243 	cmnvs	r5, r3, asr #4
     44c:	75006574 	strvc	r6, [r0, #-1396]	; 0xfffffa8c
     450:	6d754e78 	ldclvs	14, cr4, [r5, #-480]!	; 0xfffffe20
     454:	4f726562 	svcmi	0x00726562
     458:	65744966 	ldrbvs	r4, [r4, #-2406]!	; 0xfffff69a
     45c:	7000736d 	andvc	r7, r0, sp, ror #6
     460:	72754378 	rsbsvc	r4, r5, #120, 6	; 0xe0000001
     464:	746e6572 	strbtvc	r6, [lr], #-1394	; 0xfffffa8e
     468:	6f526f43 	svcvs	0x00526f43
     46c:	6e697475 	mcrvs	4, 3, r7, cr9, cr5, {3}
     470:	78750065 	ldmdavc	r5!, {r0, r2, r5, r6}^
     474:	6f697250 	svcvs	0x00697250
     478:	79746972 	ldmdbvc	r4!, {r1, r4, r5, r6, r8, fp, sp, lr}^
     47c:	6f437800 	svcvs	0x00437800
     480:	74756f52 	ldrbtvc	r6, [r5], #-3922	; 0xfffff0ae
     484:	48656e69 	stmdami	r5!, {r0, r3, r5, r6, r9, sl, fp, sp, lr}^
     488:	6c646e61 	stclvs	14, cr6, [r4], #-388	; 0xfffffe7c
     48c:	50780065 	rsbspl	r0, r8, r5, rrx
     490:	69646e65 	stmdbvs	r4!, {r0, r2, r5, r6, r9, sl, fp, sp, lr}^
     494:	6552676e 	ldrbvs	r6, [r2, #-1902]	; 0xfffff892
     498:	43796461 	cmnmi	r9, #1627389952	; 0x61000000
     49c:	756f526f 	strbvc	r5, [pc, #-623]!	; 235 <_start-0x7dcb>
     4a0:	656e6974 	strbvs	r6, [lr, #-2420]!	; 0xfffff68c
     4a4:	7473694c 	ldrbtvc	r6, [r3], #-2380	; 0xfffff6b4
     4a8:	4e787000 	cdpmi	0, 7, cr7, cr8, cr0, {0}
     4ac:	00747865 	rsbseq	r7, r4, r5, ror #16
     4b0:	7261762f 	rsbvc	r7, r1, #49283072	; 0x2f00000
     4b4:	636f6c2f 	cmnvs	pc, #12032	; 0x2f00
     4b8:	722f6c61 	eorvc	r6, pc, #24832	; 0x6100
     4bc:	2f736f74 	svccs	0x00736f74
     4c0:	65657246 	strbvs	r7, [r5, #-582]!	; 0xfffffdba
     4c4:	534f5452 	movtpl	r5, #62546	; 0xf452
     4c8:	756f532f 	strbvc	r5, [pc, #-815]!	; 1a1 <_start-0x7e5f>
     4cc:	2f656372 	svccs	0x00656372
     4d0:	756f7263 	strbvc	r7, [pc, #-611]!	; 275 <_start-0x7d8b>
     4d4:	656e6974 	strbvs	r6, [lr, #-2420]!	; 0xfffff68c
     4d8:	7800632e 	stmdavc	r0, {r1, r2, r3, r5, r8, r9, sp, lr}
     4dc:	7473694c 	ldrbtvc	r6, [r3], #-2380	; 0xfffff6b4
     4e0:	6d657449 	cfstrdvs	mvd7, [r5, #-292]!	; 0xfffffedc
     4e4:	6f437600 	svcvs	0x00437600
     4e8:	74756f52 	ldrbtvc	r6, [r5], #-3922	; 0xfffff0ae
     4ec:	53656e69 	cmnpl	r5, #1680	; 0x690
     4f0:	64656863 	strbtvs	r6, [r5], #-2147	; 0xfffff79d
     4f4:	00656c75 	rsbeq	r6, r5, r5, ror ip
     4f8:	6d695478 	cfstrdvs	mvd5, [r9, #-480]!	; 0xfffffe20
     4fc:	576f5465 	strbpl	r5, [pc, -r5, ror #8]!
     500:	00656b61 	rsbeq	r6, r5, r1, ror #22
     504:	73615078 	cmnvc	r1, #120	; 0x78
     508:	54646573 	strbtpl	r6, [r4], #-1395	; 0xfffffa8d
     50c:	736b6369 	cmnvc	fp, #-1543503871	; 0xa4000001
     510:	43787000 	cmnmi	r8, #0
     514:	756f526f 	strbvc	r5, [pc, #-623]!	; 2ad <_start-0x7d53>
     518:	656e6974 	strbvs	r6, [lr, #-2420]!	; 0xfffff68c
     51c:	53787500 	cmnpl	r8, #0, 10
     520:	65746174 	ldrbvs	r6, [r4, #-372]!	; 0xfffffe8c
     524:	4f787000 	svcmi	0x00787000
     528:	66726576 			; <UNDEFINED> instruction: 0x66726576
     52c:	44776f6c 	ldrbtmi	r6, [r7], #-3948	; 0xfffff094
     530:	79616c65 	stmdbvc	r1!, {r0, r2, r5, r6, sl, fp, sp, lr}^
     534:	6f436465 	svcvs	0x00436465
     538:	74756f52 	ldrbtvc	r6, [r5], #-3922	; 0xfffff0ae
     53c:	4c656e69 	stclmi	14, cr6, [r5], #-420	; 0xfffffe5c
     540:	00747369 	rsbseq	r7, r4, r9, ror #6
     544:	4e494d78 	mcrmi	13, 2, r4, cr9, cr8, {3}
     548:	494c5f49 	stmdbmi	ip, {r0, r3, r6, r8, r9, sl, fp, ip, lr}^
     54c:	495f5453 	ldmdbmi	pc, {r0, r1, r4, r6, sl, ip, lr}^	; <UNPREDICTABLE>
     550:	004d4554 	subeq	r4, sp, r4, asr r5
     554:	53494c78 	movtpl	r4, #40056	; 0x9c78
     558:	78700054 	ldmdavc	r0!, {r2, r4, r6}^
     55c:	616c6544 	cmnvs	ip, r4, asr #10
     560:	43646579 	cmnmi	r4, #507510784	; 0x1e400000
     564:	756f526f 	strbvc	r5, [pc, #-623]!	; 2fd <_start-0x7d03>
     568:	656e6974 	strbvs	r6, [lr, #-2420]!	; 0xfffff68c
     56c:	7473694c 	ldrbtvc	r6, [r3], #-2380	; 0xfffff6b4
     570:	76727000 	ldrbtvc	r7, [r2], -r0
     574:	63656843 	cmnvs	r5, #4390912	; 0x430000
     578:	6e65506b 	cdpvs	0, 6, cr5, cr5, cr11, {3}
     57c:	676e6964 	strbvs	r6, [lr, -r4, ror #18]!
     580:	64616552 	strbtvs	r6, [r1], #-1362	; 0xfffffaae
     584:	73694c79 	cmnvc	r9, #30976	; 0x7900
     588:	47780074 			; <UNDEFINED> instruction: 0x47780074
     58c:	72656e65 	rsbvc	r6, r5, #1616	; 0x650
     590:	694c6369 	stmdbvs	ip, {r0, r3, r5, r6, r8, r9, sp, lr}^
     594:	74497473 	strbvc	r7, [r9], #-1139	; 0xfffffb8d
     598:	70006d65 	andvc	r6, r0, r5, ror #26
     59c:	6e497672 	mcrvs	6, 2, r7, cr9, cr2, {3}
     5a0:	61697469 	cmnvs	r9, r9, ror #8
     5a4:	6573696c 	ldrbvs	r6, [r3, #-2412]!	; 0xfffff694
     5a8:	6f526f43 	svcvs	0x00526f43
     5ac:	6e697475 	mcrvs	4, 3, r7, cr9, cr5, {3}
     5b0:	73694c65 	cmnvc	r9, #25856	; 0x6500
     5b4:	78007374 	stmdavc	r0, {r2, r4, r5, r6, r8, r9, ip, sp, lr}
     5b8:	6e657645 	cdpvs	6, 6, cr7, cr5, cr5, {2}
     5bc:	73694c74 	cmnvc	r9, #116, 24	; 0x7400
     5c0:	65744974 	ldrbvs	r4, [r4, #-2420]!	; 0xfffff68c
     5c4:	7270006d 	rsbsvc	r0, r0, #109	; 0x6d
     5c8:	65684376 	strbvs	r4, [r8, #-886]!	; 0xfffffc8a
     5cc:	65446b63 	strbvs	r6, [r4, #-2915]	; 0xfffff49d
     5d0:	6579616c 	ldrbvs	r6, [r9, #-364]!	; 0xfffffe94
     5d4:	73694c64 	cmnvc	r9, #100, 24	; 0x6400
     5d8:	72630074 	rsbvc	r0, r3, #116	; 0x74
     5dc:	4f524f43 	svcmi	0x00524f43
     5e0:	4e495455 	mcrmi	4, 2, r5, cr9, cr5, {2}
     5e4:	4f435f45 	svcmi	0x00435f45
     5e8:	5f004544 	svcpl	0x00004544
     5ec:	5f6f7364 	svcpl	0x006f7364
     5f0:	646e6168 	strbtvs	r6, [lr], #-360	; 0xfffffe98
     5f4:	5f00656c 	svcpl	0x0000656c
     5f8:	657a6973 	ldrbvs	r6, [sl, #-2419]!	; 0xfffff68d
     5fc:	61725f00 	cmnvs	r2, r0, lsl #30
     600:	3834646e 	ldmdacc	r4!, {r1, r2, r3, r5, r6, sl, sp, lr}
     604:	6d655f00 	stclvs	15, cr5, [r5, #-0]
     608:	65677265 	strbvs	r7, [r7, #-613]!	; 0xfffffd9b
     60c:	0079636e 	rsbseq	r6, r9, lr, ror #6
     610:	7461645f 	strbtvc	r6, [r1], #-1119	; 0xfffffba1
     614:	775f0061 	ldrbvc	r0, [pc, -r1, rrx]
     618:	6f747263 	svcvs	0x00747263
     61c:	735f626d 	cmpvc	pc, #-805306362	; 0xd0000006
     620:	65746174 	ldrbvs	r6, [r4, #-372]!	; 0xfffffe8c
     624:	63775f00 	cmnvs	r7, #0, 30
     628:	6f747273 	svcvs	0x00747273
     62c:	5f73626d 	svcpl	0x0073626d
     630:	74617473 	strbtvc	r7, [r1], #-1139	; 0xfffffb8d
     634:	6f6c0065 	svcvs	0x006c0065
     638:	6c20676e 	stcvs	7, cr6, [r0], #-440	; 0xfffffe48
     63c:	20676e6f 	rsbcs	r6, r7, pc, ror #28
     640:	69736e75 	ldmdbvs	r3!, {r0, r2, r4, r5, r6, r9, sl, fp, sp, lr}^
     644:	64656e67 	strbtvs	r6, [r5], #-3687	; 0xfffff199
     648:	746e6920 	strbtvc	r6, [lr], #-2336	; 0xfffff6e0
     64c:	626c5f00 	rsbvs	r5, ip, #0, 30
     650:	7a697366 	bvc	1a5d3f0 <__bss_end+0x1a478b8>
     654:	5f5f0065 	svcpl	0x005f0065
     658:	61636f6c 	cmnvs	r3, ip, ror #30
     65c:	745f656c 	ldrbvc	r6, [pc], #-1388	; 664 <_start-0x799c>
     660:	4e787000 	cdpmi	0, 7, cr7, cr8, cr0, {0}
     664:	694c7765 	stmdbvs	ip, {r0, r2, r5, r6, r8, r9, sl, ip, sp, lr}^
     668:	74497473 	strbvc	r7, [r9], #-1139	; 0xfffffb8d
     66c:	5f006d65 	svcpl	0x00006d65
     670:	7472626d 	ldrbtvc	r6, [r2], #-621	; 0xfffffd93
     674:	5f63776f 	svcpl	0x0063776f
     678:	74617473 	strbtvc	r7, [r1], #-1139	; 0xfffffb8d
     67c:	5f5f0065 	svcpl	0x005f0065
     680:	735f6d74 	cmpvc	pc, #116, 26	; 0x1d00
     684:	5f006365 	svcpl	0x00006365
     688:	66756275 			; <UNDEFINED> instruction: 0x66756275
     68c:	61625f00 	cmnvs	r2, r0, lsl #30
     690:	5f006573 	svcpl	0x00006573
     694:	5f6d745f 	svcpl	0x006d745f
     698:	72756f68 	rsbsvc	r6, r5, #104, 30	; 0x1a0
     69c:	735f5f00 	cmpvc	pc, #0, 30
     6a0:	6f5f0066 	svcvs	0x005f0066
     6a4:	78655f6e 	stmdavc	r5!, {r1, r2, r3, r5, r6, r8, r9, sl, fp, ip, lr}^
     6a8:	615f7469 	cmpvs	pc, r9, ror #8
     6ac:	00736772 	rsbseq	r6, r3, r2, ror r7
     6b0:	6f6f635f 	svcvs	0x006f635f
     6b4:	0065696b 	rsbeq	r6, r5, fp, ror #18
     6b8:	67735f5f 			; <UNDEFINED> instruction: 0x67735f5f
     6bc:	0065756c 	rsbeq	r7, r5, ip, ror #10
     6c0:	616c665f 	cmnvs	ip, pc, asr r6
     6c4:	5f007367 	svcpl	0x00007367
     6c8:	635f7369 	cmpvs	pc, #-1543503871	; 0xa4000001
     6cc:	5f006178 	svcpl	0x00006178
     6d0:	69647473 	stmdbvs	r4!, {r0, r1, r4, r5, r6, sl, ip, sp, lr}^
     6d4:	625f006e 	subsvs	r0, pc, #110	; 0x6e
     6d8:	69736b6c 	ldmdbvs	r3!, {r2, r3, r5, r6, r8, r9, fp, sp, lr}^
     6dc:	5f00657a 	svcpl	0x0000657a
     6e0:	62747663 	rsbsvs	r7, r4, #103809024	; 0x6300000
     6e4:	5f006675 	svcpl	0x00006675
     6e8:	7366666f 	cmnvc	r6, #116391936	; 0x6f00000
     6ec:	70007465 	andvc	r7, r0, r5, ror #8
     6f0:	65744978 	ldrbvs	r4, [r4, #-2424]!	; 0xfffff688
     6f4:	4c76006d 	ldclmi	0, cr0, [r6], #-436	; 0xfffffe4c
     6f8:	49747369 	ldmdbmi	r4!, {r0, r3, r5, r6, r8, r9, ip, sp, lr}^
     6fc:	7265736e 	rsbvc	r7, r5, #-1207959551	; 0xb8000001
     700:	646e4574 	strbtvs	r4, [lr], #-1396	; 0xfffffa8c
     704:	626d5f00 	rsbvs	r5, sp, #0, 30
     708:	6f747273 	svcvs	0x00747273
     70c:	5f736377 	svcpl	0x00736377
     710:	74617473 	strbtvc	r7, [r1], #-1139	; 0xfffffb8d
     714:	6d5f0065 	ldclvs	0, cr0, [pc, #-404]	; 588 <_start-0x7a78>
     718:	656c7262 	strbvs	r7, [ip, #-610]!	; 0xfffffd9e
     71c:	74735f6e 	ldrbtvc	r5, [r3], #-3950	; 0xfffff092
     720:	00657461 	rsbeq	r7, r5, r1, ror #8
     724:	616e665f 	cmnvs	lr, pc, asr r6
     728:	00736772 	rsbseq	r6, r3, r2, ror r7
     72c:	736e665f 	cmnvc	lr, #99614720	; 0x5f00000
     730:	694c7600 	stmdbvs	ip, {r9, sl, ip, sp, lr}^
     734:	6e497473 	mcrvs	4, 2, r7, cr9, cr3, {3}
     738:	61697469 	cmnvs	r9, r9, ror #8
     73c:	6573696c 	ldrbvs	r6, [r3, #-2412]!	; 0xfffff694
     740:	6d657449 	cfstrdvs	mvd7, [r5, #-292]!	; 0xfffffedc
     744:	69735f00 	ldmdbvs	r3!, {r8, r9, sl, fp, ip, lr}^
     748:	5f006e67 	svcpl	0x00006e67
     74c:	636f6c66 	cmnvs	pc, #26112	; 0x6600
     750:	00745f6b 	rsbseq	r5, r4, fp, ror #30
     754:	6474735f 	ldrbtvs	r7, [r4], #-863	; 0xfffffca1
     758:	00727265 	rsbseq	r7, r2, r5, ror #4
     75c:	6769425f 			; <UNDEFINED> instruction: 0x6769425f
     760:	00746e69 	rsbseq	r6, r4, r9, ror #28
     764:	6d61675f 	stclvs	7, cr6, [r1, #-380]!	; 0xfffffe84
     768:	735f616d 	cmpvc	pc, #1073741851	; 0x4000001b
     76c:	676e6769 	strbvs	r6, [lr, -r9, ror #14]!
     770:	5f006d61 	svcpl	0x00006d61
     774:	64616572 	strbtvs	r6, [r1], #-1394	; 0xfffffa8e
     778:	65725f00 	ldrbvs	r5, [r2, #-3840]!	; 0xfffff100
     77c:	746c7573 	strbtvc	r7, [ip], #-1395	; 0xfffffa8d
     780:	5f006b5f 	svcpl	0x00006b5f
     784:	006d745f 	rsbeq	r7, sp, pc, asr r4
     788:	63775f5f 	cmnvs	r7, #380	; 0x17c
     78c:	5f006268 	svcpl	0x00006268
     790:	6f647473 	svcvs	0x00647473
     794:	5f007475 	svcpl	0x00007475
     798:	6c747663 	ldclvs	6, cr7, [r4], #-396	; 0xfffffe74
     79c:	5f006e65 	svcpl	0x00006e65
     7a0:	656c6966 	strbvs	r6, [ip, #-2406]!	; 0xfffff69a
     7a4:	696e5f00 	stmdbvs	lr!, {r8, r9, sl, fp, ip, lr}^
     7a8:	0073626f 	rsbseq	r6, r3, pc, ror #4
     7ac:	6574615f 	ldrbvs	r6, [r4, #-351]!	; 0xfffffea1
     7b0:	30746978 	rsbscc	r6, r4, r8, ror r9
     7b4:	61762f00 	cmnvs	r6, r0, lsl #30
     7b8:	6f6c2f72 	svcvs	0x006c2f72
     7bc:	2f6c6163 	svccs	0x006c6163
     7c0:	736f7472 	cmnvc	pc, #1912602624	; 0x72000000
     7c4:	6572462f 	ldrbvs	r4, [r2, #-1583]!	; 0xfffff9d1
     7c8:	4f545265 	svcmi	0x00545265
     7cc:	6f532f53 	svcvs	0x00532f53
     7d0:	65637275 	strbvs	r7, [r3, #-629]!	; 0xfffffd8b
     7d4:	73696c2f 	cmnvc	r9, #12032	; 0x2f00
     7d8:	00632e74 	rsbeq	r2, r3, r4, ror lr
     7dc:	6769735f 			; <UNDEFINED> instruction: 0x6769735f
     7e0:	5f6c616e 	svcpl	0x006c616e
     7e4:	00667562 	rsbeq	r7, r6, r2, ror #10
     7e8:	6373615f 	cmnvs	r3, #-1073741801	; 0xc0000017
     7ec:	656d6974 	strbvs	r6, [sp, #-2420]!	; 0xfffff68c
     7f0:	6675625f 			; <UNDEFINED> instruction: 0x6675625f
     7f4:	65725f00 	ldrbvs	r5, [r2, #-3840]!	; 0xfffff100
     7f8:	746c7573 	strbtvc	r7, [ip], #-1395	; 0xfffffa8d
     7fc:	775f5f00 	ldrbvc	r5, [pc, -r0, lsl #30]
     800:	5f006863 	svcpl	0x00006863
     804:	4b434f4c 	blmi	10d453c <__bss_end+0x10bea04>
     808:	7700545f 	smlsdvc	r0, pc, r4, r5	; <UNPREDICTABLE>
     80c:	5f746e69 	svcpl	0x00746e69
     810:	4c760074 	ldclmi	0, cr0, [r6], #-464	; 0xfffffe30
     814:	52747369 	rsbspl	r7, r4, #-1543503871	; 0xa4000001
     818:	766f6d65 	strbtvc	r6, [pc], -r5, ror #26
     81c:	665f0065 	ldrbvs	r0, [pc], -r5, rrx
     820:	7367616c 	cmnvc	r7, #108, 2
     824:	775f0032 	smmlarvc	pc, r2, r0, r0	; <UNPREDICTABLE>
     828:	65746972 	ldrbvs	r6, [r4, #-2418]!	; 0xfffff68e
     82c:	745f5f00 	ldrbvc	r5, [pc], #-3840	; 834 <_start-0x77cc>
     830:	65795f6d 	ldrbvs	r5, [r9, #-3949]!	; 0xfffff093
     834:	70007261 	andvc	r7, r0, r1, ror #4
     838:	65744978 	ldrbvs	r4, [r4, #-2424]!	; 0xfffff688
     83c:	526f546d 	rsbpl	r5, pc, #1828716544	; 0x6d000000
     840:	766f6d65 	strbtvc	r6, [pc], -r5, ror #26
     844:	6e5f0065 	cdpvs	0, 5, cr0, cr15, cr5, {3}
     848:	66747865 	ldrbtvs	r7, [r4], -r5, ror #16
     84c:	745f5f00 	ldrbvc	r5, [pc], #-3840	; 854 <_start-0x77ac>
     850:	6f6d5f6d 	svcvs	0x006d5f6d
     854:	615f006e 	cmpvs	pc, lr, rrx
     858:	69786574 	ldmdbvs	r8!, {r2, r4, r5, r6, r8, sl, sp, lr}^
     85c:	75730074 	ldrbvc	r0, [r3, #-116]!	; 0xffffff8c
     860:	74706f62 	ldrbtvc	r6, [r0], #-3938	; 0xfffff09e
     864:	00677261 	rsbeq	r7, r7, r1, ror #4
     868:	64735f5f 	ldrbtvs	r5, [r3], #-3935	; 0xfffff0a1
     86c:	6e696469 	cdpvs	4, 6, cr6, cr9, cr9, {3}
     870:	5f007469 	svcpl	0x00007469
     874:	5f66666f 	svcpl	0x0066666f
     878:	665f0074 			; <UNDEFINED> instruction: 0x665f0074
     87c:	6c656572 	cfstr64vs	mvdx6, [r5], #-456	; 0xfffffe38
     880:	00747369 	rsbseq	r7, r4, r9, ror #6
     884:	7463775f 	strbtvc	r7, [r3], #-1887	; 0xfffff8a1
     888:	5f626d6f 	svcpl	0x00626d6f
     88c:	74617473 	strbtvc	r7, [r1], #-1139	; 0xfffffb8d
     890:	6e750065 	cdpvs	0, 7, cr0, cr5, cr5, {3}
     894:	6e676973 			; <UNDEFINED> instruction: 0x6e676973
     898:	63206465 			; <UNDEFINED> instruction: 0x63206465
     89c:	00726168 	rsbseq	r6, r2, r8, ror #2
     8a0:	77656e5f 			; <UNDEFINED> instruction: 0x77656e5f
     8a4:	5f685f00 	svcpl	0x00685f00
     8a8:	6e727265 	cdpvs	2, 7, cr7, cr2, cr5, {3}
     8ac:	6873006f 	ldmdavs	r3!, {r0, r1, r2, r3, r5, r6}^
     8b0:	2074726f 	rsbscs	r7, r4, pc, ror #4
     8b4:	00746e69 	rsbseq	r6, r4, r9, ror #28
     8b8:	6d745f5f 	ldclvs	15, cr5, [r4, #-380]!	; 0xfffffe84
     8bc:	6164795f 	cmnvs	r4, pc, asr r9
     8c0:	5f5f0079 	svcpl	0x005f0079
     8c4:	66756273 			; <UNDEFINED> instruction: 0x66756273
     8c8:	6f695f00 	svcvs	0x00695f00
     8cc:	5f007362 	svcpl	0x00007362
     8d0:	4c49465f 	mcrrmi	6, 5, r4, r9, cr15
     8d4:	6d5f0045 	ldclvs	0, cr0, [pc, #-276]	; 7c8 <_start-0x7838>
     8d8:	61747362 	cmnvs	r4, r2, ror #6
     8dc:	745f6574 	ldrbvc	r6, [pc], #-1396	; 8e4 <_start-0x771c>
     8e0:	735f5f00 	cmpvc	pc, #0, 30
     8e4:	454c4946 	strbmi	r4, [ip, #-2374]	; 0xfffff6ba
     8e8:	626d5f00 	rsbvs	r5, sp, #0, 30
     8ec:	74617473 	strbtvc	r7, [r1], #-1139	; 0xfffffb8d
     8f0:	725f0065 	subsvc	r0, pc, #101	; 0x65
     8f4:	5f646e61 	svcpl	0x00646e61
     8f8:	7478656e 	ldrbtvc	r6, [r8], #-1390	; 0xfffffa92
     8fc:	626d5f00 	rsbvs	r5, sp, #0, 30
     900:	5f6e656c 	svcpl	0x006e656c
     904:	74617473 	strbtvc	r7, [r1], #-1139	; 0xfffffb8d
     908:	695f0065 	ldmdbvs	pc, {r0, r2, r5, r6}^	; <UNPREDICTABLE>
     90c:	5f00636e 	svcpl	0x0000636e
     910:	00646e69 	rsbeq	r6, r4, r9, ror #28
     914:	636f6c5f 	cmnvs	pc, #24320	; 0x5f00
     918:	00656c61 	rsbeq	r6, r5, r1, ror #24
     91c:	6c635f5f 	stclvs	15, cr5, [r3], #-380	; 0xfffffe84
     920:	756e6165 	strbvc	r6, [lr, #-357]!	; 0xfffffe9b
     924:	755f0070 	ldrbvc	r0, [pc, #-112]	; 8bc <_start-0x7744>
     928:	6570736e 	ldrbvs	r7, [r0, #-878]!	; 0xfffffc92
     92c:	69666963 	stmdbvs	r6!, {r0, r1, r5, r6, r8, fp, sp, lr}^
     930:	6c5f6465 	cfldrdvs	mvd6, [pc], {101}	; 0x65
     934:	6c61636f 	stclvs	3, cr6, [r1], #-444	; 0xfffffe44
     938:	6e695f65 	cdpvs	15, 6, cr5, cr9, cr5, {3}
     93c:	5f006f66 	svcpl	0x00006f66
     940:	7778616d 	ldrbvc	r6, [r8, -sp, ror #2]!
     944:	5f007364 	svcpl	0x00007364
     948:	6e656572 	mcrvs	5, 3, r6, cr5, cr2, {3}
     94c:	735f0074 	cmpvc	pc, #116	; 0x74
     950:	00646565 	rsbeq	r6, r4, r5, ror #10
     954:	6f635f5f 	svcvs	0x00635f5f
     958:	00746e75 	rsbseq	r6, r4, r5, ror lr
     95c:	6f6c5f5f 	svcvs	0x006c5f5f
     960:	5f006b63 	svcpl	0x00006b63
     964:	6c61765f 	stclvs	6, cr7, [r1], #-380	; 0xfffffe84
     968:	5f006575 	svcpl	0x00006575
     96c:	6b656573 	blvs	1959f40 <__bss_end+0x1944408>
     970:	694c7600 	stmdbvs	ip, {r9, sl, ip, sp, lr}^
     974:	6e497473 	mcrvs	4, 2, r7, cr9, cr3, {3}
     978:	74726573 	ldrbtvc	r6, [r2], #-1395	; 0xfffffa8d
     97c:	70665f00 	rsbvc	r5, r6, r0, lsl #30
     980:	745f736f 	ldrbvc	r7, [pc], #-879	; 988 <_start-0x7678>
     984:	4c787000 	ldclmi	0, cr7, [r8], #-0
     988:	00747369 	rsbseq	r7, r4, r9, ror #6
     98c:	6d745f5f 	ldclvs	15, cr5, [r4, #-380]!	; 0xfffffe84
     990:	6e696d5f 	mcrvs	13, 3, r6, cr9, cr15, {2}
     994:	756d5f00 	strbvc	r5, [sp, #-3840]!	; 0xfffff100
     998:	5f00746c 	svcpl	0x0000746c
     99c:	74727473 	ldrbtvc	r7, [r2], #-1139	; 0xfffffb8d
     9a0:	6c5f6b6f 	mrrcvs	11, 6, r6, pc, cr15	; <UNPREDICTABLE>
     9a4:	00747361 	rsbseq	r7, r4, r1, ror #6
     9a8:	746e665f 	strbtvc	r6, [lr], #-1631	; 0xfffff9a1
     9ac:	73657079 	cmnvc	r5, #121	; 0x79
     9b0:	64615f00 	strbtvs	r5, [r1], #-3840	; 0xfffff100
     9b4:	78700064 	ldmdavc	r0!, {r2, r5, r6}^
     9b8:	72657449 	rsbvc	r7, r5, #1224736768	; 0x49000000
     9bc:	726f7461 	rsbvc	r7, pc, #1627389952	; 0x61000000
     9c0:	555f5f00 	ldrbpl	r5, [pc, #-3840]	; fffffac8 <_estack+0xf7fefac8>
     9c4:	676e6f4c 	strbvs	r6, [lr, -ip, asr #30]!
     9c8:	65675f00 	strbvs	r5, [r7, #-3840]!	; 0xfffff100
     9cc:	74616474 	strbtvc	r6, [r1], #-1140	; 0xfffffb8c
     9d0:	72655f65 	rsbvc	r5, r5, #404	; 0x194
     9d4:	675f0072 			; <UNDEFINED> instruction: 0x675f0072
     9d8:	61626f6c 	cmnvs	r2, ip, ror #30
     9dc:	6d695f6c 	stclvs	15, cr5, [r9, #-432]!	; 0xfffffe50
     9e0:	65727570 	ldrbvs	r7, [r2, #-1392]!	; 0xfffffa90
     9e4:	7274705f 	rsbsvc	r7, r4, #95	; 0x5f
     9e8:	6e755f00 	cdpvs	15, 7, cr5, cr5, cr0, {0}
     9ec:	64657375 	strbtvs	r7, [r5], #-885	; 0xfffffc8b
     9f0:	6e61725f 	mcrvs	2, 3, r7, cr1, cr15, {2}
     9f4:	4c760064 	ldclmi	0, cr0, [r6], #-400	; 0xfffffe70
     9f8:	49747369 	ldmdbmi	r4!, {r0, r3, r5, r6, r8, r9, ip, sp, lr}^
     9fc:	6974696e 	ldmdbvs	r4!, {r1, r2, r3, r5, r6, r8, fp, sp, lr}^
     a00:	73696c61 	cmnvc	r9, #24832	; 0x6100
     a04:	775f0065 	ldrbvc	r0, [pc, -r5, rrx]
     a08:	5f007364 	svcpl	0x00007364
     a0c:	5f6d745f 	svcpl	0x006d745f
     a10:	79616477 	stmdbvc	r1!, {r0, r1, r2, r4, r5, r6, sl, sp, lr}^
     a14:	6c675f00 	stclvs	15, cr5, [r7], #-0
     a18:	5f006575 	svcpl	0x00006575
     a1c:	6c616d6e 	stclvs	13, cr6, [r1], #-440	; 0xfffffe48
     a20:	00636f6c 	rsbeq	r6, r3, ip, ror #30
     a24:	34366c5f 	ldrtcc	r6, [r6], #-3167	; 0xfffff3a1
     a28:	75625f61 	strbvc	r5, [r2, #-3937]!	; 0xfffff09f
     a2c:	735f0066 	cmpvc	pc, #102	; 0x66
     a30:	665f6769 	ldrbvs	r6, [pc], -r9, ror #14
     a34:	00636e75 	rsbeq	r6, r3, r5, ror lr
     a38:	6c615678 	stclvs	6, cr5, [r1], #-480	; 0xfffffe20
     a3c:	664f6575 			; <UNDEFINED> instruction: 0x664f6575
     a40:	65736e49 	ldrbvs	r6, [r3, #-3657]!	; 0xfffff1b7
     a44:	6f697472 	svcvs	0x00697472
     a48:	6e5f006e 	cdpvs	0, 5, cr0, cr15, cr14, {3}
     a4c:	00667562 	rsbeq	r7, r6, r2, ror #10
     a50:	756e755f 	strbvc	r7, [lr, #-1375]!	; 0xfffffaa1
     a54:	00646573 	rsbeq	r6, r4, r3, ror r5
     a58:	6d745f5f 	ldclvs	15, cr5, [r4, #-380]!	; 0xfffffe84
     a5c:	6473695f 	ldrbtvs	r6, [r3], #-2399	; 0xfffff6a1
     a60:	5f007473 	svcpl	0x00007473
     a64:	61636f6c 	cmnvs	r3, ip, ror #30
     a68:	6d69746c 	cfstrdvs	mvd7, [r9, #-432]!	; 0xfffffe50
     a6c:	75625f65 	strbvc	r5, [r2, #-3941]!	; 0xfffff09b
     a70:	635f0066 	cmpvs	pc, #102	; 0x66
     a74:	65736f6c 	ldrbvs	r6, [r3, #-3948]!	; 0xfffff094
     a78:	34725f00 	ldrbtcc	r5, [r2], #-3840	; 0xfffff100
     a7c:	6d5f0038 	ldclvs	0, cr0, [pc, #-224]	; 9a4 <_start-0x765c>
     a80:	776f7462 	strbvc	r7, [pc, -r2, ror #8]!
     a84:	74735f63 	ldrbtvc	r5, [r3], #-3939	; 0xfffff09d
     a88:	00657461 	rsbeq	r7, r5, r1, ror #8
     a8c:	7335705f 	teqvc	r5, #95	; 0x5f
     a90:	745f5f00 	ldrbvc	r5, [pc], #-3840	; a98 <_start-0x7568>
     a94:	646d5f6d 	strbtvs	r5, [sp], #-3949	; 0xfffff093
     a98:	78007961 	stmdavc	r0, {r0, r5, r6, r8, fp, ip, sp, lr}
     a9c:	75657551 	strbvc	r7, [r5, #-1361]!	; 0xfffffaaf
     aa0:	6e654765 	cdpvs	7, 6, cr4, cr5, cr5, {3}
     aa4:	63697265 	cmnvs	r9, #1342177286	; 0x50000006
     aa8:	646e6553 	strbtvs	r6, [lr], #-1363	; 0xfffffaad
     aac:	6d6f7246 	sfmvs	f7, 2, [pc, #-280]!	; 99c <_start-0x7664>
     ab0:	00525349 	subseq	r5, r2, r9, asr #6
     ab4:	75516375 	ldrbvc	r6, [r1, #-885]	; 0xfffffc8b
     ab8:	54657565 	strbtpl	r7, [r5], #-1381	; 0xfffffa9b
     abc:	00657079 	rsbeq	r7, r5, r9, ror r0
     ac0:	65755178 	ldrbvs	r5, [r5, #-376]!	; 0xfffffe88
     ac4:	73496575 	movtvc	r6, #38261	; 0x9575
     ac8:	75657551 	strbvc	r7, [r5, #-1361]!	; 0xfffffaaf
     acc:	6c754665 	ldclvs	6, cr4, [r5], #-404	; 0xfffffe6c
     ad0:	6f72466c 	svcvs	0x0072466c
     ad4:	5253496d 	subspl	r4, r3, #1785856	; 0x1b4000
     ad8:	51787500 	cmnpl	r8, r0, lsl #10
     adc:	65756575 	ldrbvs	r6, [r5, #-1397]!	; 0xfffffa8b
     ae0:	7373654d 	cmnvc	r3, #322961408	; 0x13400000
     ae4:	73656761 	cmnvc	r5, #25427968	; 0x1840000
     ae8:	74696157 	strbtvc	r6, [r9], #-343	; 0xfffffea9
     aec:	00676e69 	rsbeq	r6, r7, r9, ror #28
     af0:	75517870 	ldrbvc	r7, [r1, #-2160]	; 0xfffff790
     af4:	00657565 	rsbeq	r7, r5, r5, ror #10
     af8:	657a6973 	ldrbvs	r6, [sl, #-2419]!	; 0xfffff68d
     afc:	7800745f 	stmdavc	r0, {r0, r1, r2, r3, r4, r6, sl, ip, sp, lr}
     b00:	75657551 	strbvc	r7, [r5, #-1361]!	; 0xfffffaaf
     b04:	51734965 	cmnpl	r3, r5, ror #18
     b08:	65756575 	ldrbvs	r6, [r5, #-1397]!	; 0xfffffa8b
     b0c:	74706d45 	ldrbtvc	r6, [r0], #-3397	; 0xfffff2bb
     b10:	6f724679 	svcvs	0x00724679
     b14:	5253496d 	subspl	r4, r3, #1785856	; 0x1b4000
     b18:	78547800 	ldmdavc	r4, {fp, ip, sp, lr}^
     b1c:	6b636f4c 	blvs	18dc854 <__bss_end+0x18c6d1c>
     b20:	75517600 	ldrbvc	r7, [r1, #-1536]	; 0xfffffa00
     b24:	44657565 	strbtmi	r7, [r5], #-1381	; 0xfffffa9b
     b28:	74656c65 	strbtvc	r6, [r5], #-3173	; 0xfffff39b
     b2c:	54780065 	ldrbtpl	r0, [r8], #-101	; 0xffffff9b
     b30:	736b7361 	cmnvc	fp, #-2080374783	; 0x84000001
     b34:	74696157 	strbtvc	r6, [r9], #-343	; 0xfffffea9
     b38:	54676e69 	strbtpl	r6, [r7], #-3689	; 0xfffff197
     b3c:	6365526f 	cmnvs	r5, #-268435450	; 0xf0000006
     b40:	65766965 	ldrbvs	r6, [r6, #-2405]!	; 0xfffff69b
     b44:	76727000 	ldrbtvc	r7, [r2], -r0
     b48:	79706f43 	ldmdbvc	r0!, {r0, r1, r6, r8, r9, sl, fp, sp, lr}^
     b4c:	61746144 	cmnvs	r4, r4, asr #2
     b50:	75516f54 	ldrbvc	r6, [r1, #-3924]	; 0xfffff0ac
     b54:	00657565 	rsbeq	r7, r5, r5, ror #10
     b58:	4d495478 	cfstrdmi	mvd5, [r9, #-480]	; 0xfffffe20
     b5c:	554f5f45 	strbpl	r5, [pc, #-3909]	; fffffc1f <_estack+0xf7fefc1f>
     b60:	51780054 	cmnpl	r8, r4, asr r0
     b64:	65756575 	ldrbvs	r6, [r5, #-1397]!	; 0xfffffa8b
     b68:	656e6547 	strbvs	r6, [lr, #-1351]!	; 0xfffffab9
     b6c:	52636972 	rsbpl	r6, r3, #1867776	; 0x1c8000
     b70:	69656365 	stmdbvs	r5!, {r0, r2, r5, r6, r8, r9, sp, lr}^
     b74:	70006576 	andvc	r6, r0, r6, ror r5
     b78:	61655263 	cmnvs	r5, r3, ror #4
     b7c:	6f724664 	svcvs	0x00724664
     b80:	4f78006d 	svcmi	0x0078006d
     b84:	66726576 			; <UNDEFINED> instruction: 0x66726576
     b88:	43776f6c 	cmnmi	r7, #108, 30	; 0x1b0
     b8c:	746e756f 	strbtvc	r7, [lr], #-1391	; 0xfffffa91
     b90:	53787500 	cmnpl	r8, #0, 10
     b94:	64657661 	strbtvs	r7, [r5], #-1633	; 0xfffff99f
     b98:	65746e49 	ldrbvs	r6, [r4, #-3657]!	; 0xfffff1b7
     b9c:	70757272 	rsbsvc	r7, r5, r2, ror r2
     ba0:	61745374 	cmnvs	r4, r4, ror r3
     ba4:	00737574 	rsbseq	r7, r3, r4, ror r5
     ba8:	65486370 	strbvs	r6, [r8, #-880]	; 0xfffffc90
     bac:	78006461 	stmdavc	r0, {r0, r5, r6, sl, sp, lr}
     bb0:	7473754a 	ldrbtvc	r7, [r3], #-1354	; 0xfffffab6
     bb4:	6b656550 	blvs	195a0fc <__bss_end+0x19445c4>
     bb8:	00676e69 	rsbeq	r6, r7, r9, ror #28
     bbc:	49767270 	ldmdbmi	r6!, {r4, r5, r6, r9, ip, sp, lr}^
     bc0:	65755173 	ldrbvs	r5, [r5, #-371]!	; 0xfffffe8d
     bc4:	6d456575 	cfstr64vs	mvdx6, [r5, #-468]	; 0xfffffe2c
     bc8:	00797470 	rsbseq	r7, r9, r0, ror r4
     bcc:	65527875 	ldrbvs	r7, [r2, #-2165]	; 0xfffff78b
     bd0:	6e727574 	mrcvs	5, 3, r7, cr2, cr4, {3}
     bd4:	75517800 	ldrbvc	r7, [r1, #-2048]	; 0xfffff800
     bd8:	47657565 	strbmi	r7, [r5, -r5, ror #10]!
     bdc:	72656e65 	rsbvc	r6, r5, #1616	; 0x650
     be0:	65536369 	ldrbvs	r6, [r3, #-873]	; 0xfffffc97
     be4:	7800646e 	stmdavc	r0, {r1, r2, r3, r5, r6, sl, sp, lr}
     be8:	656d6954 	strbvs	r6, [sp, #-2388]!	; 0xfffff6ac
     bec:	5474754f 	ldrbtpl	r7, [r4], #-1359	; 0xfffffab1
     bf0:	00657079 	rsbeq	r7, r5, r9, ror r0
     bf4:	65755178 	ldrbvs	r5, [r5, #-376]!	; 0xfffffe88
     bf8:	61486575 	hvcvs	34389	; 0x8655
     bfc:	656c646e 	strbvs	r6, [ip, #-1134]!	; 0xfffffb92
     c00:	75517800 	ldrbvc	r7, [r1, #-2048]	; 0xfffff800
     c04:	52657565 	rsbpl	r7, r5, #423624704	; 0x19400000
     c08:	69656365 	stmdbvs	r5!, {r0, r2, r5, r6, r8, r9, sp, lr}^
     c0c:	72466576 	subvc	r6, r6, #494927872	; 0x1d800000
     c10:	53496d6f 	movtpl	r6, #40303	; 0x9d6f
     c14:	72700052 	rsbsvc	r0, r0, #82	; 0x52
     c18:	51734976 	cmnpl	r3, r6, ror r9
     c1c:	65756575 	ldrbvs	r6, [r5, #-1397]!	; 0xfffffa8b
     c20:	6c6c7546 	cfstr64vs	mvdx7, [ip], #-280	; 0xfffffee8
     c24:	4c787500 	cfldr64mi	mvdx7, [r8], #-0
     c28:	74676e65 	strbtvc	r6, [r7], #-3685	; 0xfffff19b
     c2c:	63700068 	cmnvs	r0, #104	; 0x68
     c30:	6769724f 	strbvs	r7, [r9, -pc, asr #4]!
     c34:	6c616e69 	stclvs	14, cr6, [r1], #-420	; 0xfffffe5c
     c38:	64616552 	strbtvs	r6, [r1], #-1362	; 0xfffffaae
     c3c:	69736f50 	ldmdbvs	r3!, {r4, r6, r8, r9, sl, fp, sp, lr}^
     c40:	6e6f6974 			; <UNDEFINED> instruction: 0x6e6f6974
     c44:	48787000 	ldmdami	r8!, {ip, sp, lr}^
     c48:	65686769 	strbvs	r6, [r8, #-1897]!	; 0xfffff897
     c4c:	69725072 	ldmdbvs	r2!, {r1, r4, r5, r6, ip, lr}^
     c50:	7469726f 	strbtvc	r7, [r9], #-623	; 0xfffffd91
     c54:	73615479 	cmnvc	r1, #2030043136	; 0x79000000
     c58:	6b6f576b 	blvs	1bd6a0c <__bss_end+0x1bc0ed4>
     c5c:	75006e65 	strvc	r6, [r0, #-3685]	; 0xfffff19b
     c60:	65755178 	ldrbvs	r5, [r5, #-376]!	; 0xfffffe88
     c64:	654c6575 	strbvs	r6, [ip, #-1397]	; 0xfffffa8b
     c68:	6874676e 	ldmdavs	r4!, {r1, r2, r3, r5, r6, r8, r9, sl, sp, lr}^
     c6c:	51787500 	cmnpl	r8, r0, lsl #10
     c70:	65756575 	ldrbvs	r6, [r5, #-1397]!	; 0xfffffa8b
     c74:	7373654d 	cmnvc	r3, #322961408	; 0x13400000
     c78:	73656761 	cmnvc	r5, #25427968	; 0x1840000
     c7c:	74696157 	strbtvc	r6, [r9], #-343	; 0xfffffea9
     c80:	46676e69 	strbtmi	r6, [r7], -r9, ror #28
     c84:	496d6f72 	stmdbmi	sp!, {r1, r4, r5, r6, r8, r9, sl, fp, sp, lr}^
     c88:	2f005253 	svccs	0x00005253
     c8c:	2f726176 	svccs	0x00726176
     c90:	61636f6c 	cmnvs	r3, ip, ror #30
     c94:	74722f6c 	ldrbtvc	r2, [r2], #-3948	; 0xfffff094
     c98:	462f736f 	strtmi	r7, [pc], -pc, ror #6
     c9c:	52656572 	rsbpl	r6, r5, #478150656	; 0x1c800000
     ca0:	2f534f54 	svccs	0x00534f54
     ca4:	72756f53 	rsbsvc	r6, r5, #332	; 0x14c
     ca8:	712f6563 			; <UNDEFINED> instruction: 0x712f6563
     cac:	65756575 	ldrbvs	r6, [r5, #-1397]!	; 0xfffffa8b
     cb0:	7000632e 	andvc	r6, r0, lr, lsr #6
     cb4:	65744976 	ldrbvs	r4, [r4, #-2422]!	; 0xfffff68a
     cb8:	516f546d 	cmnpl	pc, sp, ror #8
     cbc:	65756575 	ldrbvs	r6, [r5, #-1397]!	; 0xfffffa8b
     cc0:	55517800 	ldrbpl	r7, [r1, #-2048]	; 0xfffff800
     cc4:	00455545 	subeq	r5, r5, r5, asr #10
     cc8:	746e4578 	strbtvc	r4, [lr], #-1400	; 0xfffffa88
     ccc:	69547972 	ldmdbvs	r4, {r1, r4, r5, r6, r8, fp, ip, sp, lr}^
     cd0:	6553656d 	ldrbvs	r6, [r3, #-1389]	; 0xfffffa93
     cd4:	75510074 	ldrbvc	r0, [r1, #-116]	; 0xffffff8c
     cd8:	44657565 	strbtmi	r7, [r5], #-1381	; 0xfffffa9b
     cdc:	6e696665 	cdpvs	6, 6, cr6, cr9, cr5, {3}
     ce0:	6f697469 	svcvs	0x00697469
     ce4:	7870006e 	ldmdavc	r0!, {r1, r2, r3, r5, r6}^
     ce8:	5177654e 	cmnpl	r7, lr, asr #10
     cec:	65756575 	ldrbvs	r6, [r5, #-1397]!	; 0xfffffa8b
     cf0:	75517800 	ldrbvc	r7, [r1, #-2048]	; 0xfffff800
     cf4:	47657565 	strbmi	r7, [r5, -r5, ror #10]!
     cf8:	72656e65 	rsbvc	r6, r5, #1616	; 0x650
     cfc:	72436369 	subvc	r6, r3, #-1543503871	; 0xa4000001
     d00:	65746165 	ldrbvs	r6, [r4, #-357]!	; 0xfffffe9b
     d04:	76727000 	ldrbtvc	r7, [r2], -r0
     d08:	79706f43 	ldmdbvc	r0!, {r0, r1, r6, r8, r9, sl, fp, sp, lr}^
     d0c:	61746144 	cmnvs	r4, r4, asr #2
     d10:	6d6f7246 	sfmvs	f7, 2, [pc, #-280]!	; c00 <_start-0x7400>
     d14:	75657551 	strbvc	r7, [r5, #-1361]!	; 0xfffffaaf
     d18:	78750065 	ldmdavc	r5!, {r0, r2, r5, r6}^
     d1c:	7373654d 	cmnvc	r3, #322961408	; 0x13400000
     d20:	73656761 	cmnvc	r5, #25427968	; 0x1840000
     d24:	74696157 	strbtvc	r6, [r9], #-343	; 0xfffffea9
     d28:	00676e69 	rsbeq	r6, r7, r9, ror #28
     d2c:	65755178 	ldrbvs	r5, [r5, #-376]!	; 0xfffffe88
     d30:	65476575 	strbvs	r6, [r7, #-1397]	; 0xfffffa8b
     d34:	6972656e 	ldmdbvs	r2!, {r1, r2, r3, r5, r6, r8, sl, sp, lr}^
     d38:	73655263 	cmnvc	r5, #805306374	; 0x30000006
     d3c:	78007465 	stmdavc	r0, {r0, r2, r5, r6, sl, ip, sp, lr}
     d40:	79706f43 	ldmdbvc	r0!, {r0, r1, r6, r8, r9, sl, fp, sp, lr}^
     d44:	69736f50 	ldmdbvs	r3!, {r4, r6, r8, r9, sl, fp, sp, lr}^
     d48:	6e6f6974 			; <UNDEFINED> instruction: 0x6e6f6974
     d4c:	76727000 	ldrbtvc	r7, [r2], -r0
     d50:	6f6c6e55 	svcvs	0x006c6e55
     d54:	75516b63 	ldrbvc	r6, [r1, #-2915]	; 0xfffff49d
     d58:	00657565 	rsbeq	r7, r5, r5, ror #10
     d5c:	4c785278 	lfmmi	f5, 2, [r8], #-480	; 0xfffffe20
     d60:	006b636f 	rsbeq	r6, fp, pc, ror #6
     d64:	61546370 	cmpvs	r4, r0, ror r3
     d68:	78006c69 	stmdavc	r0, {r0, r3, r5, r6, sl, fp, sp, lr}
     d6c:	69736f50 	ldmdbvs	r3!, {r4, r6, r8, r9, sl, fp, sp, lr}^
     d70:	6e6f6974 			; <UNDEFINED> instruction: 0x6e6f6974
     d74:	61547800 	cmpvs	r4, r0, lsl #16
     d78:	57736b73 			; <UNDEFINED> instruction: 0x57736b73
     d7c:	69746961 	ldmdbvs	r4!, {r0, r5, r6, r8, fp, sp, lr}^
     d80:	6f54676e 	svcvs	0x0054676e
     d84:	646e6553 	strbtvs	r6, [lr], #-1363	; 0xfffffaad
     d88:	75517800 	ldrbvc	r7, [r1, #-2048]	; 0xfffff800
     d8c:	53657565 	cmnpl	r5, #423624704	; 0x19400000
     d90:	49657a69 	stmdbmi	r5!, {r0, r3, r5, r6, r9, fp, ip, sp, lr}^
     d94:	7479426e 	ldrbtvc	r4, [r9], #-622	; 0xfffffd92
     d98:	70007365 	andvc	r7, r0, r5, ror #6
     d9c:	69725763 	ldmdbvs	r2!, {r0, r1, r5, r6, r8, r9, sl, ip, lr}^
     da0:	6f546574 	svcvs	0x00546574
     da4:	49787500 	ldmdbmi	r8!, {r8, sl, ip, sp, lr}^
     da8:	536d6574 	cmnpl	sp, #116, 10	; 0x1d000000
     dac:	00657a69 	rsbeq	r7, r5, r9, ror #20
     db0:	6d695478 	cfstrdvs	mvd5, [r9, #-480]!	; 0xfffffe20
     db4:	456e4f65 	strbmi	r4, [lr, #-3941]!	; 0xfffff09b
     db8:	7265746e 	rsbvc	r7, r5, #1845493760	; 0x6e000000
     dbc:	00676e69 	rsbeq	r6, r7, r9, ror #28
     dc0:	75427670 	strbvc	r7, [r2, #-1648]	; 0xfffff990
     dc4:	72656666 	rsbvc	r6, r5, #106954752	; 0x6600000
     dc8:	54637000 	strbtpl	r7, [r3], #-0
     dcc:	4e6b7361 	cdpmi	3, 6, cr7, cr11, cr1, {3}
     dd0:	00656d61 	rsbeq	r6, r5, r1, ror #26
     dd4:	73615476 	cmnvc	r1, #1979711488	; 0x76000000
     dd8:	646e456b 	strbtvs	r4, [lr], #-1387	; 0xfffffa95
     ddc:	65686353 	strbvs	r6, [r8, #-851]!	; 0xfffffcad
     de0:	656c7564 	strbvs	r7, [ip, #-1380]!	; 0xfffffa9c
     de4:	73740072 	cmnvc	r4, #114	; 0x72
     de8:	7361546b 	cmnvc	r1, #1795162112	; 0x6b000000
     dec:	6e6f436b 	cdpvs	3, 6, cr4, cr15, cr11, {3}
     df0:	6c6f7274 	sfmvs	f7, 2, [pc], #-464	; c28 <_start-0x73d8>
     df4:	636f6c42 	cmnvs	pc, #16896	; 0x4200
     df8:	7875006b 	ldmdavc	r5!, {r0, r1, r3, r5, r6}^
     dfc:	6b736154 	blvs	1cd9354 <__bss_end+0x1cc381c>
     e00:	4e746547 	cdpmi	5, 7, cr6, cr4, cr7, {2}
     e04:	65626d75 	strbvs	r6, [r2, #-3445]!	; 0xfffff28b
     e08:	54664f72 	strbtpl	r4, [r6], #-3954	; 0xfffff08e
     e0c:	736b7361 	cmnvc	fp, #-2080374783	; 0x84000001
     e10:	54787500 	ldrbtpl	r7, [r8], #-1280	; 0xfffffb00
     e14:	6552706f 	ldrbvs	r7, [r2, #-111]	; 0xffffff91
     e18:	50796461 	rsbspl	r6, r9, r1, ror #8
     e1c:	726f6972 	rsbvc	r6, pc, #1867776	; 0x1c8000
     e20:	00797469 	rsbseq	r7, r9, r9, ror #8
     e24:	61547875 	cmpvs	r4, r5, ror r8
     e28:	72506b73 	subsvc	r6, r0, #117760	; 0x1cc00
     e2c:	69726f69 	ldmdbvs	r2!, {r0, r3, r5, r6, r8, r9, sl, fp, sp, lr}^
     e30:	65477974 	strbvs	r7, [r7, #-2420]	; 0xfffff68c
     e34:	53780074 	cmnpl	r8, #116	; 0x74
     e38:	64656863 	strbtvs	r6, [r5], #-2147	; 0xfffff79d
     e3c:	72656c75 	rsbvc	r6, r5, #29952	; 0x7500
     e40:	6e6e7552 	mcrvs	5, 3, r7, cr14, cr2, {2}
     e44:	00676e69 	rsbeq	r6, r7, r9, ror #28
     e48:	65527870 	ldrbvs	r7, [r2, #-2160]	; 0xfffff790
     e4c:	54796461 	ldrbtpl	r6, [r9], #-1121	; 0xfffffb9f
     e50:	736b7361 	cmnvc	fp, #-2080374783	; 0x84000001
     e54:	7473694c 	ldrbtvc	r6, [r3], #-2380	; 0xfffff6b4
     e58:	6c750073 	ldclvs	0, cr0, [r5], #-460	; 0xfffffe34
     e5c:	61726150 	cmnvs	r2, r0, asr r1
     e60:	6574656d 	ldrbvs	r6, [r4, #-1389]!	; 0xfffffa93
     e64:	76007372 			; <UNDEFINED> instruction: 0x76007372
     e68:	6b736154 	blvs	1cd93c0 <__bss_end+0x1cc3888>
     e6c:	54746553 	ldrbtpl	r6, [r4], #-1363	; 0xfffffaad
     e70:	4f656d69 	svcmi	0x00656d69
     e74:	74537475 	ldrbvc	r7, [r3], #-1141	; 0xfffffb8b
     e78:	00657461 	rsbeq	r7, r5, r1, ror #8
     e7c:	75437875 	strbvc	r7, [r3, #-2165]	; 0xfffff78b
     e80:	6e657272 	mcrvs	2, 3, r7, cr5, cr2, {3}
     e84:	69725074 	ldmdbvs	r2!, {r2, r4, r5, r6, ip, lr}^
     e88:	7469726f 	strbtvc	r7, [r9], #-623	; 0xfffffd91
     e8c:	44780079 	ldrbtmi	r0, [r8], #-121	; 0xffffff87
     e90:	79616c65 	stmdbvc	r1!, {r0, r2, r5, r6, sl, fp, sp, lr}^
     e94:	61546465 	cmpvs	r4, r5, ror #8
     e98:	694c6b73 	stmdbvs	ip, {r0, r1, r4, r5, r6, r8, r9, fp, sp, lr}^
     e9c:	00317473 	eorseq	r7, r1, r3, ror r4
     ea0:	6c654478 	cfstrdvs	mvd4, [r5], #-480	; 0xfffffe20
     ea4:	64657961 	strbtvs	r7, [r5], #-2401	; 0xfffff69f
     ea8:	6b736154 	blvs	1cd9400 <__bss_end+0x1cc38c8>
     eac:	7473694c 	ldrbtvc	r6, [r3], #-2380	; 0xfffff6b4
     eb0:	54760032 	ldrbtpl	r0, [r6], #-50	; 0xffffffce
     eb4:	536b7361 	cmnpl	fp, #-2080374783	; 0x84000001
     eb8:	70417465 	subvc	r7, r1, r5, ror #8
     ebc:	63696c70 	cmnvs	r9, #112, 24	; 0x7000
     ec0:	6f697461 	svcvs	0x00697461
     ec4:	7361546e 	cmnvc	r1, #1845493760	; 0x6e000000
     ec8:	6761546b 	strbvs	r5, [r1, -fp, ror #8]!
     ecc:	4d787500 	cfldr64mi	mvdx7, [r8, #-0]
     ed0:	65737369 	ldrbvs	r7, [r3, #-873]!	; 0xfffffc97
     ed4:	63695464 	cmnvs	r9, #100, 8	; 0x64000000
     ed8:	7000736b 	andvc	r7, r0, fp, ror #6
     edc:	73615478 	cmnvc	r1, #120, 8	; 0x78000000
     ee0:	526f546b 	rsbpl	r5, pc, #1795162112	; 0x6b000000
     ee4:	6d757365 	ldclvs	3, cr7, [r5, #-404]!	; 0xfffffe6c
     ee8:	59780065 	ldmdbpl	r8!, {r0, r2, r5, r6}^
     eec:	646c6569 	strbtvs	r6, [ip], #-1385	; 0xfffffa97
     ef0:	75716552 	ldrbvc	r6, [r1, #-1362]!	; 0xfffffaae
     ef4:	64657269 	strbtvs	r7, [r5], #-617	; 0xfffffd97
     ef8:	53787500 	cmnpl	r8, #0, 10
     efc:	64656863 	strbtvs	r6, [r5], #-2147	; 0xfffff79d
     f00:	72656c75 	rsbvc	r6, r5, #29952	; 0x7500
     f04:	70737553 	rsbsvc	r7, r3, r3, asr r5
     f08:	65646e65 	strbvs	r6, [r4, #-3685]!	; 0xfffff19b
     f0c:	78700064 	ldmdavc	r0!, {r2, r5, r6}^
     f10:	6c626e55 	stclvs	14, cr6, [r2], #-340	; 0xfffffeac
     f14:	656b636f 	strbvs	r6, [fp, #-879]!	; 0xfffffc91
     f18:	42435464 	submi	r5, r3, #100, 8	; 0x64000000
     f1c:	76727000 	ldrbtvc	r7, [r2], -r0
     f20:	6f6c6c41 	svcvs	0x006c6c41
     f24:	65746163 	ldrbvs	r6, [r4, #-355]!	; 0xfffffe9d
     f28:	41424354 	cmpmi	r2, r4, asr r3
     f2c:	7453646e 	ldrbvc	r6, [r3], #-1134	; 0xfffffb92
     f30:	006b6361 	rsbeq	r6, fp, r1, ror #6
     f34:	73755378 	cmnvc	r5, #120, 6	; 0xe0000001
     f38:	646e6570 	strbtvs	r6, [lr], #-1392	; 0xfffffa90
     f3c:	61546465 	cmpvs	r4, r5, ror #8
     f40:	694c6b73 	stmdbvs	ip, {r0, r1, r4, r5, r6, r8, r9, fp, sp, lr}^
     f44:	78007473 	stmdavc	r0, {r0, r1, r4, r5, r6, sl, ip, sp, lr}
     f48:	6b736154 	blvs	1cd94a0 <__bss_end+0x1cc3968>
     f4c:	54746547 	ldrbtpl	r6, [r4], #-1351	; 0xfffffab9
     f50:	436b6369 	cmnmi	fp, #-1543503871	; 0xa4000001
     f54:	746e756f 	strbtvc	r7, [lr], #-1391	; 0xfffffa91
     f58:	6d6f7246 	sfmvs	f7, 2, [pc, #-280]!	; e48 <_start-0x71b8>
     f5c:	00525349 	subseq	r5, r2, r9, asr #6
     f60:	6e655078 	mcrvs	0, 3, r5, cr5, cr8, {3}
     f64:	676e6964 	strbvs	r6, [lr, -r4, ror #18]!
     f68:	64616552 	strbtvs	r6, [r1], #-1362	; 0xfffffaae
     f6c:	73694c79 	cmnvc	r9, #30976	; 0x7900
     f70:	54780074 	ldrbtpl	r0, [r8], #-116	; 0xffffff8c
     f74:	496b7361 	stmdbmi	fp!, {r0, r5, r6, r8, r9, ip, sp, lr}^
     f78:	73615473 	cmnvc	r1, #1929379840	; 0x73000000
     f7c:	7375536b 	cmnvc	r5, #-1409286143	; 0xac000001
     f80:	646e6570 	strbtvs	r6, [lr], #-1392	; 0xfffffa90
     f84:	70006465 	andvc	r6, r0, r5, ror #8
     f88:	6e497672 	mcrvs	6, 2, r7, cr9, cr2, {3}
     f8c:	61697469 	cmnvs	r9, r9, ror #8
     f90:	6573696c 	ldrbvs	r6, [r3, #-2412]!	; 0xfffff694
     f94:	6b736154 	blvs	1cd94ec <__bss_end+0x1cc39b4>
     f98:	7473694c 	ldrbtvc	r6, [r3], #-2380	; 0xfffff6b4
     f9c:	54780073 	ldrbtpl	r0, [r8], #-115	; 0xffffff8d
     fa0:	476b7361 	strbmi	r7, [fp, -r1, ror #6]!
     fa4:	70417465 	subvc	r7, r1, r5, ror #8
     fa8:	63696c70 	cmnvs	r9, #112, 24	; 0x7000
     fac:	6f697461 	svcvs	0x00697461
     fb0:	7361546e 	cmnvc	r1, #1845493760	; 0x6e000000
     fb4:	6761546b 	strbvs	r5, [r1, -fp, ror #8]!
     fb8:	61547800 	cmpvs	r4, r0, lsl #16
     fbc:	57736b73 			; <UNDEFINED> instruction: 0x57736b73
     fc0:	69746961 	ldmdbvs	r4!, {r0, r5, r6, r8, fp, sp, lr}^
     fc4:	6554676e 	ldrbvs	r6, [r4, #-1902]	; 0xfffff892
     fc8:	6e696d72 	mcrvs	13, 3, r6, cr9, cr2, {3}
     fcc:	6f697461 	svcvs	0x00697461
     fd0:	4d78006e 	ldclmi	0, cr0, [r8, #-440]!	; 0xfffffe48
     fd4:	65737369 	ldrbvs	r7, [r3, #-873]!	; 0xfffffc97
     fd8:	65695964 	strbvs	r5, [r9, #-2404]!	; 0xfffff69c
     fdc:	7600646c 	strvc	r6, [r0], -ip, ror #8
     fe0:	6b736154 	blvs	1cd9538 <__bss_end+0x1cc3a00>
     fe4:	70737553 	rsbsvc	r7, r3, r3, asr r5
     fe8:	41646e65 	cmnmi	r4, r5, ror #28
     fec:	78006c6c 	stmdavc	r0, {r2, r3, r5, r6, sl, fp, sp, lr}
     ff0:	6b736154 	blvs	1cd9548 <__bss_end+0x1cc3a10>
     ff4:	646e6148 	strbtvs	r6, [lr], #-328	; 0xfffffeb8
     ff8:	7400656c 	strvc	r6, [r0], #-1388	; 0xfffffa94
     ffc:	43546b73 	cmpmi	r4, #117760	; 0x1cc00
    1000:	78700042 	ldmdavc	r0!, {r1, r6}^
    1004:	6b636954 	blvs	18db55c <__bss_end+0x18c5a24>
    1008:	576f5473 			; <UNDEFINED> instruction: 0x576f5473
    100c:	00746961 	rsbseq	r6, r4, r1, ror #18
    1010:	61547875 	cmpvs	r4, r5, ror r8
    1014:	44736b73 	ldrbtmi	r6, [r3], #-2931	; 0xfffff48d
    1018:	74656c65 	strbtvc	r6, [r5], #-3173	; 0xfffff39b
    101c:	78006465 	stmdavc	r0, {r0, r2, r5, r6, sl, sp, lr}
    1020:	6b636954 	blvs	18db578 <__bss_end+0x18c5a40>
    1024:	6e756f43 	cdpvs	15, 7, cr6, cr5, cr3, {2}
    1028:	78700074 	ldmdavc	r0!, {r2, r4, r5, r6}^
    102c:	7265764f 	rsbvc	r7, r5, #82837504	; 0x4f00000
    1030:	776f6c66 	strbvc	r6, [pc, -r6, ror #24]!
    1034:	616c6544 	cmnvs	ip, r4, asr #10
    1038:	54646579 	strbtpl	r6, [r4], #-1401	; 0xfffffa87
    103c:	4c6b7361 	stclmi	3, cr7, [fp], #-388	; 0xfffffe7c
    1040:	00747369 	rsbseq	r7, r4, r9, ror #6
    1044:	73615476 	cmnvc	r1, #1979711488	; 0x76000000
    1048:	616c506b 	cmnvs	ip, fp, rrx
    104c:	6e4f6563 	cdpvs	5, 4, cr6, cr15, cr3, {3}
    1050:	6e657645 	cdpvs	6, 6, cr7, cr5, cr5, {2}
    1054:	73694c74 	cmnvc	r9, #116, 24	; 0x7400
    1058:	54760074 	ldrbtpl	r0, [r6], #-116	; 0xffffff8c
    105c:	446b7361 	strbtmi	r7, [fp], #-865	; 0xfffffc9f
    1060:	79616c65 	stmdbvc	r1!, {r0, r2, r5, r6, sl, fp, sp, lr}^
    1064:	54787000 	ldrbtpl	r7, [r8], #-0
    1068:	006b7361 	rsbeq	r7, fp, r1, ror #6
    106c:	73615478 	cmnvc	r1, #120, 8	; 0x78000000
    1070:	6d65526b 	sfmvs	f5, 2, [r5, #-428]!	; 0xfffffe54
    1074:	4665766f 	strbtmi	r7, [r5], -pc, ror #12
    1078:	456d6f72 	strbmi	r6, [sp, #-3954]!	; 0xfffff08e
    107c:	746e6576 	strbtvc	r6, [lr], #-1398	; 0xfffffa8a
    1080:	7473694c 	ldrbtvc	r6, [r3], #-2380	; 0xfffff6b4
    1084:	68537800 	ldmdavs	r3, {fp, ip, sp, lr}^
    1088:	646c756f 	strbtvs	r7, [ip], #-1391	; 0xfffffa91
    108c:	616c6544 	cmnvs	ip, r4, asr #10
    1090:	72700079 	rsbsvc	r0, r0, #121	; 0x79
    1094:	6c644976 			; <UNDEFINED> instruction: 0x6c644976
    1098:	73615465 	cmnvc	r1, #1694498816	; 0x65000000
    109c:	6470006b 	ldrbtvs	r0, [r0], #-107	; 0xffffff95
    10a0:	4b534154 	blmi	14d15f8 <__bss_end+0x14bbac0>
    10a4:	4f4f485f 	svcmi	0x004f485f
    10a8:	4f435f4b 	svcmi	0x00435f4b
    10ac:	78004544 	stmdavc	r0, {r2, r6, r8, sl, lr}
    10b0:	7473694c 	ldrbtvc	r6, [r3], #-2380	; 0xfffff6b4
    10b4:	6d457349 	stclvs	3, cr7, [r5, #-292]	; 0xfffffedc
    10b8:	00797470 	rsbseq	r7, r9, r0, ror r4
    10bc:	6f487870 	svcvs	0x00487870
    10c0:	75466b6f 	strbvc	r6, [r6, #-2927]	; 0xfffff491
    10c4:	6974636e 	ldmdbvs	r4!, {r1, r2, r3, r5, r6, r8, r9, sp, lr}^
    10c8:	70006e6f 	andvc	r6, r0, pc, ror #28
    10cc:	77654e78 			; <UNDEFINED> instruction: 0x77654e78
    10d0:	00424354 	subeq	r4, r2, r4, asr r3
    10d4:	61547870 	cmpvs	r4, r0, ror r8
    10d8:	6f436b73 	svcvs	0x00436b73
    10dc:	78006564 	stmdavc	r0, {r2, r5, r6, r8, sl, sp, lr}
    10e0:	6b736154 	blvs	1cd9638 <__bss_end+0x1cc3b00>
    10e4:	54746547 	ldrbtpl	r6, [r4], #-1351	; 0xfffffab9
    10e8:	436b6369 	cmnmi	fp, #-1543503871	; 0xa4000001
    10ec:	746e756f 	strbtvc	r7, [lr], #-1391	; 0xfffffa91
    10f0:	654e7800 	strbvs	r7, [lr, #-2048]	; 0xfffff800
    10f4:	61547478 	cmpvs	r4, r8, ror r4
    10f8:	6e556b73 	vmovvs.s8	r6, d5[3]
    10fc:	636f6c62 	cmnvs	pc, #25088	; 0x6200
    1100:	6d69546b 	cfstrdvs	mvd5, [r9, #-428]!	; 0xfffffe54
    1104:	73750065 	cmnvc	r5, #101	; 0x65
    1108:	63617453 	cmnvs	r1, #1392508928	; 0x53000000
    110c:	7065446b 	rsbvc	r4, r5, fp, ror #8
    1110:	78006874 	stmdavc	r0, {r2, r4, r5, r6, fp, sp, lr}
    1114:	6b636954 	blvs	18db66c <__bss_end+0x18c5b34>
    1118:	78750073 	ldmdavc	r5!, {r0, r1, r4, r5, r6}^
    111c:	5077654e 	rsbspl	r6, r7, lr, asr #10
    1120:	726f6972 	rsbvc	r6, pc, #1867776	; 0x1c8000
    1124:	00797469 	rsbseq	r7, r9, r9, ror #8
    1128:	614e6370 	hvcvs	58928	; 0xe630
    112c:	7000656d 	andvc	r6, r0, sp, ror #10
    1130:	6d695478 	cfstrdvs	mvd5, [r9, #-480]!	; 0xfffffe20
    1134:	74754f65 	ldrbtvc	r4, [r5], #-3941	; 0xfffff09b
    1138:	61762f00 	cmnvs	r6, r0, lsl #30
    113c:	6f6c2f72 	svcvs	0x006c2f72
    1140:	2f6c6163 	svccs	0x006c6163
    1144:	736f7472 	cmnvc	pc, #1912602624	; 0x72000000
    1148:	6572462f 	ldrbvs	r4, [r2, #-1583]!	; 0xfffff9d1
    114c:	4f545265 	svcmi	0x00545265
    1150:	6f532f53 	svcvs	0x00532f53
    1154:	65637275 	strbvs	r7, [r3, #-629]!	; 0xfffffd8b
    1158:	7361742f 	cmnvc	r1, #788529152	; 0x2f000000
    115c:	632e736b 			; <UNDEFINED> instruction: 0x632e736b
    1160:	54787500 	ldrbtpl	r7, [r8], #-1280	; 0xfffffb00
    1164:	4e6b7361 	cdpmi	3, 6, cr7, cr11, cr1, {3}
    1168:	65626d75 	strbvs	r6, [r2, #-3445]!	; 0xfffff28b
    116c:	54760072 	ldrbtpl	r0, [r6], #-114	; 0xffffff8e
    1170:	506b7361 	rsbpl	r7, fp, r1, ror #6
    1174:	726f6972 	rsbvc	r6, pc, #1867776	; 0x1c8000
    1178:	53797469 	cmnpl	r9, #1761607680	; 0x69000000
    117c:	78007465 	stmdavc	r0, {r0, r2, r5, r6, sl, ip, sp, lr}
    1180:	6f6d654d 	svcvs	0x006d654d
    1184:	65527972 	ldrbvs	r7, [r2, #-2418]	; 0xfffff68e
    1188:	6e6f6967 	vnmulvs.f16	s13, s30, s15	; <UNPREDICTABLE>
    118c:	454d7800 	strbmi	r7, [sp, #-2048]	; 0xfffff800
    1190:	59524f4d 	ldmdbpl	r2, {r0, r2, r3, r6, r8, r9, sl, fp, lr}^
    1194:	4745525f 	smlsldmi	r5, r5, pc, r2	; <UNPREDICTABLE>
    1198:	004e4f49 	subeq	r4, lr, r9, asr #30
    119c:	73615476 	cmnvc	r1, #1979711488	; 0x76000000
    11a0:	636e496b 	cmnvs	lr, #1753088	; 0x1ac000
    11a4:	656d6572 	strbvs	r6, [sp, #-1394]!	; 0xfffffa8e
    11a8:	6954746e 	ldmdbvs	r4, {r1, r2, r3, r5, r6, sl, ip, sp, lr}^
    11ac:	70006b63 	andvc	r6, r0, r3, ror #22
    11b0:	6e497672 	mcrvs	6, 2, r7, cr9, cr2, {3}
    11b4:	61697469 	cmnvs	r9, r9, ror #8
    11b8:	6573696c 	ldrbvs	r6, [r3, #-2412]!	; 0xfffff694
    11bc:	56424354 			; <UNDEFINED> instruction: 0x56424354
    11c0:	61697261 	cmnvs	r9, r1, ror #4
    11c4:	73656c62 	cmnvc	r5, #25088	; 0x6200
    11c8:	61547600 	cmpvs	r4, r0, lsl #12
    11cc:	65446b73 	strbvs	r6, [r4, #-2931]	; 0xfffff48d
    11d0:	6574656c 	ldrbvs	r6, [r4, #-1388]!	; 0xfffffa94
    11d4:	61547800 	cmpvs	r4, r0, lsl #16
    11d8:	61436b73 	hvcvs	14003	; 0x36b3
    11dc:	70416c6c 	subvc	r6, r1, ip, ror #24
    11e0:	63696c70 	cmnvs	r9, #112, 24	; 0x7000
    11e4:	6f697461 	svcvs	0x00697461
    11e8:	7361546e 	cmnvc	r1, #1845493760	; 0x6e000000
    11ec:	6f6f486b 	svcvs	0x006f486b
    11f0:	5478006b 	ldrbtpl	r0, [r8], #-107	; 0xffffff95
    11f4:	476b7361 	strbmi	r7, [fp, -r1, ror #6]!
    11f8:	72656e65 	rsbvc	r6, r5, #1616	; 0x650
    11fc:	72436369 	subvc	r6, r3, #-1543503871	; 0xa4000001
    1200:	65746165 	ldrbvs	r6, [r4, #-357]!	; 0xfffffe9b
    1204:	61547600 	cmpvs	r4, r0, lsl #12
    1208:	77536b73 			; <UNDEFINED> instruction: 0x77536b73
    120c:	68637469 	stmdavs	r3!, {r0, r3, r5, r6, sl, ip, sp, lr}^
    1210:	746e6f43 	strbtvc	r6, [lr], #-3907	; 0xfffff0bd
    1214:	00747865 	rsbseq	r7, r4, r5, ror #16
    1218:	6d754e78 	ldclvs	14, cr4, [r5, #-480]!	; 0xfffffe20
    121c:	764f664f 	strbvc	r6, [pc], -pc, asr #12
    1220:	6c667265 	sfmvs	f7, 2, [r6], #-404	; 0xfffffe6c
    1224:	0073776f 	rsbseq	r7, r3, pc, ror #14
    1228:	61547870 	cmpvs	r4, r0, ror r8
    122c:	61546b73 	cmpvs	r4, r3, ror fp
    1230:	78700067 	ldmdavc	r0!, {r0, r1, r2, r5, r6}^
    1234:	63617453 	cmnvs	r1, #1392508928	; 0x53000000
    1238:	5478006b 	ldrbtpl	r0, [r8], #-107	; 0xffffff95
    123c:	526b7361 	rsbpl	r7, fp, #-2080374783	; 0x84000001
    1240:	6d757365 	ldclvs	3, cr7, [r5, #-404]!	; 0xfffffe6c
    1244:	6c6c4165 	stfvse	f4, [ip], #-404	; 0xfffffe6c
    1248:	44787000 	ldrbtmi	r7, [r8], #-0
    124c:	79616c65 	stmdbvc	r1!, {r0, r2, r5, r6, sl, fp, sp, lr}^
    1250:	61546465 	cmpvs	r4, r5, ror #8
    1254:	694c6b73 	stmdbvs	ip, {r0, r1, r4, r5, r6, r8, r9, fp, sp, lr}^
    1258:	75007473 	strvc	r7, [r0, #-1139]	; 0xfffffb8d
    125c:	706f5478 	rsbvc	r5, pc, r8, ror r4	; <UNPREDICTABLE>
    1260:	64657355 	strbtvs	r7, [r5], #-853	; 0xfffffcab
    1264:	6f697250 	svcvs	0x00697250
    1268:	79746972 	ldmdbvc	r4!, {r1, r4, r5, r6, r8, fp, sp, lr}^
    126c:	61547800 	cmpvs	r4, r0, lsl #16
    1270:	68436b73 	stmdavs	r3, {r0, r1, r4, r5, r6, r8, r9, fp, sp, lr}^
    1274:	466b6365 	strbtmi	r6, [fp], -r5, ror #6
    1278:	6954726f 	ldmdbvs	r4, {r0, r1, r2, r3, r5, r6, r9, ip, sp, lr}^
    127c:	754f656d 	strbvc	r6, [pc, #-1389]	; d17 <_start-0x72e9>
    1280:	78700074 	ldmdavc	r0!, {r2, r4, r5, r6}^
    1284:	6b736154 	blvs	1cd97dc <__bss_end+0x1cc3ca4>
    1288:	75536f54 	ldrbvc	r6, [r3, #-3924]	; 0xfffff0ac
    128c:	6e657073 	mcrvs	0, 3, r7, cr5, cr3, {3}
    1290:	78700064 	ldmdavc	r0!, {r2, r5, r6}^
    1294:	76657250 			; <UNDEFINED> instruction: 0x76657250
    1298:	73756f69 	cmnvc	r5, #420	; 0x1a4
    129c:	656b6157 	strbvs	r6, [fp, #-343]!	; 0xfffffea9
    12a0:	656d6954 	strbvs	r6, [sp, #-2388]!	; 0xfffff6ac
    12a4:	54787000 	ldrbtpl	r7, [r8], #-0
    12a8:	546b7361 	strbtpl	r7, [fp], #-865	; 0xfffffc9f
    12ac:	6c65446f 	cfstrdvs	mvd4, [r5], #-444	; 0xfffffe44
    12b0:	00657465 	rsbeq	r7, r5, r5, ror #8
    12b4:	654c6c75 	strbvs	r6, [ip, #-3189]	; 0xfffff38b
    12b8:	6874676e 	ldmdavs	r4!, {r1, r2, r3, r5, r6, r8, r9, sl, sp, lr}^
    12bc:	79426e49 	stmdbvc	r2, {r0, r3, r6, r9, sl, fp, sp, lr}^
    12c0:	00736574 	rsbseq	r6, r3, r4, ror r5
    12c4:	73615478 	cmnvc	r1, #120, 8	; 0x78000000
    12c8:	7365526b 	cmnvc	r5, #-1342177274	; 0xb0000006
    12cc:	46656d75 			; <UNDEFINED> instruction: 0x46656d75
    12d0:	496d6f72 	stmdbmi	sp!, {r1, r4, r5, r6, r8, r9, sl, fp, sp, lr}^
    12d4:	76005253 			; <UNDEFINED> instruction: 0x76005253
    12d8:	6b736154 	blvs	1cd9830 <__bss_end+0x1cc3cf8>
    12dc:	7373694d 	cmnvc	r3, #1261568	; 0x134000
    12e0:	69596465 	ldmdbvs	r9, {r0, r2, r5, r6, sl, sp, lr}^
    12e4:	00646c65 	rsbeq	r6, r4, r5, ror #24
    12e8:	53787570 	cmnpl	r8, #112, 10	; 0x1c000000
    12ec:	6b636174 	blvs	18d98c4 <__bss_end+0x18c3d8c>
    12f0:	66667542 	strbtvs	r7, [r6], -r2, asr #10
    12f4:	76007265 	strvc	r7, [r0], -r5, ror #4
    12f8:	6b736154 	blvs	1cd9850 <__bss_end+0x1cc3d18>
    12fc:	72617453 	rsbvc	r7, r1, #1392508928	; 0x53000000
    1300:	68635374 	stmdavs	r3!, {r2, r4, r5, r6, r8, r9, ip, lr}^
    1304:	6c756465 	cfldrdvs	mvd6, [r5], #-404	; 0xfffffe6c
    1308:	70007265 	andvc	r7, r0, r5, ror #4
    130c:	68437672 	stmdavs	r3, {r1, r4, r5, r6, r9, sl, ip, sp, lr}^
    1310:	546b6365 	strbtpl	r6, [fp], #-869	; 0xfffffc9b
    1314:	736b7361 	cmnvc	fp, #-2080374783	; 0x84000001
    1318:	74696157 	strbtvc	r6, [r9], #-343	; 0xfffffea9
    131c:	54676e69 	strbtpl	r6, [r7], #-3689	; 0xfffff197
    1320:	696d7265 	stmdbvs	sp!, {r0, r2, r5, r6, r9, ip, sp, lr}^
    1324:	6974616e 	ldmdbvs	r4!, {r1, r2, r3, r5, r6, r8, sp, lr}^
    1328:	70006e6f 	andvc	r6, r0, pc, ror #28
    132c:	73614276 	cmnvc	r1, #1610612743	; 0x60000007
    1330:	64644165 	strbtvs	r4, [r4], #-357	; 0xfffffe9b
    1334:	73736572 	cmnvc	r3, #478150656	; 0x1c800000
    1338:	61547600 	cmpvs	r4, r0, lsl #12
    133c:	65446b73 	strbvs	r6, [r4, #-2931]	; 0xfffff48d
    1340:	5579616c 	ldrbpl	r6, [r9, #-364]!	; 0xfffffe94
    1344:	6c69746e 	cfstrdvs	mvd7, [r9], #-440	; 0xfffffe48
    1348:	76727000 	ldrbtvc	r7, [r2], -r0
    134c:	656c6544 	strbvs	r6, [ip, #-1348]!	; 0xfffffabc
    1350:	43546574 	cmpmi	r4, #116, 10	; 0x1d000000
    1354:	54760042 	ldrbtpl	r0, [r6], #-66	; 0xffffffbe
    1358:	536b7361 	cmnpl	fp, #-2080374783	; 0x84000001
    135c:	65707375 	ldrbvs	r7, [r0, #-885]!	; 0xfffffc8b
    1360:	7800646e 	stmdavc	r0, {r1, r2, r3, r5, r6, sl, sp, lr}
    1364:	65726c41 	ldrbvs	r6, [r2, #-3137]!	; 0xfffff3bf
    1368:	59796461 	ldmdbpl	r9!, {r0, r5, r6, sl, sp, lr}^
    136c:	646c6569 	strbtvs	r6, [ip], #-1385	; 0xfffffa97
    1370:	70006465 	andvc	r6, r0, r5, ror #8
    1374:	72615076 	rsbvc	r5, r1, #118	; 0x76
    1378:	74656d61 	strbtvc	r6, [r5], #-3425	; 0xfffff29f
    137c:	78007265 	stmdavc	r0, {r0, r2, r5, r6, r9, ip, sp, lr}
    1380:	69676552 	stmdbvs	r7!, {r1, r4, r6, r8, sl, sp, lr}^
    1384:	00736e6f 	rsbseq	r6, r3, pc, ror #28
    1388:	41767270 	cmnmi	r6, r0, ror r2
    138c:	75436464 	strbvc	r6, [r3, #-1124]	; 0xfffffb9c
    1390:	6e657272 	mcrvs	2, 3, r7, cr5, cr2, {3}
    1394:	73615474 	cmnvc	r1, #116, 8	; 0x74000000
    1398:	446f546b 	strbtmi	r5, [pc], #-1131	; 13a0 <_start-0x6c60>
    139c:	79616c65 	stmdbvc	r1!, {r0, r2, r5, r6, sl, fp, sp, lr}^
    13a0:	694c6465 	stmdbvs	ip, {r0, r2, r5, r6, sl, sp, lr}^
    13a4:	75007473 	strvc	r7, [r0, #-1139]	; 0xfffffb8d
    13a8:	72754378 	rsbsvc	r4, r5, #120, 6	; 0xe0000001
    13ac:	746e6572 	strbtvc	r6, [lr], #-1394	; 0xfffffa8e
    13b0:	626d754e 	rsbvs	r7, sp, #327155712	; 0x13800000
    13b4:	664f7265 	strbvs	r7, [pc], -r5, ror #4
    13b8:	6b736154 	blvs	1cd9910 <__bss_end+0x1cc3dd8>
    13bc:	54780073 	ldrbtpl	r0, [r8], #-115	; 0xffffff8d
    13c0:	49656d69 	stmdbmi	r5!, {r0, r3, r5, r6, r8, sl, fp, sp, lr}^
    13c4:	6572636e 	ldrbvs	r6, [r2, #-878]!	; 0xfffffc92
    13c8:	746e656d 	strbtvc	r6, [lr], #-1389	; 0xfffffa93
    13cc:	54787000 	ldrbtpl	r7, [r8], #-0
    13d0:	76004243 	strvc	r4, [r0], -r3, asr #4
    13d4:	6b736154 	blvs	1cd992c <__bss_end+0x1cc3df4>
    13d8:	75736552 	ldrbvc	r6, [r3, #-1362]!	; 0xfffffaae
    13dc:	7000656d 	andvc	r6, r0, sp, ror #10
    13e0:	65724378 	ldrbvs	r4, [r2, #-888]!	; 0xfffffc88
    13e4:	64657461 	strbtvs	r7, [r5], #-1121	; 0xfffffb9f
    13e8:	6b736154 	blvs	1cd9940 <__bss_end+0x1cc3e08>
    13ec:	6e655000 	cdpvs	0, 6, cr5, cr5, cr0, {0}
    13f0:	676e6964 	strbvs	r6, [lr, -r4, ror #18]!
    13f4:	65500031 	ldrbvs	r0, [r0, #-49]	; 0xffffffcf
    13f8:	6e69646e 	cdpvs	4, 6, cr6, cr9, cr14, {3}
    13fc:	44003267 	strmi	r3, [r0], #-615	; 0xfffffd99
    1400:	62617369 	rsbvs	r7, r1, #-1543503871	; 0xa4000001
    1404:	6142656c 	cmpvs	r2, ip, ror #10
    1408:	00636973 	rsbeq	r6, r3, r3, ror r9
    140c:	324d4342 	subcc	r4, sp, #134217729	; 0x8000001
    1410:	5f353338 	svcpl	0x00353338
    1414:	43544e49 	cmpmi	r4, #1168	; 0x490
    1418:	4745525f 	smlsldmi	r5, r5, pc, r2	; <UNPREDICTABLE>
    141c:	49460053 	stmdbmi	r6, {r0, r1, r4, r6}^
    1420:	72744351 	rsbsvc	r4, r4, #1140850689	; 0x44000001
    1424:	762f006c 	strtvc	r0, [pc], -ip, rrx
    1428:	6c2f7261 	sfmvs	f7, 4, [pc], #-388	; 12ac <_start-0x6d54>
    142c:	6c61636f 	stclvs	3, cr6, [r1], #-444	; 0xfffffe44
    1430:	6f74722f 	svcvs	0x0074722f
    1434:	65442f73 	strbvs	r2, [r4, #-3955]	; 0xfffff08d
    1438:	442f6f6d 	strtmi	r6, [pc], #-3949	; 1440 <_start-0x6bc0>
    143c:	65766972 	ldrbvs	r6, [r6, #-2418]!	; 0xfffff68e
    1440:	692f7372 	stmdbvs	pc!, {r1, r4, r5, r6, r8, r9, ip, sp, lr}	; <UNPREDICTABLE>
    1444:	632e7172 			; <UNDEFINED> instruction: 0x632e7172
    1448:	71726900 	cmnvc	r2, r0, lsl #18
    144c:	636f6c42 	cmnvs	pc, #16896	; 0x4200
    1450:	6c75006b 	ldclvs	0, cr0, [r5], #-428	; 0xfffffe54
    1454:	6b73614d 	blvs	1cd9990 <__bss_end+0x1cc3e58>
    1458:	74536465 	ldrbvc	r6, [r3], #-1125	; 0xfffffb9b
    145c:	73757461 	cmnvc	r5, #1627389952	; 0x61000000
    1460:	616e6500 	cmnvs	lr, r0, lsl #10
    1464:	64656c62 	strbtvs	r6, [r5], #-3170	; 0xfffff39e
    1468:	6e616800 	cdpvs	8, 6, cr6, cr1, cr0, {0}
    146c:	52656c64 	rsbpl	r6, r5, #100, 24	; 0x6400
    1470:	65676e61 	strbvs	r6, [r7, #-3681]!	; 0xfffff19f
    1474:	73616d00 	cmnvc	r1, #0, 26
    1478:	7269006b 	rsbvc	r0, r9, #107	; 0x6b
    147c:	73694471 	cmnvc	r9, #1895825408	; 0x71000000
    1480:	656c6261 	strbvs	r6, [ip, #-609]!	; 0xfffffd9f
    1484:	71726900 	cmnvc	r2, r0, lsl #18
    1488:	69676552 	stmdbvs	r7!, {r1, r4, r6, r8, sl, sp, lr}^
    148c:	72657473 	rsbvc	r7, r5, #1929379840	; 0x73000000
    1490:	6e667000 	cdpvs	0, 6, cr7, cr6, cr0, {0}
    1494:	646e6148 	strbtvs	r6, [lr], #-328	; 0xfffffeb8
    1498:	0072656c 	rsbseq	r6, r2, ip, ror #10
    149c:	48717269 	ldmdami	r1!, {r0, r3, r5, r6, r9, ip, sp, lr}^
    14a0:	6c646e61 	stclvs	14, cr6, [r4], #-388	; 0xfffffe7c
    14a4:	45007265 	strmi	r7, [r0, #-613]	; 0xfffffd9b
    14a8:	6c62616e 	stfvse	f6, [r2], #-440	; 0xfffffe48
    14ac:	44003265 	strmi	r3, [r0], #-613	; 0xfffffd9b
    14b0:	62617369 	rsbvs	r7, r1, #-1543503871	; 0xa4000001
    14b4:	0031656c 	eorseq	r6, r1, ip, ror #10
    14b8:	61736944 	cmnvs	r3, r4, asr #18
    14bc:	32656c62 	rsbcc	r6, r5, #25088	; 0x6200
    14c0:	565f6700 	ldrbpl	r6, [pc], -r0, lsl #14
    14c4:	6f746365 	svcvs	0x00746365
    14c8:	62615472 	rsbvs	r5, r1, #1912602624	; 0x72000000
    14cc:	6900656c 	stmdbvs	r0, {r2, r3, r5, r6, r8, sl, sp, lr}
    14d0:	6e457172 	mcrvs	1, 2, r7, cr5, cr2, {3}
    14d4:	656c6261 	strbvs	r6, [ip, #-609]!	; 0xfffffd9f
    14d8:	5f4e4600 	svcpl	0x004e4600
    14dc:	45544e49 	ldrbmi	r4, [r4, #-3657]	; 0xfffff1b7
    14e0:	50555252 	subspl	r5, r5, r2, asr r2
    14e4:	41485f54 	cmpmi	r8, r4, asr pc
    14e8:	454c444e 	strbmi	r4, [ip, #-1102]	; 0xfffffbb2
    14ec:	4e490052 	mcrmi	0, 2, r0, cr9, cr2, {2}
    14f0:	52524554 	subspl	r4, r2, #84, 10	; 0x15000000
    14f4:	5f545055 	svcpl	0x00545055
    14f8:	54434556 	strbpl	r4, [r3], #-1366	; 0xfffffaaa
    14fc:	7000524f 	andvc	r5, r0, pc, asr #4
    1500:	69646e65 	stmdbvs	r4!, {r0, r2, r5, r6, r9, sl, fp, sp, lr}^
    1504:	4900676e 	stmdbmi	r0, {r1, r2, r3, r5, r6, r8, r9, sl, sp, lr}
    1508:	61425152 	cmpvs	r2, r2, asr r1
    150c:	00636973 	rsbeq	r6, r3, r3, ror r9
    1510:	55717269 	ldrbpl	r7, [r1, #-617]!	; 0xfffffd97
    1514:	6f6c626e 	svcvs	0x006c626e
    1518:	45006b63 	strmi	r6, [r0, #-2915]	; 0xfffff49d
    151c:	6c62616e 	stfvse	f6, [r2], #-440	; 0xfffffe48
    1520:	73614265 	cmnvc	r1, #1342177286	; 0x50000006
    1524:	45006369 	strmi	r6, [r0, #-873]	; 0xfffffc97
    1528:	6c62616e 	stfvse	f6, [r2], #-440	; 0xfffffe48
    152c:	47003165 	strmi	r3, [r0, -r5, ror #2]
    1530:	54455350 	strbpl	r5, [r5], #-848	; 0xfffffcb0
    1534:	4d434200 	sfmmi	f4, 2, [r3, #-0]
    1538:	35333832 	ldrcc	r3, [r3, #-2098]!	; 0xfffff7ce
    153c:	4950475f 	ldmdbmi	r0, {r0, r1, r2, r3, r4, r6, r8, r9, sl, lr}^
    1540:	45525f4f 	ldrbmi	r5, [r2, #-3919]	; 0xfffff0b1
    1544:	69005347 	stmdbvs	r0, {r0, r1, r2, r6, r8, r9, ip, lr}
    1548:	006d6574 	rsbeq	r6, sp, r4, ror r5
    154c:	7261762f 	rsbvc	r7, r1, #49283072	; 0x2f00000
    1550:	636f6c2f 	cmnvs	pc, #12032	; 0x2f00
    1554:	722f6c61 	eorvc	r6, pc, #24832	; 0x6100
    1558:	2f736f74 	svccs	0x00736f74
    155c:	6f6d6544 	svcvs	0x006d6544
    1560:	6972442f 	ldmdbvs	r2!, {r0, r1, r2, r3, r5, sl, lr}^
    1564:	73726576 	cmnvc	r2, #494927872	; 0x1d800000
    1568:	6970672f 	ldmdbvs	r0!, {r0, r1, r2, r3, r5, r8, r9, sl, sp, lr}^
    156c:	00632e6f 	rsbeq	r2, r3, pc, ror #28
    1570:	4e6e6970 			; <UNDEFINED> instruction: 0x4e6e6970
    1574:	52006d75 	andpl	r6, r0, #7488	; 0x1d40
    1578:	47646165 	strbmi	r6, [r4, -r5, ror #2]!
    157c:	006f6970 	rsbeq	r6, pc, r0, ror r9	; <UNPREDICTABLE>
    1580:	47746553 			; <UNDEFINED> instruction: 0x47746553
    1584:	446f6970 	strbtmi	r6, [pc], #-2416	; 158c <_start-0x6a74>
    1588:	63657269 	cmnvs	r5, #-1879048186	; 0x90000006
    158c:	6e6f6974 			; <UNDEFINED> instruction: 0x6e6f6974
    1590:	43504700 	cmpmi	r0, #0, 14
    1594:	4700524c 	strmi	r5, [r0, -ip, asr #4]
    1598:	4e454850 	mcrmi	8, 2, r4, cr5, cr0, {2}
    159c:	54454400 	strbpl	r4, [r5], #-1024	; 0xfffffc00
    15a0:	5f544345 	svcpl	0x00544345
    15a4:	49534952 	ldmdbmi	r3, {r1, r4, r6, r8, fp, lr}^
    15a8:	415f474e 	cmpmi	pc, lr, asr #14
    15ac:	434e5953 	movtmi	r5, #59731	; 0xe953
    15b0:	54454400 	strbpl	r4, [r5], #-1024	; 0xfffffc00
    15b4:	5f544345 	svcpl	0x00544345
    15b8:	4c4c4146 	stfmie	f4, [ip], {70}	; 0x46
    15bc:	5f474e49 	svcpl	0x00474e49
    15c0:	4e595341 	cdpmi	3, 5, cr5, cr9, cr1, {2}
    15c4:	6c430043 	mcrrvs	0, 4, r0, r3, cr3
    15c8:	47726165 	ldrbmi	r6, [r2, -r5, ror #2]!
    15cc:	496f6970 	stmdbmi	pc!, {r4, r5, r6, r8, fp, sp, lr}^	; <UNPREDICTABLE>
    15d0:	7265746e 	rsbvc	r7, r5, #1845493760	; 0x6e000000
    15d4:	74707572 	ldrbtvc	r7, [r0], #-1394	; 0xfffffa8e
    15d8:	41504700 	cmpmi	r0, r0, lsl #14
    15dc:	004e4546 	subeq	r4, lr, r6, asr #10
    15e0:	62616e45 	rsbvs	r6, r1, #1104	; 0x450
    15e4:	7047656c 	subvc	r6, r7, ip, ror #10
    15e8:	65446f69 	strbvs	r6, [r4, #-3945]	; 0xfffff097
    15ec:	74636574 	strbtvc	r6, [r3], #-1396	; 0xfffffa8c
    15f0:	50504700 	subspl	r4, r0, r0, lsl #14
    15f4:	44004455 	strmi	r4, [r0], #-1109	; 0xfffffbab
    15f8:	43455445 	movtmi	r5, #21573	; 0x5445
    15fc:	59545f54 	ldmdbpl	r4, {r2, r4, r6, r8, r9, sl, fp, ip, lr}^
    1600:	70004550 	andvc	r4, r0, r0, asr r5
    1604:	61566e69 	cmpvs	r6, r9, ror #28
    1608:	5047006c 	subpl	r0, r7, ip, rrx
    160c:	4e455241 	cdpmi	2, 4, cr5, cr5, cr1, {2}
    1610:	74655300 	strbtvc	r5, [r5], #-768	; 0xfffffd00
    1614:	6f697047 	svcvs	0x00697047
    1618:	636e7546 	cmnvs	lr, #293601280	; 0x11800000
    161c:	6e6f6974 			; <UNDEFINED> instruction: 0x6e6f6974
    1620:	49504700 	ldmdbmi	r0, {r8, r9, sl, lr}^
    1624:	49445f4f 	stmdbmi	r4, {r0, r1, r2, r3, r6, r8, r9, sl, fp, ip, lr}^
    1628:	50470052 	subpl	r0, r7, r2, asr r0
    162c:	004e4546 	subeq	r4, lr, r6, asr #10
    1630:	4f495047 	svcmi	0x00495047
    1634:	004e495f 	subeq	r4, lr, pc, asr r9
    1638:	45544544 	ldrbmi	r4, [r4, #-1348]	; 0xfffffabc
    163c:	485f5443 	ldmdami	pc, {r0, r1, r6, sl, ip, lr}^	; <UNPREDICTABLE>
    1640:	00484749 	subeq	r4, r8, r9, asr #14
    1644:	45544544 	ldrbmi	r4, [r4, #-1348]	; 0xfffffabc
    1648:	4e5f5443 	cdpmi	4, 5, cr5, cr15, cr3, {2}
    164c:	00454e4f 	subeq	r4, r5, pc, asr #28
    1650:	454c5047 	strbmi	r5, [ip, #-71]	; 0xffffffb9
    1654:	5047004e 	subpl	r0, r7, lr, asr #32
    1658:	43445550 	movtmi	r5, #17744	; 0x4550
    165c:	44004b4c 	strmi	r4, [r0], #-2892	; 0xfffff4b4
    1660:	43455445 	movtmi	r5, #21573	; 0x5445
    1664:	49525f54 	ldmdbmi	r2, {r2, r4, r6, r8, r9, sl, fp, ip, lr}^
    1668:	474e4953 	smlsldmi	r4, lr, r3, r9
    166c:	54454400 	strbpl	r4, [r5], #-1024	; 0xfffffc00
    1670:	5f544345 	svcpl	0x00544345
    1674:	00574f4c 	subseq	r4, r7, ip, asr #30
    1678:	454c5047 	strbmi	r5, [ip, #-71]	; 0xffffffb9
    167c:	75660056 	strbvc	r0, [r6, #-86]!	; 0xffffffaa
    1680:	754e636e 	strbvc	r6, [lr, #-878]	; 0xfffffc92
    1684:	5047006d 	subpl	r0, r7, sp, rrx
    1688:	004e4552 	subeq	r4, lr, r2, asr r5
    168c:	44455047 	strbmi	r5, [r5], #-71	; 0xffffffb9
    1690:	69440053 	stmdbvs	r4, {r0, r1, r4, r6}^
    1694:	6c626173 	stfvse	f6, [r2], #-460	; 0xfffffe34
    1698:	69704765 	ldmdbvs	r0!, {r0, r2, r5, r6, r8, r9, sl, lr}^
    169c:	7465446f 	strbtvc	r4, [r5], #-1135	; 0xfffffb91
    16a0:	00746365 	rsbseq	r6, r4, r5, ror #6
    16a4:	65707974 	ldrbvs	r7, [r0, #-2420]!	; 0xfffff68c
    16a8:	46504700 	ldrbmi	r4, [r0], -r0, lsl #14
    16ac:	004c4553 	subeq	r4, ip, r3, asr r5
    16b0:	65736552 	ldrbvs	r6, [r3, #-1362]!	; 0xfffffaae
    16b4:	64657672 	strbtvs	r7, [r5], #-1650	; 0xfffff98e
    16b8:	5200315f 	andpl	r3, r0, #-1073741801	; 0xc0000017
    16bc:	72657365 	rsbvc	r7, r5, #-1811939327	; 0x94000001
    16c0:	5f646576 	svcpl	0x00646576
    16c4:	65520032 	ldrbvs	r0, [r2, #-50]	; 0xffffffce
    16c8:	76726573 			; <UNDEFINED> instruction: 0x76726573
    16cc:	335f6465 	cmpcc	pc, #1694498816	; 0x65000000
    16d0:	73655200 	cmnvc	r5, #0, 4
    16d4:	65767265 	ldrbvs	r7, [r6, #-613]!	; 0xfffffd9b
    16d8:	00345f64 	eorseq	r5, r4, r4, ror #30
    16dc:	65736552 	ldrbvs	r6, [r3, #-1362]!	; 0xfffffaae
    16e0:	64657672 	strbtvs	r7, [r5], #-1650	; 0xfffff98e
    16e4:	5200355f 	andpl	r3, r0, #398458880	; 0x17c00000
    16e8:	72657365 	rsbvc	r7, r5, #-1811939327	; 0x94000001
    16ec:	5f646576 	svcpl	0x00646576
    16f0:	65520036 	ldrbvs	r0, [r2, #-54]	; 0xffffffca
    16f4:	76726573 			; <UNDEFINED> instruction: 0x76726573
    16f8:	375f6465 	ldrbcc	r6, [pc, -r5, ror #8]
    16fc:	73655200 	cmnvc	r5, #0, 4
    1700:	65767265 	ldrbvs	r7, [r6, #-613]!	; 0xfffffd9b
    1704:	00385f64 	eorseq	r5, r8, r4, ror #30
    1708:	65736552 	ldrbvs	r6, [r3, #-1362]!	; 0xfffffaae
    170c:	64657672 	strbtvs	r7, [r5], #-1650	; 0xfffff98e
    1710:	4400395f 	strmi	r3, [r0], #-2399	; 0xfffff6a1
    1714:	43455445 	movtmi	r5, #21573	; 0x5445
    1718:	41465f54 	cmpmi	r6, r4, asr pc
    171c:	4e494c4c 	cdpmi	12, 4, cr4, cr9, cr12, {2}
    1720:	65530047 	ldrbvs	r0, [r3, #-71]	; 0xffffffb9
    1724:	69704774 	ldmdbvs	r0!, {r2, r4, r5, r6, r8, r9, sl, lr}^
    1728:	6552006f 	ldrbvs	r0, [r2, #-111]	; 0xffffff91
    172c:	76726573 			; <UNDEFINED> instruction: 0x76726573
    1730:	415f6465 	cmpmi	pc, r5, ror #8
    1734:	73655200 	cmnvc	r5, #0, 4
    1738:	65767265 	ldrbvs	r7, [r6, #-613]!	; 0xfffffd9b
    173c:	00425f64 	subeq	r5, r2, r4, ror #30
    1740:	4f495047 	svcmi	0x00495047
    1744:	54554f5f 	ldrbpl	r4, [r5], #-3935	; 0xfffff0a1
    1748:	50787000 	rsbspl	r7, r8, r0
    174c:	69766572 	ldmdbvs	r6!, {r1, r4, r5, r6, r8, sl, sp, lr}^
    1750:	4273756f 	rsbsmi	r7, r3, #465567744	; 0x1bc00000
    1754:	6b636f6c 	blvs	18dd50c <__bss_end+0x18c79d4>
    1758:	6f547800 	svcvs	0x00547800
    175c:	486c6174 	stmdami	ip!, {r2, r4, r5, r6, r8, sp, lr}^
    1760:	53706165 	cmnpl	r0, #1073741849	; 0x40000019
    1764:	00657a69 	rsbeq	r7, r5, r9, ror #20
    1768:	6f6c4278 	svcvs	0x006c4278
    176c:	69536b63 	ldmdbvs	r3, {r0, r1, r5, r6, r8, r9, fp, sp, lr}^
    1770:	7000657a 	andvc	r6, r0, sl, ror r5
    1774:	78654e78 	stmdavc	r5!, {r3, r4, r5, r6, r9, sl, fp, lr}^
    1778:	65724674 	ldrbvs	r4, [r2, #-1652]!	; 0xfffff98c
    177c:	6f6c4265 	svcvs	0x006c4265
    1780:	70006b63 	andvc	r6, r0, r3, ror #22
    1784:	6f6c4278 	svcvs	0x006c4278
    1788:	78006b63 	stmdavc	r0, {r0, r1, r5, r6, r8, r9, fp, sp, lr}
    178c:	534f5452 	movtpl	r5, #62546	; 0xf452
    1790:	4145485f 	cmpmi	r5, pc, asr r8
    1794:	53780050 	cmnpl	r8, #80	; 0x50
    1798:	74726174 	ldrbtvc	r6, [r2], #-372	; 0xfffffe8c
    179c:	50767000 	rsbspl	r7, r6, r0
    17a0:	4d74726f 	lfmmi	f7, 2, [r4, #-444]!	; 0xfffffe44
    17a4:	6f6c6c61 	svcvs	0x006c6c61
    17a8:	72700063 	rsbsvc	r0, r0, #99	; 0x63
    17ac:	61654876 	smcvs	21638	; 0x5486
    17b0:	696e4970 	stmdbvs	lr!, {r4, r5, r6, r8, fp, lr}^
    17b4:	57780074 			; <UNDEFINED> instruction: 0x57780074
    17b8:	65746e61 	ldrbvs	r6, [r4, #-3681]!	; 0xfffff19f
    17bc:	7a695364 	bvc	1a56554 <__bss_end+0x1a40a1c>
    17c0:	44640065 	strbtmi	r0, [r4], #-101	; 0xffffff9b
    17c4:	796d6d75 	stmdbvc	sp!, {r0, r2, r4, r5, r6, r8, sl, fp, sp, lr}^
    17c8:	63757000 	cmnvs	r5, #0
    17cc:	70616548 	rsbvc	r6, r1, r8, asr #10
    17d0:	00646e45 	rsbeq	r6, r4, r5, asr #28
    17d4:	49767270 	ldmdbmi	r6!, {r4, r5, r6, r9, ip, sp, lr}^
    17d8:	7265736e 	rsbvc	r7, r5, #-1207959551	; 0xb8000001
    17dc:	6f6c4274 	svcvs	0x006c4274
    17e0:	6e496b63 	vmlsvs.f64	d22, d9, d19
    17e4:	72466f74 	subvc	r6, r6, #116, 30	; 0x1d0
    17e8:	694c6565 	stmdbvs	ip, {r0, r2, r5, r6, r8, sl, sp, lr}^
    17ec:	70007473 	andvc	r7, r0, r3, ror r4
    17f0:	6e694c78 	mcrvs	12, 3, r4, cr9, cr8, {3}
    17f4:	4678006b 	ldrbtmi	r0, [r8], -fp, rrx
    17f8:	42656572 	rsbmi	r6, r5, #478150656	; 0x1c800000
    17fc:	73657479 	cmnvc	r5, #2030043136	; 0x79000000
    1800:	616d6552 	cmnvs	sp, r2, asr r5
    1804:	6e696e69 	cdpvs	14, 6, cr6, cr9, cr9, {3}
    1808:	63750067 	cmnvs	r5, #103	; 0x67
    180c:	70616548 	rsbvc	r6, r1, r8, asr #10
    1810:	46787000 	ldrbtmi	r7, [r8], -r0
    1814:	74737269 	ldrbtvc	r7, [r3], #-617	; 0xfffffd97
    1818:	65657246 	strbvs	r7, [r5, #-582]!	; 0xfffffdba
    181c:	636f6c42 	cmnvs	pc, #16896	; 0x4200
    1820:	7870006b 	ldmdavc	r0!, {r0, r1, r3, r5, r6}^
    1824:	4277654e 	rsbsmi	r6, r7, #327155712	; 0x13800000
    1828:	6b636f6c 	blvs	18dd5e0 <__bss_end+0x18c7aa8>
    182c:	6b6e694c 	blvs	1b9bd64 <__bss_end+0x1b8622c>
    1830:	52767000 	rsbspl	r7, r6, #0
    1834:	72757465 	rsbsvc	r7, r5, #1694498816	; 0x65000000
    1838:	762f006e 	strtvc	r0, [pc], -lr, rrx
    183c:	6c2f7261 	sfmvs	f7, 4, [pc], #-388	; 16c0 <_start-0x6940>
    1840:	6c61636f 	stclvs	3, cr6, [r1], #-444	; 0xfffffe44
    1844:	6f74722f 	svcvs	0x0074722f
    1848:	462f2f73 	qsub16mi	r2, pc, r3	; <UNPREDICTABLE>
    184c:	52656572 	rsbpl	r6, r5, #478150656	; 0x1c800000
    1850:	2f534f54 	svccs	0x00534f54
    1854:	72756f53 	rsbsvc	r6, r5, #332	; 0x14c
    1858:	702f6563 	eorvc	r6, pc, r3, ror #10
    185c:	6174726f 	cmnvs	r4, pc, ror #4
    1860:	2f656c62 	svccs	0x00656c62
    1864:	4d6d654d 	cfstr64mi	mvdx6, [sp, #-308]!	; 0xfffffecc
    1868:	2f676e61 	svccs	0x00676e61
    186c:	70616568 	rsbvc	r6, r1, r8, ror #10
    1870:	632e345f 			; <UNDEFINED> instruction: 0x632e345f
    1874:	425f4100 	subsmi	r4, pc, #0, 2
    1878:	4b434f4c 	blmi	10d55b0 <__bss_end+0x10bfa78>
    187c:	4e494c5f 	mcrmi	12, 2, r4, cr9, cr15, {2}
    1880:	5078004b 	rsbspl	r0, r8, fp, asr #32
    1884:	4774726f 	ldrbmi	r7, [r4, -pc, ror #4]!
    1888:	72467465 	subvc	r7, r6, #1694498816	; 0x65000000
    188c:	65486565 	strbvs	r6, [r8, #-1381]	; 0xfffffa9b
    1890:	69537061 	ldmdbvs	r3, {r0, r5, r6, ip, sp, lr}^
    1894:	7600657a 			; <UNDEFINED> instruction: 0x7600657a
    1898:	74726f50 	ldrbtvc	r6, [r2], #-3920	; 0xfffff0b0
    189c:	74696e49 	strbtvc	r6, [r9], #-3657	; 0xfffff1b7
    18a0:	696c6169 	stmdbvs	ip!, {r0, r3, r5, r6, r8, sp, lr}^
    18a4:	6c426573 	cfstr64vs	mvdx6, [r2], {115}	; 0x73
    18a8:	736b636f 	cmnvc	fp, #-1140850687	; 0xbc000001
    18ac:	61656800 	cmnvs	r5, r0, lsl #16
    18b0:	52545370 	subspl	r5, r4, #112, 6	; 0xc0000001
    18b4:	5f544355 	svcpl	0x00544355
    18b8:	455a4953 	ldrbmi	r4, [sl, #-2387]	; 0xfffff6ad
    18bc:	6f507600 	svcvs	0x00507600
    18c0:	72467472 	subvc	r7, r6, #1912602624	; 0x72000000
    18c4:	61006565 	tstvs	r0, r5, ror #10
    18c8:	636f6c6c 	cmnvs	pc, #108, 24	; 0x6c00
    18cc:	64657461 	strbtvs	r7, [r5], #-1121	; 0xfffffb9f
    18d0:	6c427800 	mcrrvs	8, 0, r7, r2, cr0
    18d4:	4c6b636f 	stclmi	3, cr6, [fp], #-444	; 0xfffffe44
    18d8:	006b6e69 	rsbeq	r6, fp, r9, ror #28
    18dc:	6e457870 	mcrvs	8, 2, r7, cr5, cr0, {3}
    18e0:	78700064 	ldmdavc	r0!, {r2, r5, r6}^
    18e4:	636f6c42 	cmnvs	pc, #16896	; 0x4200
    18e8:	496f546b 	stmdbmi	pc!, {r0, r1, r3, r5, r6, sl, ip, lr}^	; <UNPREDICTABLE>
    18ec:	7265736e 	rsbvc	r7, r5, #-1207959551	; 0xb8000001
    18f0:	48780074 	ldmdami	r8!, {r2, r4, r5, r6}^
    18f4:	00706165 	rsbseq	r6, r0, r5, ror #2
    18f8:	7261762f 	rsbvc	r7, r1, #49283072	; 0x2f00000
    18fc:	636f6c2f 	cmnvs	pc, #12032	; 0x2f00
    1900:	722f6c61 	eorvc	r6, pc, #24832	; 0x6100
    1904:	2f736f74 	svccs	0x00736f74
    1908:	6f6d6544 	svcvs	0x006d6544
    190c:	69616d2f 	stmdbvs	r1!, {r0, r1, r2, r3, r5, r8, sl, fp, sp, lr}^
    1910:	00632e6e 	rsbeq	r2, r3, lr, ror #28
    1914:	6b736174 	blvs	1cd9eec <__bss_end+0x1cc43b4>
    1918:	616d0032 	cmnvs	sp, r2, lsr r0
    191c:	74006e69 	strvc	r6, [r0], #-3689	; 0xfffff197
    1920:	316b7361 	cmncc	fp, r1, ror #6
	...

Disassembly of section .comment:

00000000 <.comment>:
   0:	3a434347 	bcc	10d0d24 <__bss_end+0x10bb1ec>
   4:	4e472820 	cdpmi	8, 4, cr2, cr7, cr0, {1}
   8:	6f542055 	svcvs	0x00542055
   c:	20736c6f 	rsbscs	r6, r3, pc, ror #24
  10:	20726f66 	rsbscs	r6, r2, r6, ror #30
  14:	206d7241 	rsbcs	r7, sp, r1, asr #4
  18:	65626d45 	strbvs	r6, [r2, #-3397]!	; 0xfffff2bb
  1c:	64656464 	strbtvs	r6, [r5], #-1124	; 0xfffffb9c
  20:	6f725020 	svcvs	0x00725020
  24:	73736563 	cmnvc	r3, #415236096	; 0x18c00000
  28:	2073726f 	rsbscs	r7, r3, pc, ror #4
  2c:	30322d37 	eorscc	r2, r2, r7, lsr sp
  30:	712d3831 			; <UNDEFINED> instruction: 0x712d3831
  34:	70752d32 	rsbsvc	r2, r5, r2, lsr sp
  38:	65746164 	ldrbvs	r6, [r4, #-356]!	; 0xfffffe9c
  3c:	2e372029 	cdpcs	0, 3, cr2, cr7, cr9, {1}
  40:	20312e33 	eorscs	r2, r1, r3, lsr lr
  44:	38313032 	ldmdacc	r1!, {r1, r4, r5, ip, sp}
  48:	32323630 	eorscc	r3, r2, #48, 12	; 0x3000000
  4c:	65722820 	ldrbvs	r2, [r2, #-2080]!	; 0xfffff7e0
  50:	7361656c 	cmnvc	r1, #108, 10	; 0x1b000000
  54:	5b202965 	blpl	80a5f0 <__bss_end+0x7f4ab8>
  58:	2f4d5241 	svccs	0x004d5241
  5c:	65626d65 	strbvs	r6, [r2, #-3429]!	; 0xfffff29b
  60:	64656464 	strbtvs	r6, [r5], #-1124	; 0xfffffb9c
  64:	622d372d 	eorvs	r3, sp, #11796480	; 0xb40000
  68:	636e6172 	cmnvs	lr, #-2147483620	; 0x8000001c
  6c:	65722068 	ldrbvs	r2, [r2, #-104]!	; 0xffffff98
  70:	69736976 	ldmdbvs	r3!, {r1, r2, r4, r5, r6, r8, fp, sp, lr}^
  74:	32206e6f 	eorcc	r6, r0, #1776	; 0x6f0
  78:	30393136 	eorscc	r3, r9, r6, lsr r1
  7c:	Address 0x000000000000007c is out of bounds.


Disassembly of section .ARM.attributes:

00000000 <.ARM.attributes>:
   0:	00002b41 	andeq	r2, r0, r1, asr #22
   4:	61656100 	cmnvs	r5, r0, lsl #2
   8:	01006962 	tsteq	r0, r2, ror #18
   c:	00000021 	andeq	r0, r0, r1, lsr #32
  10:	005a3605 	subseq	r3, sl, r5, lsl #12
  14:	01080706 	tsteq	r8, r6, lsl #14
  18:	04120109 	ldreq	r0, [r2], #-265	; 0xfffffef7
  1c:	01150114 	tsteq	r5, r4, lsl r1
  20:	01180317 	tsteq	r8, r7, lsl r3
  24:	061e011a 			; <UNDEFINED> instruction: 0x061e011a
  28:	01440122 	cmpeq	r4, r2, lsr #2

Disassembly of section .debug_frame:

00000000 <.debug_frame>:
   0:	0000000c 	andeq	r0, r0, ip
   4:	ffffffff 			; <UNDEFINED> instruction: 0xffffffff
   8:	7c020001 	stcvc	0, cr0, [r2], {1}
   c:	000d0c0e 	andeq	r0, sp, lr, lsl #24
  10:	0000001c 	andeq	r0, r0, ip, lsl r0
  14:	00000000 	andeq	r0, r0, r0
  18:	00010000 	andeq	r0, r1, r0
  1c:	00000240 	andeq	r0, r0, r0, asr #4
  20:	8b040e42 	blhi	103930 <__bss_end+0xeddf8>
  24:	0b0d4201 	bleq	350830 <__bss_end+0x33acf8>
  28:	0d0dfe02 	stceq	14, cr15, [sp, #-8]
  2c:	000ecb42 	andeq	ip, lr, r2, asr #22
  30:	00000018 	andeq	r0, r0, r8, lsl r0
  34:	00000000 	andeq	r0, r0, r0
  38:	00010240 	andeq	r0, r1, r0, asr #4
  3c:	0000001c 	andeq	r0, r0, ip, lsl r0
  40:	8b080e42 	blhi	203950 <__bss_end+0x1ede18>
  44:	42018e02 	andmi	r8, r1, #2, 28
  48:	00040b0c 	andeq	r0, r4, ip, lsl #22
  4c:	0000001c 	andeq	r0, r0, ip, lsl r0
  50:	00000000 	andeq	r0, r0, r0
  54:	0001025c 	andeq	r0, r1, ip, asr r2
  58:	00000018 	andeq	r0, r0, r8, lsl r0
  5c:	8b040e42 	blhi	10396c <__bss_end+0xede34>
  60:	0b0d4201 	bleq	35086c <__bss_end+0x33ad34>
  64:	420d0d44 	andmi	r0, sp, #68, 26	; 0x1100
  68:	00000ecb 	andeq	r0, r0, fp, asr #29
  6c:	0000001c 	andeq	r0, r0, ip, lsl r0
  70:	00000000 	andeq	r0, r0, r0
  74:	00010274 	andeq	r0, r1, r4, ror r2
  78:	00000038 	andeq	r0, r0, r8, lsr r0
  7c:	8b080e42 	blhi	20398c <__bss_end+0x1ede54>
  80:	42018e02 	andmi	r8, r1, #2, 28
  84:	54040b0c 	strpl	r0, [r4], #-2828	; 0xfffff4f4
  88:	00080d0c 	andeq	r0, r8, ip, lsl #26
  8c:	0000001c 	andeq	r0, r0, ip, lsl r0
  90:	00000000 	andeq	r0, r0, r0
  94:	000102ac 	andeq	r0, r1, ip, lsr #5
  98:	00000098 	muleq	r0, r8, r0
  9c:	8b080e42 	blhi	2039ac <__bss_end+0x1ede74>
  a0:	42018e02 	andmi	r8, r1, #2, 28
  a4:	7e040b0c 	vmlavc.f64	d0, d4, d12
  a8:	00080d0c 	andeq	r0, r8, ip, lsl #26
  ac:	0000000c 	andeq	r0, r0, ip
  b0:	ffffffff 			; <UNDEFINED> instruction: 0xffffffff
  b4:	7c020001 	stcvc	0, cr0, [r2], {1}
  b8:	000d0c0e 	andeq	r0, sp, lr, lsl #24
  bc:	0000001c 	andeq	r0, r0, ip, lsl r0
  c0:	000000ac 	andeq	r0, r0, ip, lsr #1
  c4:	00010344 	andeq	r0, r1, r4, asr #6
  c8:	00000098 	muleq	r0, r8, r0
  cc:	8b040e42 	blhi	1039dc <__bss_end+0xedea4>
  d0:	0b0d4201 	bleq	3508dc <__bss_end+0x33ada4>
  d4:	420d0d7e 	andmi	r0, sp, #8064	; 0x1f80
  d8:	00000ecb 	andeq	r0, r0, fp, asr #29
  dc:	0000000c 	andeq	r0, r0, ip
  e0:	000000ac 	andeq	r0, r0, ip, lsr #1
  e4:	000103dc 	ldrdeq	r0, [r1], -ip
  e8:	000000b4 	strheq	r0, [r0], -r4
  ec:	0000000c 	andeq	r0, r0, ip
  f0:	000000ac 	andeq	r0, r0, ip, lsr #1
  f4:	00010490 	muleq	r1, r0, r4
  f8:	000000b0 	strheq	r0, [r0], -r0	; <UNPREDICTABLE>
  fc:	0000001c 	andeq	r0, r0, ip, lsl r0
 100:	000000ac 	andeq	r0, r0, ip, lsr #1
 104:	00010540 	andeq	r0, r1, r0, asr #10
 108:	00000044 	andeq	r0, r0, r4, asr #32
 10c:	8b040e42 	blhi	103a1c <__bss_end+0xedee4>
 110:	0b0d4201 	bleq	35091c <__bss_end+0x33ade4>
 114:	420d0d58 	andmi	r0, sp, #88, 26	; 0x1600
 118:	00000ecb 	andeq	r0, r0, fp, asr #29
 11c:	0000001c 	andeq	r0, r0, ip, lsl r0
 120:	000000ac 	andeq	r0, r0, ip, lsr #1
 124:	00010584 	andeq	r0, r1, r4, lsl #11
 128:	00000064 	andeq	r0, r0, r4, rrx
 12c:	8b040e42 	blhi	103a3c <__bss_end+0xedf04>
 130:	0b0d4201 	bleq	35093c <__bss_end+0x33ae04>
 134:	420d0d68 	andmi	r0, sp, #104, 26	; 0x1a00
 138:	00000ecb 	andeq	r0, r0, fp, asr #29
 13c:	0000000c 	andeq	r0, r0, ip
 140:	ffffffff 			; <UNDEFINED> instruction: 0xffffffff
 144:	7c020001 	stcvc	0, cr0, [r2], {1}
 148:	000d0c0e 	andeq	r0, sp, lr, lsl #24
 14c:	0000001c 	andeq	r0, r0, ip, lsl r0
 150:	0000013c 	andeq	r0, r0, ip, lsr r1
 154:	000105f0 	strdeq	r0, [r1], -r0	; <UNPREDICTABLE>
 158:	00000168 	andeq	r0, r0, r8, ror #2
 15c:	8b080e42 	blhi	203a6c <__bss_end+0x1edf34>
 160:	42018e02 	andmi	r8, r1, #2, 28
 164:	02040b0c 	andeq	r0, r4, #12, 22	; 0x3000
 168:	080d0ca8 	stmdaeq	sp, {r3, r5, r7, sl, fp}
 16c:	0000001c 	andeq	r0, r0, ip, lsl r0
 170:	0000013c 	andeq	r0, r0, ip, lsr r1
 174:	00010758 	andeq	r0, r1, r8, asr r7
 178:	000000e4 	andeq	r0, r0, r4, ror #1
 17c:	8b080e42 	blhi	203a8c <__bss_end+0x1edf54>
 180:	42018e02 	andmi	r8, r1, #2, 28
 184:	02040b0c 	andeq	r0, r4, #12, 22	; 0x3000
 188:	080d0c64 	stmdaeq	sp, {r2, r5, r6, sl, fp}
 18c:	0000001c 	andeq	r0, r0, ip, lsl r0
 190:	0000013c 	andeq	r0, r0, ip, lsr r1
 194:	0001083c 	andeq	r0, r1, ip, lsr r8
 198:	000000ec 	andeq	r0, r0, ip, ror #1
 19c:	8b080e42 	blhi	203aac <__bss_end+0x1edf74>
 1a0:	42018e02 	andmi	r8, r1, #2, 28
 1a4:	02040b0c 	andeq	r0, r4, #12, 22	; 0x3000
 1a8:	080d0c6a 	stmdaeq	sp, {r1, r3, r5, r6, sl, fp}
 1ac:	0000001c 	andeq	r0, r0, ip, lsl r0
 1b0:	0000013c 	andeq	r0, r0, ip, lsr r1
 1b4:	00010928 	andeq	r0, r1, r8, lsr #18
 1b8:	000001d0 	ldrdeq	r0, [r0], -r0	; <UNPREDICTABLE>
 1bc:	8b080e42 	blhi	203acc <__bss_end+0x1edf94>
 1c0:	42018e02 	andmi	r8, r1, #2, 28
 1c4:	02040b0c 	andeq	r0, r4, #12, 22	; 0x3000
 1c8:	080d0cd4 	stmdaeq	sp, {r2, r4, r6, r7, sl, fp}
 1cc:	0000001c 	andeq	r0, r0, ip, lsl r0
 1d0:	0000013c 	andeq	r0, r0, ip, lsr r1
 1d4:	00010af8 	strdeq	r0, [r1], -r8
 1d8:	00000128 	andeq	r0, r0, r8, lsr #2
 1dc:	8b080e42 	blhi	203aec <__bss_end+0x1edfb4>
 1e0:	42018e02 	andmi	r8, r1, #2, 28
 1e4:	02040b0c 	andeq	r0, r4, #12, 22	; 0x3000
 1e8:	080d0c88 	stmdaeq	sp, {r3, r7, sl, fp}
 1ec:	0000001c 	andeq	r0, r0, ip, lsl r0
 1f0:	0000013c 	andeq	r0, r0, ip, lsr r1
 1f4:	00010c20 	andeq	r0, r1, r0, lsr #24
 1f8:	000000a8 	andeq	r0, r0, r8, lsr #1
 1fc:	8b080e42 	blhi	203b0c <__bss_end+0x1edfd4>
 200:	42018e02 	andmi	r8, r1, #2, 28
 204:	02040b0c 	andeq	r0, r4, #12, 22	; 0x3000
 208:	080d0c42 	stmdaeq	sp, {r1, r6, sl, fp}
 20c:	0000001c 	andeq	r0, r0, ip, lsl r0
 210:	0000013c 	andeq	r0, r0, ip, lsr r1
 214:	00010cc8 	andeq	r0, r1, r8, asr #25
 218:	0000008c 	andeq	r0, r0, ip, lsl #1
 21c:	8b080e42 	blhi	203b2c <__bss_end+0x1edff4>
 220:	42018e02 	andmi	r8, r1, #2, 28
 224:	7c040b0c 			; <UNDEFINED> instruction: 0x7c040b0c
 228:	00080d0c 	andeq	r0, r8, ip, lsl #26
 22c:	0000000c 	andeq	r0, r0, ip
 230:	ffffffff 			; <UNDEFINED> instruction: 0xffffffff
 234:	7c020001 	stcvc	0, cr0, [r2], {1}
 238:	000d0c0e 	andeq	r0, sp, lr, lsl #24
 23c:	0000001c 	andeq	r0, r0, ip, lsl r0
 240:	0000022c 	andeq	r0, r0, ip, lsr #4
 244:	00010d54 	andeq	r0, r1, r4, asr sp
 248:	00000068 	andeq	r0, r0, r8, rrx
 24c:	8b040e42 	blhi	103b5c <__bss_end+0xee024>
 250:	0b0d4201 	bleq	350a5c <__bss_end+0x33af24>
 254:	420d0d6c 	andmi	r0, sp, #108, 26	; 0x1b00
 258:	00000ecb 	andeq	r0, r0, fp, asr #29
 25c:	0000001c 	andeq	r0, r0, ip, lsl r0
 260:	0000022c 	andeq	r0, r0, ip, lsr #4
 264:	00010dbc 			; <UNDEFINED> instruction: 0x00010dbc
 268:	0000002c 	andeq	r0, r0, ip, lsr #32
 26c:	8b040e42 	blhi	103b7c <__bss_end+0xee044>
 270:	0b0d4201 	bleq	350a7c <__bss_end+0x33af44>
 274:	420d0d4e 	andmi	r0, sp, #4992	; 0x1380
 278:	00000ecb 	andeq	r0, r0, fp, asr #29
 27c:	0000001c 	andeq	r0, r0, ip, lsl r0
 280:	0000022c 	andeq	r0, r0, ip, lsr #4
 284:	00010de8 	andeq	r0, r1, r8, ror #27
 288:	00000098 	muleq	r0, r8, r0
 28c:	8b040e42 	blhi	103b9c <__bss_end+0xee064>
 290:	0b0d4201 	bleq	350a9c <__bss_end+0x33af64>
 294:	0d0d4402 	cfstrseq	mvf4, [sp, #-8]
 298:	000ecb42 	andeq	ip, lr, r2, asr #22
 29c:	0000001c 	andeq	r0, r0, ip, lsl r0
 2a0:	0000022c 	andeq	r0, r0, ip, lsr #4
 2a4:	00010e80 	andeq	r0, r1, r0, lsl #29
 2a8:	000000d8 	ldrdeq	r0, [r0], -r8
 2ac:	8b040e42 	blhi	103bbc <__bss_end+0xee084>
 2b0:	0b0d4201 	bleq	350abc <__bss_end+0x33af84>
 2b4:	0d0d6402 	cfstrseq	mvf6, [sp, #-8]
 2b8:	000ecb42 	andeq	ip, lr, r2, asr #22
 2bc:	0000001c 	andeq	r0, r0, ip, lsl r0
 2c0:	0000022c 	andeq	r0, r0, ip, lsr #4
 2c4:	00010f58 	andeq	r0, r1, r8, asr pc
 2c8:	00000098 	muleq	r0, r8, r0
 2cc:	8b040e42 	blhi	103bdc <__bss_end+0xee0a4>
 2d0:	0b0d4201 	bleq	350adc <__bss_end+0x33afa4>
 2d4:	0d0d4402 	cfstrseq	mvf4, [sp, #-8]
 2d8:	000ecb42 	andeq	ip, lr, r2, asr #22
 2dc:	0000000c 	andeq	r0, r0, ip
 2e0:	ffffffff 			; <UNDEFINED> instruction: 0xffffffff
 2e4:	7c020001 	stcvc	0, cr0, [r2], {1}
 2e8:	000d0c0e 	andeq	r0, sp, lr, lsl #24
 2ec:	0000001c 	andeq	r0, r0, ip, lsl r0
 2f0:	000002dc 	ldrdeq	r0, [r0], -ip
 2f4:	00010ff0 	strdeq	r0, [r1], -r0	; <UNPREDICTABLE>
 2f8:	00000114 	andeq	r0, r0, r4, lsl r1
 2fc:	8b080e42 	blhi	203c0c <__bss_end+0x1ee0d4>
 300:	42018e02 	andmi	r8, r1, #2, 28
 304:	02040b0c 	andeq	r0, r4, #12, 22	; 0x3000
 308:	080d0c84 	stmdaeq	sp, {r2, r7, sl, fp}
 30c:	0000001c 	andeq	r0, r0, ip, lsl r0
 310:	000002dc 	ldrdeq	r0, [r0], -ip
 314:	00011104 	andeq	r1, r1, r4, lsl #2
 318:	000000c8 	andeq	r0, r0, r8, asr #1
 31c:	8b080e42 	blhi	203c2c <__bss_end+0x1ee0f4>
 320:	42018e02 	andmi	r8, r1, #2, 28
 324:	02040b0c 	andeq	r0, r4, #12, 22	; 0x3000
 328:	080d0c5e 	stmdaeq	sp, {r1, r2, r3, r4, r6, sl, fp}
 32c:	0000001c 	andeq	r0, r0, ip, lsl r0
 330:	000002dc 	ldrdeq	r0, [r0], -ip
 334:	000111cc 	andeq	r1, r1, ip, asr #3
 338:	000001a4 	andeq	r0, r0, r4, lsr #3
 33c:	8b080e42 	blhi	203c4c <__bss_end+0x1ee114>
 340:	42018e02 	andmi	r8, r1, #2, 28
 344:	02040b0c 	andeq	r0, r4, #12, 22	; 0x3000
 348:	080d0ccc 	stmdaeq	sp, {r2, r3, r6, r7, sl, fp}
 34c:	0000001c 	andeq	r0, r0, ip, lsl r0
 350:	000002dc 	ldrdeq	r0, [r0], -ip
 354:	00011370 	andeq	r1, r1, r0, ror r3
 358:	000000dc 	ldrdeq	r0, [r0], -ip
 35c:	8b080e42 	blhi	203c6c <__bss_end+0x1ee134>
 360:	42018e02 	andmi	r8, r1, #2, 28
 364:	02040b0c 	andeq	r0, r4, #12, 22	; 0x3000
 368:	080d0c68 	stmdaeq	sp, {r3, r5, r6, sl, fp}
 36c:	0000001c 	andeq	r0, r0, ip, lsl r0
 370:	000002dc 	ldrdeq	r0, [r0], -ip
 374:	0001144c 	andeq	r1, r1, ip, asr #8
 378:	00000204 	andeq	r0, r0, r4, lsl #4
 37c:	8b080e42 	blhi	203c8c <__bss_end+0x1ee154>
 380:	42018e02 	andmi	r8, r1, #2, 28
 384:	02040b0c 	andeq	r0, r4, #12, 22	; 0x3000
 388:	080d0cfc 	stmdaeq	sp, {r2, r3, r4, r5, r6, r7, sl, fp}
 38c:	0000001c 	andeq	r0, r0, ip, lsl r0
 390:	000002dc 	ldrdeq	r0, [r0], -ip
 394:	00011650 	andeq	r1, r1, r0, asr r6
 398:	000000e0 	andeq	r0, r0, r0, ror #1
 39c:	8b080e42 	blhi	203cac <__bss_end+0x1ee174>
 3a0:	42018e02 	andmi	r8, r1, #2, 28
 3a4:	02040b0c 	andeq	r0, r4, #12, 22	; 0x3000
 3a8:	080d0c6a 	stmdaeq	sp, {r1, r3, r5, r6, sl, fp}
 3ac:	0000001c 	andeq	r0, r0, ip, lsl r0
 3b0:	000002dc 	ldrdeq	r0, [r0], -ip
 3b4:	00011730 	andeq	r1, r1, r0, lsr r7
 3b8:	00000034 	andeq	r0, r0, r4, lsr r0
 3bc:	8b080e42 	blhi	203ccc <__bss_end+0x1ee194>
 3c0:	42018e02 	andmi	r8, r1, #2, 28
 3c4:	54040b0c 	strpl	r0, [r4], #-2828	; 0xfffff4f4
 3c8:	00080d0c 	andeq	r0, r8, ip, lsl #26
 3cc:	0000001c 	andeq	r0, r0, ip, lsl r0
 3d0:	000002dc 	ldrdeq	r0, [r0], -ip
 3d4:	00011764 	andeq	r1, r1, r4, ror #14
 3d8:	00000030 	andeq	r0, r0, r0, lsr r0
 3dc:	8b040e42 	blhi	103cec <__bss_end+0xee1b4>
 3e0:	0b0d4201 	bleq	350bec <__bss_end+0x33b0b4>
 3e4:	420d0d50 	andmi	r0, sp, #80, 26	; 0x1400
 3e8:	00000ecb 	andeq	r0, r0, fp, asr #29
 3ec:	0000001c 	andeq	r0, r0, ip, lsl r0
 3f0:	000002dc 	ldrdeq	r0, [r0], -ip
 3f4:	00011794 	muleq	r1, r4, r7
 3f8:	00000034 	andeq	r0, r0, r4, lsr r0
 3fc:	8b080e42 	blhi	203d0c <__bss_end+0x1ee1d4>
 400:	42018e02 	andmi	r8, r1, #2, 28
 404:	54040b0c 	strpl	r0, [r4], #-2828	; 0xfffff4f4
 408:	00080d0c 	andeq	r0, r8, ip, lsl #26
 40c:	0000001c 	andeq	r0, r0, ip, lsl r0
 410:	000002dc 	ldrdeq	r0, [r0], -ip
 414:	000117c8 	andeq	r1, r1, r8, asr #15
 418:	0000012c 	andeq	r0, r0, ip, lsr #2
 41c:	8b080e42 	blhi	203d2c <__bss_end+0x1ee1f4>
 420:	42018e02 	andmi	r8, r1, #2, 28
 424:	02040b0c 	andeq	r0, r4, #12, 22	; 0x3000
 428:	080d0c90 	stmdaeq	sp, {r4, r7, sl, fp}
 42c:	0000001c 	andeq	r0, r0, ip, lsl r0
 430:	000002dc 	ldrdeq	r0, [r0], -ip
 434:	000118f4 	strdeq	r1, [r1], -r4
 438:	00000090 	muleq	r0, r0, r0
 43c:	8b080e42 	blhi	203d4c <__bss_end+0x1ee214>
 440:	42018e02 	andmi	r8, r1, #2, 28
 444:	02040b0c 	andeq	r0, r4, #12, 22	; 0x3000
 448:	080d0c42 	stmdaeq	sp, {r1, r6, sl, fp}
 44c:	0000001c 	andeq	r0, r0, ip, lsl r0
 450:	000002dc 	ldrdeq	r0, [r0], -ip
 454:	00011984 	andeq	r1, r1, r4, lsl #19
 458:	00000104 	andeq	r0, r0, r4, lsl #2
 45c:	8b080e42 	blhi	203d6c <__bss_end+0x1ee234>
 460:	42018e02 	andmi	r8, r1, #2, 28
 464:	02040b0c 	andeq	r0, r4, #12, 22	; 0x3000
 468:	080d0c7c 	stmdaeq	sp, {r2, r3, r4, r5, r6, sl, fp}
 46c:	0000001c 	andeq	r0, r0, ip, lsl r0
 470:	000002dc 	ldrdeq	r0, [r0], -ip
 474:	00011a88 	andeq	r1, r1, r8, lsl #21
 478:	00000044 	andeq	r0, r0, r4, asr #32
 47c:	8b080e42 	blhi	203d8c <__bss_end+0x1ee254>
 480:	42018e02 	andmi	r8, r1, #2, 28
 484:	5c040b0c 			; <UNDEFINED> instruction: 0x5c040b0c
 488:	00080d0c 	andeq	r0, r8, ip, lsl #26
 48c:	0000001c 	andeq	r0, r0, ip, lsl r0
 490:	000002dc 	ldrdeq	r0, [r0], -ip
 494:	00011acc 	andeq	r1, r1, ip, asr #21
 498:	00000040 	andeq	r0, r0, r0, asr #32
 49c:	8b040e42 	blhi	103dac <__bss_end+0xee274>
 4a0:	0b0d4201 	bleq	350cac <__bss_end+0x33b174>
 4a4:	420d0d58 	andmi	r0, sp, #88, 26	; 0x1600
 4a8:	00000ecb 	andeq	r0, r0, fp, asr #29
 4ac:	0000001c 	andeq	r0, r0, ip, lsl r0
 4b0:	000002dc 	ldrdeq	r0, [r0], -ip
 4b4:	00011b0c 	andeq	r1, r1, ip, lsl #22
 4b8:	0000004c 	andeq	r0, r0, ip, asr #32
 4bc:	8b080e42 	blhi	203dcc <__bss_end+0x1ee294>
 4c0:	42018e02 	andmi	r8, r1, #2, 28
 4c4:	60040b0c 	andvs	r0, r4, ip, lsl #22
 4c8:	00080d0c 	andeq	r0, r8, ip, lsl #26
 4cc:	0000001c 	andeq	r0, r0, ip, lsl r0
 4d0:	000002dc 	ldrdeq	r0, [r0], -ip
 4d4:	00011b58 	andeq	r1, r1, r8, asr fp
 4d8:	00000048 	andeq	r0, r0, r8, asr #32
 4dc:	8b040e42 	blhi	103dec <__bss_end+0xee2b4>
 4e0:	0b0d4201 	bleq	350cec <__bss_end+0x33b1b4>
 4e4:	420d0d5c 	andmi	r0, sp, #92, 26	; 0x1700
 4e8:	00000ecb 	andeq	r0, r0, fp, asr #29
 4ec:	0000000c 	andeq	r0, r0, ip
 4f0:	ffffffff 			; <UNDEFINED> instruction: 0xffffffff
 4f4:	7c020001 	stcvc	0, cr0, [r2], {1}
 4f8:	000d0c0e 	andeq	r0, sp, lr, lsl #24
 4fc:	00000020 	andeq	r0, r0, r0, lsr #32
 500:	000004ec 	andeq	r0, r0, ip, ror #9
 504:	00011ba0 	andeq	r1, r1, r0, lsr #23
 508:	0000024c 	andeq	r0, r0, ip, asr #4
 50c:	8b080e42 	blhi	203e1c <__bss_end+0x1ee2e4>
 510:	42018e02 	andmi	r8, r1, #2, 28
 514:	03040b0c 	movweq	r0, #19212	; 0x4b0c
 518:	0d0c0112 	stfeqs	f0, [ip, #-72]	; 0xffffffb8
 51c:	00000008 	andeq	r0, r0, r8
 520:	0000001c 	andeq	r0, r0, ip, lsl r0
 524:	000004ec 	andeq	r0, r0, ip, ror #9
 528:	00011dec 	andeq	r1, r1, ip, ror #27
 52c:	00000100 	andeq	r0, r0, r0, lsl #2
 530:	8b080e42 	blhi	203e40 <__bss_end+0x1ee308>
 534:	42018e02 	andmi	r8, r1, #2, 28
 538:	02040b0c 	andeq	r0, r4, #12, 22	; 0x3000
 53c:	080d0c70 	stmdaeq	sp, {r4, r5, r6, sl, fp}
 540:	0000001c 	andeq	r0, r0, ip, lsl r0
 544:	000004ec 	andeq	r0, r0, ip, ror #9
 548:	00011eec 	andeq	r1, r1, ip, ror #29
 54c:	00000110 	andeq	r0, r0, r0, lsl r1
 550:	8b080e42 	blhi	203e60 <__bss_end+0x1ee328>
 554:	42018e02 	andmi	r8, r1, #2, 28
 558:	02040b0c 	andeq	r0, r4, #12, 22	; 0x3000
 55c:	080d0c7e 	stmdaeq	sp, {r1, r2, r3, r4, r5, r6, sl, fp}
 560:	0000001c 	andeq	r0, r0, ip, lsl r0
 564:	000004ec 	andeq	r0, r0, ip, ror #9
 568:	00011ffc 	strdeq	r1, [r1], -ip
 56c:	00000084 	andeq	r0, r0, r4, lsl #1
 570:	8b080e42 	blhi	203e80 <__bss_end+0x1ee348>
 574:	42018e02 	andmi	r8, r1, #2, 28
 578:	78040b0c 	stmdavc	r4, {r2, r3, r8, r9, fp}
 57c:	00080d0c 	andeq	r0, r8, ip, lsl #26
 580:	0000001c 	andeq	r0, r0, ip, lsl r0
 584:	000004ec 	andeq	r0, r0, ip, ror #9
 588:	00012080 	andeq	r2, r1, r0, lsl #1
 58c:	00000058 	andeq	r0, r0, r8, asr r0
 590:	8b080e42 	blhi	203ea0 <__bss_end+0x1ee368>
 594:	42018e02 	andmi	r8, r1, #2, 28
 598:	64040b0c 	strvs	r0, [r4], #-2828	; 0xfffff4f4
 59c:	00080d0c 	andeq	r0, r8, ip, lsl #26
 5a0:	0000001c 	andeq	r0, r0, ip, lsl r0
 5a4:	000004ec 	andeq	r0, r0, ip, ror #9
 5a8:	000120d8 	ldrdeq	r2, [r1], -r8
 5ac:	000001a8 	andeq	r0, r0, r8, lsr #3
 5b0:	8b080e42 	blhi	203ec0 <__bss_end+0x1ee388>
 5b4:	42018e02 	andmi	r8, r1, #2, 28
 5b8:	02040b0c 	andeq	r0, r4, #12, 22	; 0x3000
 5bc:	080d0cc8 	stmdaeq	sp, {r3, r6, r7, sl, fp}
 5c0:	0000001c 	andeq	r0, r0, ip, lsl r0
 5c4:	000004ec 	andeq	r0, r0, ip, ror #9
 5c8:	00012280 	andeq	r2, r1, r0, lsl #5
 5cc:	00000104 	andeq	r0, r0, r4, lsl #2
 5d0:	8b080e42 	blhi	203ee0 <__bss_end+0x1ee3a8>
 5d4:	42018e02 	andmi	r8, r1, #2, 28
 5d8:	02040b0c 	andeq	r0, r4, #12, 22	; 0x3000
 5dc:	080d0c74 	stmdaeq	sp, {r2, r4, r5, r6, sl, fp}
 5e0:	0000001c 	andeq	r0, r0, ip, lsl r0
 5e4:	000004ec 	andeq	r0, r0, ip, ror #9
 5e8:	00012384 	andeq	r2, r1, r4, lsl #7
 5ec:	0000007c 	andeq	r0, r0, ip, ror r0
 5f0:	8b040e42 	blhi	103f00 <__bss_end+0xee3c8>
 5f4:	0b0d4201 	bleq	350e00 <__bss_end+0x33b2c8>
 5f8:	420d0d72 	andmi	r0, sp, #7296	; 0x1c80
 5fc:	00000ecb 	andeq	r0, r0, fp, asr #29
 600:	0000001c 	andeq	r0, r0, ip, lsl r0
 604:	000004ec 	andeq	r0, r0, ip, ror #9
 608:	00012400 	andeq	r2, r1, r0, lsl #8
 60c:	000000f8 	strdeq	r0, [r0], -r8
 610:	8b080e42 	blhi	203f20 <__bss_end+0x1ee3e8>
 614:	42018e02 	andmi	r8, r1, #2, 28
 618:	02040b0c 	andeq	r0, r4, #12, 22	; 0x3000
 61c:	080d0c70 	stmdaeq	sp, {r4, r5, r6, sl, fp}
 620:	0000001c 	andeq	r0, r0, ip, lsl r0
 624:	000004ec 	andeq	r0, r0, ip, ror #9
 628:	000124f8 	strdeq	r2, [r1], -r8
 62c:	0000011c 	andeq	r0, r0, ip, lsl r1
 630:	8b080e42 	blhi	203f40 <__bss_end+0x1ee408>
 634:	42018e02 	andmi	r8, r1, #2, 28
 638:	02040b0c 	andeq	r0, r4, #12, 22	; 0x3000
 63c:	080d0c7e 	stmdaeq	sp, {r1, r2, r3, r4, r5, r6, sl, fp}
 640:	0000001c 	andeq	r0, r0, ip, lsl r0
 644:	000004ec 	andeq	r0, r0, ip, ror #9
 648:	00012614 	andeq	r2, r1, r4, lsl r6
 64c:	0000009c 	muleq	r0, ip, r0
 650:	8b080e42 	blhi	203f60 <__bss_end+0x1ee428>
 654:	42018e02 	andmi	r8, r1, #2, 28
 658:	02040b0c 	andeq	r0, r4, #12, 22	; 0x3000
 65c:	080d0c40 	stmdaeq	sp, {r6, sl, fp}
 660:	00000018 	andeq	r0, r0, r8, lsl r0
 664:	000004ec 	andeq	r0, r0, ip, ror #9
 668:	000126b0 			; <UNDEFINED> instruction: 0x000126b0
 66c:	00000038 	andeq	r0, r0, r8, lsr r0
 670:	8b080e42 	blhi	203f80 <__bss_end+0x1ee448>
 674:	42018e02 	andmi	r8, r1, #2, 28
 678:	00040b0c 	andeq	r0, r4, ip, lsl #22
 67c:	0000001c 	andeq	r0, r0, ip, lsl r0
 680:	000004ec 	andeq	r0, r0, ip, ror #9
 684:	000126e8 	andeq	r2, r1, r8, ror #13
 688:	00000030 	andeq	r0, r0, r0, lsr r0
 68c:	8b040e42 	blhi	103f9c <__bss_end+0xee464>
 690:	0b0d4201 	bleq	350e9c <__bss_end+0x33b364>
 694:	420d0d4e 	andmi	r0, sp, #4992	; 0x1380
 698:	00000ecb 	andeq	r0, r0, fp, asr #29
 69c:	00000020 	andeq	r0, r0, r0, lsr #32
 6a0:	000004ec 	andeq	r0, r0, ip, ror #9
 6a4:	00012718 	andeq	r2, r1, r8, lsl r7
 6a8:	000001a4 	andeq	r0, r0, r4, lsr #3
 6ac:	840c0e42 	strhi	r0, [ip], #-3650	; 0xfffff1be
 6b0:	8e028b03 	vmlahi.f64	d8, d2, d3
 6b4:	0b0c4201 	bleq	310ec0 <__bss_end+0x2fb388>
 6b8:	0cbc0204 	lfmeq	f0, 4, [ip], #16
 6bc:	00000c0d 	andeq	r0, r0, sp, lsl #24
 6c0:	0000001c 	andeq	r0, r0, ip, lsl r0
 6c4:	000004ec 	andeq	r0, r0, ip, ror #9
 6c8:	000128bc 			; <UNDEFINED> instruction: 0x000128bc
 6cc:	00000034 	andeq	r0, r0, r4, lsr r0
 6d0:	8b080e42 	blhi	203fe0 <__bss_end+0x1ee4a8>
 6d4:	42018e02 	andmi	r8, r1, #2, 28
 6d8:	52040b0c 	andpl	r0, r4, #12, 22	; 0x3000
 6dc:	00080d0c 	andeq	r0, r8, ip, lsl #26
 6e0:	0000001c 	andeq	r0, r0, ip, lsl r0
 6e4:	000004ec 	andeq	r0, r0, ip, ror #9
 6e8:	000128f0 	strdeq	r2, [r1], -r0
 6ec:	00000038 	andeq	r0, r0, r8, lsr r0
 6f0:	8b040e42 	blhi	104000 <__bss_end+0xee4c8>
 6f4:	0b0d4201 	bleq	350f00 <__bss_end+0x33b3c8>
 6f8:	420d0d52 	andmi	r0, sp, #5248	; 0x1480
 6fc:	00000ecb 	andeq	r0, r0, fp, asr #29
 700:	0000001c 	andeq	r0, r0, ip, lsl r0
 704:	000004ec 	andeq	r0, r0, ip, ror #9
 708:	00012928 	andeq	r2, r1, r8, lsr #18
 70c:	00000024 	andeq	r0, r0, r4, lsr #32
 710:	8b040e42 	blhi	104020 <__bss_end+0xee4e8>
 714:	0b0d4201 	bleq	350f20 <__bss_end+0x33b3e8>
 718:	420d0d48 	andmi	r0, sp, #72, 26	; 0x1200
 71c:	00000ecb 	andeq	r0, r0, fp, asr #29
 720:	0000001c 	andeq	r0, r0, ip, lsl r0
 724:	000004ec 	andeq	r0, r0, ip, ror #9
 728:	0001294c 	andeq	r2, r1, ip, asr #18
 72c:	0000021c 	andeq	r0, r0, ip, lsl r2
 730:	8b080e42 	blhi	204040 <__bss_end+0x1ee508>
 734:	42018e02 	andmi	r8, r1, #2, 28
 738:	02040b0c 	andeq	r0, r4, #12, 22	; 0x3000
 73c:	080d0cf6 	stmdaeq	sp, {r1, r2, r4, r5, r6, r7, sl, fp}
 740:	0000001c 	andeq	r0, r0, ip, lsl r0
 744:	000004ec 	andeq	r0, r0, ip, ror #9
 748:	00012b68 	andeq	r2, r1, r8, ror #22
 74c:	0000005c 	andeq	r0, r0, ip, asr r0
 750:	8b080e42 	blhi	204060 <__bss_end+0x1ee528>
 754:	42018e02 	andmi	r8, r1, #2, 28
 758:	66040b0c 	strvs	r0, [r4], -ip, lsl #22
 75c:	00080d0c 	andeq	r0, r8, ip, lsl #26
 760:	0000001c 	andeq	r0, r0, ip, lsl r0
 764:	000004ec 	andeq	r0, r0, ip, ror #9
 768:	00012bc4 	andeq	r2, r1, r4, asr #23
 76c:	0000005c 	andeq	r0, r0, ip, asr r0
 770:	8b080e42 	blhi	204080 <__bss_end+0x1ee548>
 774:	42018e02 	andmi	r8, r1, #2, 28
 778:	66040b0c 	strvs	r0, [r4], -ip, lsl #22
 77c:	00080d0c 	andeq	r0, r8, ip, lsl #26
 780:	0000001c 	andeq	r0, r0, ip, lsl r0
 784:	000004ec 	andeq	r0, r0, ip, ror #9
 788:	00012c20 	andeq	r2, r1, r0, lsr #24
 78c:	0000007c 	andeq	r0, r0, ip, ror r0
 790:	8b080e42 	blhi	2040a0 <__bss_end+0x1ee568>
 794:	42018e02 	andmi	r8, r1, #2, 28
 798:	76040b0c 	strvc	r0, [r4], -ip, lsl #22
 79c:	00080d0c 	andeq	r0, r8, ip, lsl #26
 7a0:	0000001c 	andeq	r0, r0, ip, lsl r0
 7a4:	000004ec 	andeq	r0, r0, ip, ror #9
 7a8:	00012c9c 	muleq	r1, ip, ip
 7ac:	00000108 	andeq	r0, r0, r8, lsl #2
 7b0:	8b040e42 	blhi	1040c0 <__bss_end+0xee588>
 7b4:	0b0d4201 	bleq	350fc0 <__bss_end+0x33b488>
 7b8:	0d0d7202 	sfmeq	f7, 4, [sp, #-8]
 7bc:	000ecb42 	andeq	ip, lr, r2, asr #22
 7c0:	0000001c 	andeq	r0, r0, ip, lsl r0
 7c4:	000004ec 	andeq	r0, r0, ip, ror #9
 7c8:	00012da4 	andeq	r2, r1, r4, lsr #27
 7cc:	0000009c 	muleq	r0, ip, r0
 7d0:	8b080e42 	blhi	2040e0 <__bss_end+0x1ee5a8>
 7d4:	42018e02 	andmi	r8, r1, #2, 28
 7d8:	02040b0c 	andeq	r0, r4, #12, 22	; 0x3000
 7dc:	080d0c42 	stmdaeq	sp, {r1, r6, sl, fp}
 7e0:	0000001c 	andeq	r0, r0, ip, lsl r0
 7e4:	000004ec 	andeq	r0, r0, ip, ror #9
 7e8:	00012e40 	andeq	r2, r1, r0, asr #28
 7ec:	00000118 	andeq	r0, r0, r8, lsl r1
 7f0:	8b080e42 	blhi	204100 <__bss_end+0x1ee5c8>
 7f4:	42018e02 	andmi	r8, r1, #2, 28
 7f8:	02040b0c 	andeq	r0, r4, #12, 22	; 0x3000
 7fc:	080d0c7c 	stmdaeq	sp, {r2, r3, r4, r5, r6, sl, fp}
 800:	0000001c 	andeq	r0, r0, ip, lsl r0
 804:	000004ec 	andeq	r0, r0, ip, ror #9
 808:	00012f58 	andeq	r2, r1, r8, asr pc
 80c:	00000048 	andeq	r0, r0, r8, asr #32
 810:	8b040e42 	blhi	104120 <__bss_end+0xee5e8>
 814:	0b0d4201 	bleq	351020 <__bss_end+0x33b4e8>
 818:	420d0d58 	andmi	r0, sp, #88, 26	; 0x1600
 81c:	00000ecb 	andeq	r0, r0, fp, asr #29
 820:	0000001c 	andeq	r0, r0, ip, lsl r0
 824:	000004ec 	andeq	r0, r0, ip, ror #9
 828:	00012fa0 	andeq	r2, r1, r0, lsr #31
 82c:	000000f4 	strdeq	r0, [r0], -r4
 830:	8b080e42 	blhi	204140 <__bss_end+0x1ee608>
 834:	42018e02 	andmi	r8, r1, #2, 28
 838:	02040b0c 	andeq	r0, r4, #12, 22	; 0x3000
 83c:	080d0c70 	stmdaeq	sp, {r4, r5, r6, sl, fp}
 840:	0000001c 	andeq	r0, r0, ip, lsl r0
 844:	000004ec 	andeq	r0, r0, ip, ror #9
 848:	00013094 	muleq	r1, r4, r0
 84c:	00000028 	andeq	r0, r0, r8, lsr #32
 850:	8b040e42 	blhi	104160 <__bss_end+0xee628>
 854:	0b0d4201 	bleq	351060 <__bss_end+0x33b528>
 858:	420d0d4a 	andmi	r0, sp, #4736	; 0x1280
 85c:	00000ecb 	andeq	r0, r0, fp, asr #29
 860:	00000018 	andeq	r0, r0, r8, lsl r0
 864:	000004ec 	andeq	r0, r0, ip, ror #9
 868:	000130bc 	strheq	r3, [r1], -ip
 86c:	00000030 	andeq	r0, r0, r0, lsr r0
 870:	8b080e42 	blhi	204180 <__bss_end+0x1ee648>
 874:	42018e02 	andmi	r8, r1, #2, 28
 878:	00040b0c 	andeq	r0, r4, ip, lsl #22
 87c:	0000001c 	andeq	r0, r0, ip, lsl r0
 880:	000004ec 	andeq	r0, r0, ip, ror #9
 884:	000130ec 	andeq	r3, r1, ip, ror #1
 888:	000000c0 	andeq	r0, r0, r0, asr #1
 88c:	8b080e42 	blhi	20419c <__bss_end+0x1ee664>
 890:	42018e02 	andmi	r8, r1, #2, 28
 894:	02040b0c 	andeq	r0, r4, #12, 22	; 0x3000
 898:	080d0c5a 	stmdaeq	sp, {r1, r3, r4, r6, sl, fp}
 89c:	0000001c 	andeq	r0, r0, ip, lsl r0
 8a0:	000004ec 	andeq	r0, r0, ip, ror #9
 8a4:	000131ac 	andeq	r3, r1, ip, lsr #3
 8a8:	000000c0 	andeq	r0, r0, r0, asr #1
 8ac:	8b080e42 	blhi	2041bc <__bss_end+0x1ee684>
 8b0:	42018e02 	andmi	r8, r1, #2, 28
 8b4:	02040b0c 	andeq	r0, r4, #12, 22	; 0x3000
 8b8:	080d0c4a 	stmdaeq	sp, {r1, r3, r6, sl, fp}
 8bc:	0000001c 	andeq	r0, r0, ip, lsl r0
 8c0:	000004ec 	andeq	r0, r0, ip, ror #9
 8c4:	0001326c 	andeq	r3, r1, ip, ror #4
 8c8:	000000bc 	strheq	r0, [r0], -ip
 8cc:	8b080e42 	blhi	2041dc <__bss_end+0x1ee6a4>
 8d0:	42018e02 	andmi	r8, r1, #2, 28
 8d4:	02040b0c 	andeq	r0, r4, #12, 22	; 0x3000
 8d8:	080d0c52 	stmdaeq	sp, {r1, r4, r6, sl, fp}
 8dc:	0000001c 	andeq	r0, r0, ip, lsl r0
 8e0:	000004ec 	andeq	r0, r0, ip, ror #9
 8e4:	00013328 	andeq	r3, r1, r8, lsr #6
 8e8:	000000b8 	strheq	r0, [r0], -r8
 8ec:	8b080e42 	blhi	2041fc <__bss_end+0x1ee6c4>
 8f0:	42018e02 	andmi	r8, r1, #2, 28
 8f4:	02040b0c 	andeq	r0, r4, #12, 22	; 0x3000
 8f8:	080d0c4c 	stmdaeq	sp, {r2, r3, r6, sl, fp}
 8fc:	0000001c 	andeq	r0, r0, ip, lsl r0
 900:	000004ec 	andeq	r0, r0, ip, ror #9
 904:	000133e0 	andeq	r3, r1, r0, ror #7
 908:	000000b0 	strheq	r0, [r0], -r0	; <UNPREDICTABLE>
 90c:	8b080e42 	blhi	20421c <__bss_end+0x1ee6e4>
 910:	42018e02 	andmi	r8, r1, #2, 28
 914:	02040b0c 	andeq	r0, r4, #12, 22	; 0x3000
 918:	080d0c52 	stmdaeq	sp, {r1, r4, r6, sl, fp}
 91c:	0000001c 	andeq	r0, r0, ip, lsl r0
 920:	000004ec 	andeq	r0, r0, ip, ror #9
 924:	00013490 	muleq	r1, r0, r4
 928:	00000034 	andeq	r0, r0, r4, lsr r0
 92c:	8b080e42 	blhi	20423c <__bss_end+0x1ee704>
 930:	42018e02 	andmi	r8, r1, #2, 28
 934:	54040b0c 	strpl	r0, [r4], #-2828	; 0xfffff4f4
 938:	00080d0c 	andeq	r0, r8, ip, lsl #26
 93c:	0000000c 	andeq	r0, r0, ip
 940:	ffffffff 			; <UNDEFINED> instruction: 0xffffffff
 944:	7c020001 	stcvc	0, cr0, [r2], {1}
 948:	000d0c0e 	andeq	r0, sp, lr, lsl #24
 94c:	0000001c 	andeq	r0, r0, ip, lsl r0
 950:	0000093c 	andeq	r0, r0, ip, lsr r9
 954:	000134c4 	andeq	r3, r1, r4, asr #9
 958:	000000b0 	strheq	r0, [r0], -r0	; <UNPREDICTABLE>
 95c:	8b080e42 	blhi	20426c <__bss_end+0x1ee734>
 960:	42018e02 	andmi	r8, r1, #2, 28
 964:	02040b0c 	andeq	r0, r4, #12, 22	; 0x3000
 968:	080d0c50 	stmdaeq	sp, {r4, r6, sl, fp}
 96c:	0000001c 	andeq	r0, r0, ip, lsl r0
 970:	0000093c 	andeq	r0, r0, ip, lsr r9
 974:	00013574 	andeq	r3, r1, r4, ror r5
 978:	000000a0 	andeq	r0, r0, r0, lsr #1
 97c:	84100e42 	ldrhi	r0, [r0], #-3650	; 0xfffff1be
 980:	8b038504 	blhi	e1d98 <__bss_end+0xcc260>
 984:	42018e02 	andmi	r8, r1, #2, 28
 988:	00040b0c 	andeq	r0, r4, ip, lsl #22
 98c:	0000001c 	andeq	r0, r0, ip, lsl r0
 990:	0000093c 	andeq	r0, r0, ip, lsr r9
 994:	00013614 	andeq	r3, r1, r4, lsl r6
 998:	0000001c 	andeq	r0, r0, ip, lsl r0
 99c:	8b040e42 	blhi	1042ac <__bss_end+0xee774>
 9a0:	0b0d4201 	bleq	3511ac <__bss_end+0x33b674>
 9a4:	420d0d46 	andmi	r0, sp, #4480	; 0x1180
 9a8:	00000ecb 	andeq	r0, r0, fp, asr #29
 9ac:	0000001c 	andeq	r0, r0, ip, lsl r0
 9b0:	0000093c 	andeq	r0, r0, ip, lsr r9
 9b4:	00013630 	andeq	r3, r1, r0, lsr r6
 9b8:	0000001c 	andeq	r0, r0, ip, lsl r0
 9bc:	8b040e42 	blhi	1042cc <__bss_end+0xee794>
 9c0:	0b0d4201 	bleq	3511cc <__bss_end+0x33b694>
 9c4:	420d0d46 	andmi	r0, sp, #4480	; 0x1180
 9c8:	00000ecb 	andeq	r0, r0, fp, asr #29
 9cc:	0000001c 	andeq	r0, r0, ip, lsl r0
 9d0:	0000093c 	andeq	r0, r0, ip, lsr r9
 9d4:	0001364c 	andeq	r3, r1, ip, asr #12
 9d8:	00000064 	andeq	r0, r0, r4, rrx
 9dc:	8b080e42 	blhi	2042ec <__bss_end+0x1ee7b4>
 9e0:	42018e02 	andmi	r8, r1, #2, 28
 9e4:	6a040b0c 	bvs	10361c <__bss_end+0xedae4>
 9e8:	00080d0c 	andeq	r0, r8, ip, lsl #26
 9ec:	0000001c 	andeq	r0, r0, ip, lsl r0
 9f0:	0000093c 	andeq	r0, r0, ip, lsr r9
 9f4:	000136b0 			; <UNDEFINED> instruction: 0x000136b0
 9f8:	000000d4 	ldrdeq	r0, [r0], -r4
 9fc:	8b040e42 	blhi	10430c <__bss_end+0xee7d4>
 a00:	0b0d4201 	bleq	35120c <__bss_end+0x33b6d4>
 a04:	0d0d5e02 	stceq	14, cr5, [sp, #-8]
 a08:	000ecb42 	andeq	ip, lr, r2, asr #22
 a0c:	0000001c 	andeq	r0, r0, ip, lsl r0
 a10:	0000093c 	andeq	r0, r0, ip, lsr r9
 a14:	00013784 	andeq	r3, r1, r4, lsl #15
 a18:	000000e0 	andeq	r0, r0, r0, ror #1
 a1c:	8b040e42 	blhi	10432c <__bss_end+0xee7f4>
 a20:	0b0d4201 	bleq	35122c <__bss_end+0x33b6f4>
 a24:	0d0d6402 	cfstrseq	mvf6, [sp, #-8]
 a28:	000ecb42 	andeq	ip, lr, r2, asr #22
 a2c:	0000000c 	andeq	r0, r0, ip
 a30:	ffffffff 			; <UNDEFINED> instruction: 0xffffffff
 a34:	7c020001 	stcvc	0, cr0, [r2], {1}
 a38:	000d0c0e 	andeq	r0, sp, lr, lsl #24
 a3c:	0000001c 	andeq	r0, r0, ip, lsl r0
 a40:	00000a2c 	andeq	r0, r0, ip, lsr #20
 a44:	00013864 	andeq	r3, r1, r4, ror #16
 a48:	000000dc 	ldrdeq	r0, [r0], -ip
 a4c:	8b040e42 	blhi	10435c <__bss_end+0xee824>
 a50:	0b0d4201 	bleq	35125c <__bss_end+0x33b724>
 a54:	0d0d6202 	sfmeq	f6, 4, [sp, #-8]
 a58:	000ecb42 	andeq	ip, lr, r2, asr #22
 a5c:	0000001c 	andeq	r0, r0, ip, lsl r0
 a60:	00000a2c 	andeq	r0, r0, ip, lsr #20
 a64:	00013940 	andeq	r3, r1, r0, asr #18
 a68:	00000034 	andeq	r0, r0, r4, lsr r0
 a6c:	8b080e42 	blhi	20437c <__bss_end+0x1ee844>
 a70:	42018e02 	andmi	r8, r1, #2, 28
 a74:	54040b0c 	strpl	r0, [r4], #-2828	; 0xfffff4f4
 a78:	00080d0c 	andeq	r0, r8, ip, lsl #26
 a7c:	0000001c 	andeq	r0, r0, ip, lsl r0
 a80:	00000a2c 	andeq	r0, r0, ip, lsr #20
 a84:	00013974 	andeq	r3, r1, r4, ror r9
 a88:	000000b8 	strheq	r0, [r0], -r8
 a8c:	8b040e42 	blhi	10439c <__bss_end+0xee864>
 a90:	0b0d4201 	bleq	35129c <__bss_end+0x33b764>
 a94:	0d0d5202 	sfmeq	f5, 4, [sp, #-8]
 a98:	000ecb42 	andeq	ip, lr, r2, asr #22
 a9c:	0000001c 	andeq	r0, r0, ip, lsl r0
 aa0:	00000a2c 	andeq	r0, r0, ip, lsr #20
 aa4:	00013a2c 	andeq	r3, r1, ip, lsr #20
 aa8:	00000050 	andeq	r0, r0, r0, asr r0
 aac:	8b040e42 	blhi	1043bc <__bss_end+0xee884>
 ab0:	0b0d4201 	bleq	3512bc <__bss_end+0x33b784>
 ab4:	420d0d5e 	andmi	r0, sp, #6016	; 0x1780
 ab8:	00000ecb 	andeq	r0, r0, fp, asr #29
 abc:	0000001c 	andeq	r0, r0, ip, lsl r0
 ac0:	00000a2c 	andeq	r0, r0, ip, lsr #20
 ac4:	00013a7c 	andeq	r3, r1, ip, ror sl
 ac8:	000001b0 			; <UNDEFINED> instruction: 0x000001b0
 acc:	8b040e42 	blhi	1043dc <__bss_end+0xee8a4>
 ad0:	0b0d4201 	bleq	3512dc <__bss_end+0x33b7a4>
 ad4:	0d0dce02 	stceq	14, cr12, [sp, #-8]
 ad8:	000ecb42 	andeq	ip, lr, r2, asr #22
 adc:	0000001c 	andeq	r0, r0, ip, lsl r0
 ae0:	00000a2c 	andeq	r0, r0, ip, lsr #20
 ae4:	00013c2c 	andeq	r3, r1, ip, lsr #24
 ae8:	000001b8 			; <UNDEFINED> instruction: 0x000001b8
 aec:	8b040e42 	blhi	1043fc <__bss_end+0xee8c4>
 af0:	0b0d4201 	bleq	3512fc <__bss_end+0x33b7c4>
 af4:	0d0dd202 	sfmeq	f5, 1, [sp, #-8]
 af8:	000ecb42 	andeq	ip, lr, r2, asr #22
 afc:	0000001c 	andeq	r0, r0, ip, lsl r0
 b00:	00000a2c 	andeq	r0, r0, ip, lsr #20
 b04:	00013de4 	andeq	r3, r1, r4, ror #27
 b08:	00000058 	andeq	r0, r0, r8, asr r0
 b0c:	8b040e42 	blhi	10441c <__bss_end+0xee8e4>
 b10:	0b0d4201 	bleq	35131c <__bss_end+0x33b7e4>
 b14:	420d0d62 	andmi	r0, sp, #6272	; 0x1880
 b18:	00000ecb 	andeq	r0, r0, fp, asr #29
 b1c:	0000000c 	andeq	r0, r0, ip
 b20:	ffffffff 			; <UNDEFINED> instruction: 0xffffffff
 b24:	7c020001 	stcvc	0, cr0, [r2], {1}
 b28:	000d0c0e 	andeq	r0, sp, lr, lsl #24
 b2c:	0000001c 	andeq	r0, r0, ip, lsl r0
 b30:	00000b1c 	andeq	r0, r0, ip, lsl fp
 b34:	00013e3c 	andeq	r3, r1, ip, lsr lr
 b38:	000001c8 	andeq	r0, r0, r8, asr #3
 b3c:	8b080e42 	blhi	20444c <__bss_end+0x1ee914>
 b40:	42018e02 	andmi	r8, r1, #2, 28
 b44:	02040b0c 	andeq	r0, r4, #12, 22	; 0x3000
 b48:	080d0cd6 	stmdaeq	sp, {r1, r2, r4, r6, r7, sl, fp}
 b4c:	0000001c 	andeq	r0, r0, ip, lsl r0
 b50:	00000b1c 	andeq	r0, r0, ip, lsl fp
 b54:	00014004 	andeq	r4, r1, r4
 b58:	0000007c 	andeq	r0, r0, ip, ror r0
 b5c:	8b080e42 	blhi	20446c <__bss_end+0x1ee934>
 b60:	42018e02 	andmi	r8, r1, #2, 28
 b64:	76040b0c 	strvc	r0, [r4], -ip, lsl #22
 b68:	00080d0c 	andeq	r0, r8, ip, lsl #26
 b6c:	0000001c 	andeq	r0, r0, ip, lsl r0
 b70:	00000b1c 	andeq	r0, r0, ip, lsl fp
 b74:	00014080 	andeq	r4, r1, r0, lsl #1
 b78:	00000024 	andeq	r0, r0, r4, lsr #32
 b7c:	8b040e42 	blhi	10448c <__bss_end+0xee954>
 b80:	0b0d4201 	bleq	35138c <__bss_end+0x33b854>
 b84:	420d0d48 	andmi	r0, sp, #72, 26	; 0x1200
 b88:	00000ecb 	andeq	r0, r0, fp, asr #29
 b8c:	0000001c 	andeq	r0, r0, ip, lsl r0
 b90:	00000b1c 	andeq	r0, r0, ip, lsl fp
 b94:	000140a4 	andeq	r4, r1, r4, lsr #1
 b98:	00000018 	andeq	r0, r0, r8, lsl r0
 b9c:	8b040e42 	blhi	1044ac <__bss_end+0xee974>
 ba0:	0b0d4201 	bleq	3513ac <__bss_end+0x33b874>
 ba4:	420d0d44 	andmi	r0, sp, #68, 26	; 0x1100
 ba8:	00000ecb 	andeq	r0, r0, fp, asr #29
 bac:	0000001c 	andeq	r0, r0, ip, lsl r0
 bb0:	00000b1c 	andeq	r0, r0, ip, lsl fp
 bb4:	000140bc 	strheq	r4, [r1], -ip
 bb8:	000000d8 	ldrdeq	r0, [r0], -r8
 bbc:	8b040e42 	blhi	1044cc <__bss_end+0xee994>
 bc0:	0b0d4201 	bleq	3513cc <__bss_end+0x33b894>
 bc4:	0d0d5c02 	stceq	12, cr5, [sp, #-8]
 bc8:	000ecb42 	andeq	ip, lr, r2, asr #22
 bcc:	0000001c 	andeq	r0, r0, ip, lsl r0
 bd0:	00000b1c 	andeq	r0, r0, ip, lsl fp
 bd4:	00014194 	muleq	r1, r4, r1
 bd8:	00000154 	andeq	r0, r0, r4, asr r1
 bdc:	8b040e42 	blhi	1044ec <__bss_end+0xee9b4>
 be0:	0b0d4201 	bleq	3513ec <__bss_end+0x33b8b4>
 be4:	0d0d9e02 	stceq	14, cr9, [sp, #-8]
 be8:	000ecb42 	andeq	ip, lr, r2, asr #22
 bec:	0000000c 	andeq	r0, r0, ip
 bf0:	ffffffff 			; <UNDEFINED> instruction: 0xffffffff
 bf4:	7c020001 	stcvc	0, cr0, [r2], {1}
 bf8:	000d0c0e 	andeq	r0, sp, lr, lsl #24
 bfc:	00000018 	andeq	r0, r0, r8, lsl r0
 c00:	00000bec 	andeq	r0, r0, ip, ror #23
 c04:	00014300 	andeq	r4, r1, r0, lsl #6
 c08:	0000003c 	andeq	r0, r0, ip, lsr r0
 c0c:	8b080e42 	blhi	20451c <__bss_end+0x1ee9e4>
 c10:	42018e02 	andmi	r8, r1, #2, 28
 c14:	00040b0c 	andeq	r0, r4, ip, lsl #22
 c18:	00000018 	andeq	r0, r0, r8, lsl r0
 c1c:	00000bec 	andeq	r0, r0, ip, ror #23
 c20:	0001433c 	andeq	r4, r1, ip, lsr r3
 c24:	00000044 	andeq	r0, r0, r4, asr #32
 c28:	8b080e42 	blhi	204538 <__bss_end+0x1eea00>
 c2c:	42018e02 	andmi	r8, r1, #2, 28
 c30:	00040b0c 	andeq	r0, r4, ip, lsl #22
 c34:	00000018 	andeq	r0, r0, r8, lsl r0
 c38:	00000bec 	andeq	r0, r0, ip, ror #23
 c3c:	00014380 	andeq	r4, r1, r0, lsl #7
 c40:	00000098 	muleq	r0, r8, r0
 c44:	8b080e42 	blhi	204554 <__bss_end+0x1eea1c>
 c48:	42018e02 	andmi	r8, r1, #2, 28
 c4c:	00040b0c 	andeq	r0, r4, ip, lsl #22
 c50:	0000000c 	andeq	r0, r0, ip
 c54:	ffffffff 			; <UNDEFINED> instruction: 0xffffffff
 c58:	7c020001 	stcvc	0, cr0, [r2], {1}
 c5c:	000d0c0e 	andeq	r0, sp, lr, lsl #24
 c60:	00000020 	andeq	r0, r0, r0, lsr #32
 c64:	00000c50 	andeq	r0, r0, r0, asr ip
 c68:	00014444 	andeq	r4, r1, r4, asr #8
 c6c:	00000110 	andeq	r0, r0, r0, lsl r1
 c70:	84100e66 	ldrhi	r0, [r0], #-3686	; 0xfffff19a
 c74:	86038504 	strhi	r8, [r3], -r4, lsl #10
 c78:	02018e02 	andeq	r8, r1, #2, 28
 c7c:	c5c6ce60 	strbgt	ip, [r6, #3680]	; 0xe60
 c80:	00000ec4 	andeq	r0, r0, r4, asr #29
 c84:	0000000c 	andeq	r0, r0, ip
 c88:	ffffffff 			; <UNDEFINED> instruction: 0xffffffff
 c8c:	7c020001 	stcvc	0, cr0, [r2], {1}
 c90:	000d0c0e 	andeq	r0, sp, lr, lsl #24
 c94:	0000001c 	andeq	r0, r0, ip, lsl r0
 c98:	00000c84 	andeq	r0, r0, r4, lsl #25
 c9c:	00014554 	andeq	r4, r1, r4, asr r5
 ca0:	00000114 	andeq	r0, r0, r4, lsl r1
 ca4:	840c0e62 	strhi	r0, [ip], #-3682	; 0xfffff19e
 ca8:	8e028503 	cfsh32hi	mvfx8, mvfx2, #3
 cac:	ce520201 	cdpgt	2, 5, cr0, cr2, cr1, {0}
 cb0:	000ec4c5 	andeq	ip, lr, r5, asr #9
 cb4:	0000000c 	andeq	r0, r0, ip
 cb8:	ffffffff 			; <UNDEFINED> instruction: 0xffffffff
 cbc:	7c020001 	stcvc	0, cr0, [r2], {1}
 cc0:	000d0c0e 	andeq	r0, sp, lr, lsl #24
 cc4:	0000002c 	andeq	r0, r0, ip, lsr #32
 cc8:	00000cb4 			; <UNDEFINED> instruction: 0x00000cb4
 ccc:	00014668 	andeq	r4, r1, r8, ror #12
 cd0:	000000e0 	andeq	r0, r0, r0, ror #1
 cd4:	84100e52 	ldrhi	r0, [r0], #-3666	; 0xfffff1ae
 cd8:	86038504 	strhi	r8, [r3], -r4, lsl #10
 cdc:	66018e02 	strvs	r8, [r1], -r2, lsl #28
 ce0:	c5c6ce0a 	strbgt	ip, [r6, #3594]	; 0xe0a
 ce4:	42000ec4 	andmi	r0, r0, #196, 28	; 0xc40
 ce8:	ce0a500b 	cdpgt	0, 0, cr5, cr10, cr11, {0}
 cec:	0ec4c5c6 	cdpeq	5, 12, cr12, cr4, cr6, {6}
 cf0:	000b4200 	andeq	r4, fp, r0, lsl #4
